
/Users/abdulhannanmustajab/Desktop/IoT/Power-Monitoring/PowerMonitoring/target/3.0.0/boron/PowerMonitoring.elf:     file format elf32-littlearm

Sections:
Idx Name          Size      VMA       LMA       File off  Algn
  0 .module_info  00000018  000d4000  000d4000  00004000  2**0
                  CONTENTS, ALLOC, LOAD, READONLY, DATA
  1 .dynalib      00000004  000d4018  000d4018  00004018  2**2
                  CONTENTS, ALLOC, LOAD, READONLY, DATA
  2 .text         0000a7e0  000d4020  000d4020  00004020  2**3
                  CONTENTS, ALLOC, LOAD, READONLY, CODE
  3 .backup       00000944  2003f400  000de800  0000f400  2**2
                  CONTENTS, ALLOC, LOAD, DATA
  4 .data         000002bc  2003dc20  000df144  0001dc20  2**3
                  CONTENTS, ALLOC, LOAD, DATA
  5 .bss          00000918  2003dee0  2003dee0  0002dee0  2**3
                  ALLOC
  6 .module_info_suffix 0000002c  000df400  000df400  0001f400  2**1
                  CONTENTS, ALLOC, LOAD, DATA
  7 .module_info_crc 00000004  000df42c  000df42c  0001f42c  2**0
                  CONTENTS, ALLOC, LOAD, READONLY, DATA
  8 .debug_info   00235178  00000000  00000000  0001f430  2**0
                  CONTENTS, READONLY, DEBUGGING
  9 .debug_abbrev 0001fde8  00000000  00000000  002545a8  2**0
                  CONTENTS, READONLY, DEBUGGING
 10 .debug_loc    000479d5  00000000  00000000  00274390  2**0
                  CONTENTS, READONLY, DEBUGGING
 11 .debug_aranges 00003938  00000000  00000000  002bbd65  2**0
                  CONTENTS, READONLY, DEBUGGING
 12 .debug_ranges 0000c018  00000000  00000000  002bf69d  2**0
                  CONTENTS, READONLY, DEBUGGING
 13 .debug_macro  00043008  00000000  00000000  002cb6b5  2**0
                  CONTENTS, READONLY, DEBUGGING
 14 .debug_line   0005688d  00000000  00000000  0030e6bd  2**0
                  CONTENTS, READONLY, DEBUGGING
 15 .debug_str    00148c9a  00000000  00000000  00364f4a  2**0
                  CONTENTS, READONLY, DEBUGGING
 16 .debug_frame  0000ab64  00000000  00000000  004adbe4  2**2
                  CONTENTS, READONLY, DEBUGGING

Disassembly of section .text:

000d4020 <module_user_pre_init>:
/**
 * Initializes this user module. Returns the start of the heap.
 */
void* module_user_pre_init() {

    if ( (&link_global_data_start!=&link_global_data_initial_values) && (link_global_data_size != 0))
   d4020:	4809      	ldr	r0, [pc, #36]	; (d4048 <module_user_pre_init+0x28>)
   d4022:	490a      	ldr	r1, [pc, #40]	; (d404c <module_user_pre_init+0x2c>)
   d4024:	4288      	cmp	r0, r1
void* module_user_pre_init() {
   d4026:	b508      	push	{r3, lr}
    if ( (&link_global_data_start!=&link_global_data_initial_values) && (link_global_data_size != 0))
   d4028:	d005      	beq.n	d4036 <module_user_pre_init+0x16>
   d402a:	4a09      	ldr	r2, [pc, #36]	; (d4050 <module_user_pre_init+0x30>)
   d402c:	4282      	cmp	r2, r0
   d402e:	d002      	beq.n	d4036 <module_user_pre_init+0x16>
    {
        memcpy(&link_global_data_start, &link_global_data_initial_values, link_global_data_size);
   d4030:	1a12      	subs	r2, r2, r0
   d4032:	f007 fa9d 	bl	db570 <memcpy>
    }

    memset(&link_bss_location, 0, link_bss_size );
   d4036:	4807      	ldr	r0, [pc, #28]	; (d4054 <module_user_pre_init+0x34>)
   d4038:	4a07      	ldr	r2, [pc, #28]	; (d4058 <module_user_pre_init+0x38>)
   d403a:	2100      	movs	r1, #0
   d403c:	1a12      	subs	r2, r2, r0
   d403e:	f007 fabf 	bl	db5c0 <memset>
    return &link_global_data_start;
}
   d4042:	4801      	ldr	r0, [pc, #4]	; (d4048 <module_user_pre_init+0x28>)
   d4044:	bd08      	pop	{r3, pc}
   d4046:	bf00      	nop
   d4048:	2003dc20 	.word	0x2003dc20
   d404c:	000df144 	.word	0x000df144
   d4050:	2003dedc 	.word	0x2003dedc
   d4054:	2003dee0 	.word	0x2003dee0
   d4058:	2003e7f8 	.word	0x2003e7f8

000d405c <module_user_init>:
extern constructor_ptr_t link_constructors_location[];
extern constructor_ptr_t link_constructors_end;
#define link_constructors_size   ((unsigned long)&link_constructors_end  -  (unsigned long)&link_constructors_location )

void module_user_init()
{
   d405c:	b570      	push	{r4, r5, r6, lr}
    module_user_init_hook();

    // invoke constructors
    int ctor_num;
    for (ctor_num=0; ctor_num < link_constructors_size/sizeof(constructor_ptr_t); ctor_num++ )
   d405e:	4e07      	ldr	r6, [pc, #28]	; (d407c <module_user_init+0x20>)
   d4060:	4c07      	ldr	r4, [pc, #28]	; (d4080 <module_user_init+0x24>)
    module_user_init_hook();
   d4062:	f006 fb01 	bl	da668 <module_user_init_hook>
    for (ctor_num=0; ctor_num < link_constructors_size/sizeof(constructor_ptr_t); ctor_num++ )
   d4066:	1ba4      	subs	r4, r4, r6
   d4068:	08a4      	lsrs	r4, r4, #2
   d406a:	2500      	movs	r5, #0
   d406c:	42a5      	cmp	r5, r4
   d406e:	d100      	bne.n	d4072 <module_user_init+0x16>
    {
        link_constructors_location[ctor_num]();
    }
}
   d4070:	bd70      	pop	{r4, r5, r6, pc}
        link_constructors_location[ctor_num]();
   d4072:	f856 3b04 	ldr.w	r3, [r6], #4
   d4076:	4798      	blx	r3
    for (ctor_num=0; ctor_num < link_constructors_size/sizeof(constructor_ptr_t); ctor_num++ )
   d4078:	3501      	adds	r5, #1
   d407a:	e7f7      	b.n	d406c <module_user_init+0x10>
   d407c:	000de7c4 	.word	0x000de7c4
   d4080:	000de7f8 	.word	0x000de7f8

000d4084 <module_user_setup>:

/**
 * Export these functions with a fuller name so they don't clash with the setup/loop wrappers in the system module.
 */
void module_user_setup() {
    setup();
   d4084:	f001 bf1a 	b.w	d5ebc <setup>

000d4088 <module_user_loop>:
}

void module_user_loop() {
   d4088:	b508      	push	{r3, lr}
    loop();
   d408a:	f001 fd95 	bl	d5bb8 <loop>
    _post_loop();
}
   d408e:	e8bd 4008 	ldmia.w	sp!, {r3, lr}
    _post_loop();
   d4092:	f006 baab 	b.w	da5ec <_post_loop>

000d4096 <_Znwj>:
 * Implement C++ new/delete operators using the heap
 */

void *operator new(size_t size)
{
	return malloc(size);
   d4096:	f004 bcc3 	b.w	d8a20 <malloc>

000d409a <_Znaj>:
   d409a:	f004 bcc1 	b.w	d8a20 <malloc>

000d409e <_ZdlPv>:
	return malloc(size);
}

void operator delete(void *p)
{
	free(p);
   d409e:	f004 bcc7 	b.w	d8a30 <free>

000d40a2 <_ZdaPv>:
   d40a2:	f004 bcc5 	b.w	d8a30 <free>
	...

000d40a8 <__cxa_pure_virtual>:
char* strerror(int errnum) {
    return (char*)"";
}

/* Default implementation for call made to pure virtual function. */
void __cxa_pure_virtual() {
   d40a8:	b508      	push	{r3, lr}
  PANIC(PureVirtualCall,"Call on pure virtual");
   d40aa:	4a03      	ldr	r2, [pc, #12]	; (d40b8 <__cxa_pure_virtual+0x10>)
   d40ac:	2100      	movs	r1, #0
   d40ae:	200c      	movs	r0, #12
   d40b0:	f004 fb70 	bl	d8794 <panic_>
  while (1);
   d40b4:	e7fe      	b.n	d40b4 <__cxa_pure_virtual+0xc>
   d40b6:	bf00      	nop
   d40b8:	000d84c5 	.word	0x000d84c5

000d40bc <__cxa_guard_acquire>:

/* Provide default implemenation for __cxa_guard_acquire() and
 * __cxa_guard_release(). Note: these must be revisited if a multitasking
 * OS is ported to this platform. */
__extension__ typedef int __guard __attribute__((mode (__DI__)));
int __cxa_guard_acquire(__guard *g) {return !*(char *)(g);};
   d40bc:	7800      	ldrb	r0, [r0, #0]
   d40be:	fab0 f080 	clz	r0, r0
   d40c2:	0940      	lsrs	r0, r0, #5
   d40c4:	4770      	bx	lr

000d40c6 <__cxa_guard_release>:
void __cxa_guard_release (__guard *g) {*(char *)g = 1;};
   d40c6:	2301      	movs	r3, #1
   d40c8:	7003      	strb	r3, [r0, #0]
   d40ca:	4770      	bx	lr

000d40cc <_ZN18CloudConfigStorage13getDataHeaderEv>:
     * 
     * This is only available in classes derived from CloudConfigStorageData, which is all
     * of them except CloudConfigDataStatic, which is not updateable and therefore does not
     * need the structure.
     */
    virtual CloudConfigDataHeader *getDataHeader() { return 0; };
   d40cc:	2000      	movs	r0, #0
   d40ce:	4770      	bx	lr

000d40d0 <_ZN18CloudConfigStorage4loopEv>:
    virtual void parse() { jsonObj = JSONValue::parseCopy(getJsonData()); };

    /**
     * @brief Called from loop(). Optional. Only needed if the storage method wants loop processing time.
     */
    virtual void loop() {};
   d40d0:	4770      	bx	lr

000d40d2 <_ZN18CloudConfigStorage10updateDataEPKc>:
     * 
     * @param json The new JSON data to save
     * 
     * This is subclassed in CloudConfigStorageData.
     */
    virtual bool updateData(const char *json) { return false; };
   d40d2:	2000      	movs	r0, #0
   d40d4:	4770      	bx	lr

000d40d6 <_ZN22CloudConfigStorageData13getDataHeaderEv>:
    CloudConfigStorageData &withData(CloudConfigDataHeader *header, size_t dataSize);

    /**
     * @brief Gets a pointer to the CloudConfigDataHeader structure
     */
    virtual CloudConfigDataHeader *getDataHeader() { return header; };
   d40d6:	6900      	ldr	r0, [r0, #16]
   d40d8:	4770      	bx	lr

000d40da <_ZN26CloudConfigStorageRetained4saveEv>:
    virtual void setup() { validate(); };

    /**
     * @brief Retained data doesn't require an explict save
     */
    virtual bool save() { return true; };
   d40da:	2001      	movs	r0, #1
   d40dc:	4770      	bx	lr
	...

000d40e0 <_Z11watchdogISRv>:
}


void watchdogISR()
{
  watchdogFlag = true;
   d40e0:	4b01      	ldr	r3, [pc, #4]	; (d40e8 <_Z11watchdogISRv+0x8>)
   d40e2:	2201      	movs	r2, #1
   d40e4:	701a      	strb	r2, [r3, #0]
}
   d40e6:	4770      	bx	lr
   d40e8:	2003e5c1 	.word	0x2003e5c1

000d40ec <_ZNSt17_Function_handlerIFvvEPS0_E9_M_invokeERKSt9_Any_data>:

     public:
      static void
      _M_invoke(const _Any_data& __functor, _ArgTypes&&... __args)
      {
	(*_Base::_M_get_pointer(__functor))(
   d40ec:	6803      	ldr	r3, [r0, #0]
   d40ee:	4718      	bx	r3

000d40f0 <_ZNSt14_Function_base13_Base_managerIPFvvEE10_M_managerERSt9_Any_dataRKS4_St18_Manager_operation>:
	  switch (__op)
   d40f0:	2a01      	cmp	r2, #1
   d40f2:	d003      	beq.n	d40fc <_ZNSt14_Function_base13_Base_managerIPFvvEE10_M_managerERSt9_Any_dataRKS4_St18_Manager_operation+0xc>
   d40f4:	2a02      	cmp	r2, #2
   d40f6:	d003      	beq.n	d4100 <_ZNSt14_Function_base13_Base_managerIPFvvEE10_M_managerERSt9_Any_dataRKS4_St18_Manager_operation+0x10>
	}
   d40f8:	2000      	movs	r0, #0
   d40fa:	4770      	bx	lr
	      __dest._M_access<_Functor*>() = _M_get_pointer(__source);
   d40fc:	6001      	str	r1, [r0, #0]
	      break;
   d40fe:	e7fb      	b.n	d40f8 <_ZNSt14_Function_base13_Base_managerIPFvvEE10_M_managerERSt9_Any_dataRKS4_St18_Manager_operation+0x8>
	  ::new (__dest._M_access()) _Functor(__source._M_access<_Functor>());
   d4100:	680b      	ldr	r3, [r1, #0]
   d4102:	6003      	str	r3, [r0, #0]
	}
   d4104:	e7f8      	b.n	d40f8 <_ZNSt14_Function_base13_Base_managerIPFvvEE10_M_managerERSt9_Any_dataRKS4_St18_Manager_operation+0x8>

000d4106 <_ZNSt14_Function_base13_Base_managerIZ5setupEUlvE_E10_M_managerERSt9_Any_dataRKS3_St18_Manager_operation>:
	  switch (__op)
   d4106:	2a01      	cmp	r2, #1
	      __dest._M_access<_Functor*>() = _M_get_pointer(__source);
   d4108:	bf08      	it	eq
   d410a:	6001      	streq	r1, [r0, #0]
	}
   d410c:	2000      	movs	r0, #0
   d410e:	4770      	bx	lr

000d4110 <_ZNSt17_Function_handlerIFvPKcEZ5setupEUlS1_E0_E9_M_invokeERKSt9_Any_dataOS1_>:
	    std::forward<_ArgTypes>(__args)...);
      }
   d4110:	4770      	bx	lr

000d4112 <_ZNSt14_Function_base13_Base_managerIZ5setupEUlPKcE0_E10_M_managerERSt9_Any_dataRKS5_St18_Manager_operation>:
	  switch (__op)
   d4112:	2a01      	cmp	r2, #1
	      __dest._M_access<_Functor*>() = _M_get_pointer(__source);
   d4114:	bf08      	it	eq
   d4116:	6001      	streq	r1, [r0, #0]
	}
   d4118:	2000      	movs	r0, #0
   d411a:	4770      	bx	lr

000d411c <_ZN26CloudConfigStorageRetained5setupEv>:
    virtual void setup() { validate(); };
   d411c:	f003 bbc8 	b.w	d78b0 <_ZN22CloudConfigStorageData8validateEv>

000d4120 <_Z10measureNow6String>:
  sysStatusWriteNeeded = true;
  return 1;
}

int measureNow(String command) // Function to force sending data in current hour
{
   d4120:	b508      	push	{r3, lr}
	operator StringIfHelperType() const { return buffer ? &String::StringIfHelper : 0; }
	int compareTo(const String &s) const;
	unsigned char equals(const String &s) const;
	unsigned char equals(const char *cstr) const;
	unsigned char operator == (const String &rhs) const {return equals(rhs);}
	unsigned char operator == (const char *cstr) const {return equals(cstr);}
   d4122:	4904      	ldr	r1, [pc, #16]	; (d4134 <_Z10measureNow6String+0x14>)
   d4124:	f005 fee2 	bl	d9eec <_ZNK6String6equalsEPKc>
  if (command == "1") {
   d4128:	b118      	cbz	r0, d4132 <_Z10measureNow6String+0x12>
    state = MEASURING_STATE;
   d412a:	4b03      	ldr	r3, [pc, #12]	; (d4138 <_Z10measureNow6String+0x18>)
   d412c:	2203      	movs	r2, #3
   d412e:	701a      	strb	r2, [r3, #0]
    return 1;
   d4130:	2001      	movs	r0, #1
  }
  else return 0;
}
   d4132:	bd08      	pop	{r3, pc}
   d4134:	000dd463 	.word	0x000dd463
   d4138:	2003e58d 	.word	0x2003e58d

000d413c <_Z12enableSensor6String>:

/* 
  EnableSensor (String Sensor)
  This function takes in the sensor number as integer and enables or disable the sensor accordingly.
*/
int enableSensor(String Sensor){
   d413c:	b510      	push	{r4, lr}
   d413e:	b0c2      	sub	sp, #264	; 0x108
  char * pEND;
  char data[256];
  int tempSensor = strtol(Sensor,&pEND,10);                                                  // Looks for the first integer and interprets it
   d4140:	6800      	ldr	r0, [r0, #0]
   d4142:	220a      	movs	r2, #10
   d4144:	a901      	add	r1, sp, #4
   d4146:	f008 f96f 	bl	dc428 <strtol>
  if ((tempSensor < 1) || (tempSensor >7) ) return 0;
   d414a:	1e43      	subs	r3, r0, #1
   d414c:	2b06      	cmp	r3, #6
  int tempSensor = strtol(Sensor,&pEND,10);                                                  // Looks for the first integer and interprets it
   d414e:	4604      	mov	r4, r0
  if ((tempSensor < 1) || (tempSensor >7) ) return 0;
   d4150:	d831      	bhi.n	d41b6 <_Z12enableSensor6String+0x7a>
 
  if (tempSensor == 1){
   d4152:	2801      	cmp	r0, #1
   d4154:	d10a      	bne.n	d416c <_Z12enableSensor6String+0x30>
    sysStatus.sensorOneConnected = true;
   d4156:	4b19      	ldr	r3, [pc, #100]	; (d41bc <_Z12enableSensor6String+0x80>)
    snprintf(data, sizeof(data), "Enabled Sensor One");
   d4158:	4919      	ldr	r1, [pc, #100]	; (d41c0 <_Z12enableSensor6String+0x84>)
    sysStatus.sensorOneConnected = true;
   d415a:	7718      	strb	r0, [r3, #28]
    sysStatusWriteNeeded = true;    
    return 1;   
  }
  else if (tempSensor == 6){
    sysStatus.sensorSixConnected = true;
    snprintf(data, sizeof(data), "Enabled Sensor Six");
   d415c:	a802      	add	r0, sp, #8
   d415e:	f007 fa65 	bl	db62c <strcpy>
    sysStatusWriteNeeded = true; 
   d4162:	4b18      	ldr	r3, [pc, #96]	; (d41c4 <_Z12enableSensor6String+0x88>)
   d4164:	701c      	strb	r4, [r3, #0]
    return 1;      
  }
  return 0;
}
   d4166:	4620      	mov	r0, r4
   d4168:	b042      	add	sp, #264	; 0x108
   d416a:	bd10      	pop	{r4, pc}
  } else if (tempSensor == 2){
   d416c:	2802      	cmp	r0, #2
   d416e:	d104      	bne.n	d417a <_Z12enableSensor6String+0x3e>
    sysStatus.sensorTwoConnected = true;
   d4170:	4b12      	ldr	r3, [pc, #72]	; (d41bc <_Z12enableSensor6String+0x80>)
    snprintf(data, sizeof(data), "Enabled Sensor Two");
   d4172:	4915      	ldr	r1, [pc, #84]	; (d41c8 <_Z12enableSensor6String+0x8c>)
    sysStatus.sensorTwoConnected = true;
   d4174:	2401      	movs	r4, #1
   d4176:	775c      	strb	r4, [r3, #29]
    snprintf(data, sizeof(data), "Enabled Sensor Two");
   d4178:	e7f0      	b.n	d415c <_Z12enableSensor6String+0x20>
  else if (tempSensor == 3){
   d417a:	2803      	cmp	r0, #3
   d417c:	d104      	bne.n	d4188 <_Z12enableSensor6String+0x4c>
    sysStatus.sensorThreeConnected = true;
   d417e:	4b0f      	ldr	r3, [pc, #60]	; (d41bc <_Z12enableSensor6String+0x80>)
    snprintf(data, sizeof(data), "Enabled Sensor Three");
   d4180:	4912      	ldr	r1, [pc, #72]	; (d41cc <_Z12enableSensor6String+0x90>)
    sysStatus.sensorThreeConnected = true;
   d4182:	2401      	movs	r4, #1
   d4184:	779c      	strb	r4, [r3, #30]
    snprintf(data, sizeof(data), "Enabled Sensor Three");
   d4186:	e7e9      	b.n	d415c <_Z12enableSensor6String+0x20>
  else if (tempSensor == 4){
   d4188:	2804      	cmp	r0, #4
   d418a:	d104      	bne.n	d4196 <_Z12enableSensor6String+0x5a>
    sysStatus.sensorFourConnected = true;
   d418c:	4b0b      	ldr	r3, [pc, #44]	; (d41bc <_Z12enableSensor6String+0x80>)
    snprintf(data, sizeof(data), "Enabled Sensor Four");
   d418e:	4910      	ldr	r1, [pc, #64]	; (d41d0 <_Z12enableSensor6String+0x94>)
    sysStatus.sensorFourConnected = true;
   d4190:	2401      	movs	r4, #1
   d4192:	77dc      	strb	r4, [r3, #31]
    snprintf(data, sizeof(data), "Enabled Sensor Four");
   d4194:	e7e2      	b.n	d415c <_Z12enableSensor6String+0x20>
  else if (tempSensor == 5){
   d4196:	2805      	cmp	r0, #5
   d4198:	d105      	bne.n	d41a6 <_Z12enableSensor6String+0x6a>
    sysStatus.sensorFiveConnected = true;
   d419a:	4b08      	ldr	r3, [pc, #32]	; (d41bc <_Z12enableSensor6String+0x80>)
    snprintf(data, sizeof(data), "Enabled Sensor Five");
   d419c:	490d      	ldr	r1, [pc, #52]	; (d41d4 <_Z12enableSensor6String+0x98>)
    sysStatus.sensorFiveConnected = true;
   d419e:	2401      	movs	r4, #1
   d41a0:	f883 4020 	strb.w	r4, [r3, #32]
    snprintf(data, sizeof(data), "Enabled Sensor Five");
   d41a4:	e7da      	b.n	d415c <_Z12enableSensor6String+0x20>
  else if (tempSensor == 6){
   d41a6:	2806      	cmp	r0, #6
   d41a8:	d105      	bne.n	d41b6 <_Z12enableSensor6String+0x7a>
    sysStatus.sensorSixConnected = true;
   d41aa:	4b04      	ldr	r3, [pc, #16]	; (d41bc <_Z12enableSensor6String+0x80>)
    snprintf(data, sizeof(data), "Enabled Sensor Six");
   d41ac:	490a      	ldr	r1, [pc, #40]	; (d41d8 <_Z12enableSensor6String+0x9c>)
    sysStatus.sensorSixConnected = true;
   d41ae:	2401      	movs	r4, #1
   d41b0:	f883 4021 	strb.w	r4, [r3, #33]	; 0x21
    snprintf(data, sizeof(data), "Enabled Sensor Six");
   d41b4:	e7d2      	b.n	d415c <_Z12enableSensor6String+0x20>
  if ((tempSensor < 1) || (tempSensor >7) ) return 0;
   d41b6:	2400      	movs	r4, #0
   d41b8:	e7d5      	b.n	d4166 <_Z12enableSensor6String+0x2a>
   d41ba:	bf00      	nop
   d41bc:	2003e590 	.word	0x2003e590
   d41c0:	000dd465 	.word	0x000dd465
   d41c4:	2003e5c0 	.word	0x2003e5c0
   d41c8:	000dd478 	.word	0x000dd478
   d41cc:	000dd48b 	.word	0x000dd48b
   d41d0:	000dd4a0 	.word	0x000dd4a0
   d41d4:	000dd4b4 	.word	0x000dd4b4
   d41d8:	000dd4c8 	.word	0x000dd4c8

000d41dc <_ZN5Timer7timeoutEv>:
     * Subclasses can either provide a callback function, or override
     * this timeout method.
     */
    virtual void timeout()
    {
        if (callback) {
   d41dc:	6943      	ldr	r3, [r0, #20]
   d41de:	b113      	cbz	r3, d41e6 <_ZN5Timer7timeoutEv+0xa>
    function<_Res(_ArgTypes...)>::
    operator()(_ArgTypes... __args) const
    {
      if (_M_empty())
	__throw_bad_function_call();
      return _M_invoker(_M_functor, std::forward<_ArgTypes>(__args)...);
   d41e0:	6983      	ldr	r3, [r0, #24]
   d41e2:	300c      	adds	r0, #12
   d41e4:	4718      	bx	r3
            callback();
        }
    }
   d41e6:	4770      	bx	lr

000d41e8 <_ZN17PublishQueueAsyncD1Ev>:
	PublishQueueAsync(uint8_t *retainedBuffer, uint16_t retainedBufferSize) : PublishQueueAsyncRetained(retainedBuffer, retainedBufferSize) {};

	/**
	 * @brief You normally allocate this as a global object and never delete it
	 */
	virtual ~PublishQueueAsync() {};
   d41e8:	b510      	push	{r4, lr}
   d41ea:	4b03      	ldr	r3, [pc, #12]	; (d41f8 <_ZN17PublishQueueAsyncD1Ev+0x10>)
   d41ec:	6003      	str	r3, [r0, #0]
   d41ee:	4604      	mov	r4, r0
   d41f0:	f003 f84c 	bl	d728c <_ZN25PublishQueueAsyncRetainedD1Ev>
   d41f4:	4620      	mov	r0, r4
   d41f6:	bd10      	pop	{r4, pc}
   d41f8:	000dde00 	.word	0x000dde00

000d41fc <_ZN17PublishQueueAsyncD0Ev>:
   d41fc:	b510      	push	{r4, lr}
   d41fe:	4604      	mov	r4, r0
   d4200:	f7ff fff2 	bl	d41e8 <_ZN17PublishQueueAsyncD1Ev>
   d4204:	4620      	mov	r0, r4
   d4206:	2138      	movs	r1, #56	; 0x38
   d4208:	f006 fb3d 	bl	da886 <_ZdlPvj>
   d420c:	4620      	mov	r0, r4
   d420e:	bd10      	pop	{r4, pc}

000d4210 <_ZN8MB85RC64D1Ev>:
	size_t memorySize;
	int addr; // This is just 0-7, the (0b1010000 of the 7-bit address is ORed in later)

};

class MB85RC64 : public MB85RC {
   d4210:	b510      	push	{r4, lr}
   d4212:	4b03      	ldr	r3, [pc, #12]	; (d4220 <_ZN8MB85RC64D1Ev+0x10>)
   d4214:	6003      	str	r3, [r0, #0]
   d4216:	4604      	mov	r4, r0
   d4218:	f002 fa68 	bl	d66ec <_ZN6MB85RCD1Ev>
   d421c:	4620      	mov	r0, r4
   d421e:	bd10      	pop	{r4, pc}
   d4220:	000dde28 	.word	0x000dde28

000d4224 <_ZN8MB85RC64D0Ev>:
   d4224:	b510      	push	{r4, lr}
   d4226:	4604      	mov	r4, r0
   d4228:	f7ff fff2 	bl	d4210 <_ZN8MB85RC64D1Ev>
   d422c:	4620      	mov	r0, r4
   d422e:	2110      	movs	r1, #16
   d4230:	f006 fb29 	bl	da886 <_ZdlPvj>
   d4234:	4620      	mov	r0, r4
   d4236:	bd10      	pop	{r4, pc}

000d4238 <_ZN5Timer12invoke_timerEPv>:
private:
	volatile bool running;
    os_timer_t handle;
    timer_callback_fn callback;

    static void invoke_timer(os_timer_t timer)
   d4238:	b513      	push	{r0, r1, r4, lr}
typedef std::function<os_thread_return_t(void)> wiring_thread_fn_t;

class SingleThreadedSection {
public:
    SingleThreadedSection() {
        os_thread_scheduling(false, NULL);
   d423a:	2100      	movs	r1, #0
   d423c:	4604      	mov	r4, r0
   d423e:	4608      	mov	r0, r1
   d4240:	f004 f8c8 	bl	d83d4 <os_thread_scheduling>
    {
        Timer* t = nullptr;
        SINGLE_THREADED_BLOCK() {
            void* id = nullptr;
   d4244:	2300      	movs	r3, #0
            os_timer_get_id(timer, &id);
   d4246:	4620      	mov	r0, r4
   d4248:	a901      	add	r1, sp, #4
            void* id = nullptr;
   d424a:	9301      	str	r3, [sp, #4]
            os_timer_get_id(timer, &id);
   d424c:	f004 f8da 	bl	d8404 <os_timer_get_id>
            t = static_cast<Timer*>(id);
   d4250:	9c01      	ldr	r4, [sp, #4]
            if (t) {
   d4252:	b10c      	cbz	r4, d4258 <_ZN5Timer12invoke_timerEPv+0x20>
                t->running = true;
   d4254:	2301      	movs	r3, #1
   d4256:	7123      	strb	r3, [r4, #4]
    }

    ~SingleThreadedSection() {
        os_thread_scheduling(true, NULL);
   d4258:	2100      	movs	r1, #0
   d425a:	2001      	movs	r0, #1
   d425c:	f004 f8ba 	bl	d83d4 <os_thread_scheduling>
            }
        }
        if (t) {
   d4260:	b12c      	cbz	r4, d426e <_ZN5Timer12invoke_timerEPv+0x36>
            t->timeout();
   d4262:	6823      	ldr	r3, [r4, #0]
   d4264:	4620      	mov	r0, r4
   d4266:	689b      	ldr	r3, [r3, #8]
   d4268:	4798      	blx	r3
            t->running = false;
   d426a:	2300      	movs	r3, #0
   d426c:	7123      	strb	r3, [r4, #4]
        }
    }
   d426e:	b002      	add	sp, #8
   d4270:	bd10      	pop	{r4, pc}
	...

000d4274 <_Z14UbidotsHandlerPKcS0_>:
void UbidotsHandler(const char *event, const char *data) {            // Looks at the response from Ubidots - Will reset Photon if no successful response
   d4274:	b510      	push	{r4, lr}
  if (!strlen(data)) {                                                // No data in response - Error
   d4276:	780b      	ldrb	r3, [r1, #0]
void UbidotsHandler(const char *event, const char *data) {            // Looks at the response from Ubidots - Will reset Photon if no successful response
   d4278:	b090      	sub	sp, #64	; 0x40
   d427a:	460c      	mov	r4, r1
  if (!strlen(data)) {                                                // No data in response - Error
   d427c:	b92b      	cbnz	r3, d428a <_Z14UbidotsHandlerPKcS0_+0x16>
    snprintf(responseString, sizeof(responseString),"No Data");
   d427e:	4918      	ldr	r1, [pc, #96]	; (d42e0 <_Z14UbidotsHandlerPKcS0_+0x6c>)
   d4280:	4668      	mov	r0, sp
   d4282:	f007 f9d3 	bl	db62c <strcpy>
}
   d4286:	b010      	add	sp, #64	; 0x40
   d4288:	bd10      	pop	{r4, pc}
  else if (atoi(data) == 200 || atoi(data) == 201) {
   d428a:	4608      	mov	r0, r1
   d428c:	f007 f94b 	bl	db526 <atoi>
   d4290:	28c8      	cmp	r0, #200	; 0xc8
   d4292:	d10e      	bne.n	d42b2 <_Z14UbidotsHandlerPKcS0_+0x3e>
    snprintf(responseString, sizeof(responseString),"Response Received");
   d4294:	4913      	ldr	r1, [pc, #76]	; (d42e4 <_Z14UbidotsHandlerPKcS0_+0x70>)
   d4296:	4668      	mov	r0, sp
   d4298:	f007 f9c8 	bl	db62c <strcpy>
    sysStatus.lastHookResponse = Time.now();                          // Record the last successful Webhook Response
   d429c:	f005 fffd 	bl	da29a <_ZN9TimeClass3nowEv>
   d42a0:	4b11      	ldr	r3, [pc, #68]	; (d42e8 <_Z14UbidotsHandlerPKcS0_+0x74>)
   d42a2:	6198      	str	r0, [r3, #24]
    sysStatusWriteNeeded = true;
   d42a4:	4b11      	ldr	r3, [pc, #68]	; (d42ec <_Z14UbidotsHandlerPKcS0_+0x78>)
   d42a6:	2201      	movs	r2, #1
   d42a8:	701a      	strb	r2, [r3, #0]
    dataInFlight = false;                                             // Data has been received
   d42aa:	4b11      	ldr	r3, [pc, #68]	; (d42f0 <_Z14UbidotsHandlerPKcS0_+0x7c>)
   d42ac:	2200      	movs	r2, #0
   d42ae:	701a      	strb	r2, [r3, #0]
   d42b0:	e7e9      	b.n	d4286 <_Z14UbidotsHandlerPKcS0_+0x12>
  else if (atoi(data) == 200 || atoi(data) == 201) {
   d42b2:	4620      	mov	r0, r4
   d42b4:	f007 f937 	bl	db526 <atoi>
   d42b8:	28c9      	cmp	r0, #201	; 0xc9
   d42ba:	d0eb      	beq.n	d4294 <_Z14UbidotsHandlerPKcS0_+0x20>
  else if((atoi(data)) < 10000){
   d42bc:	4620      	mov	r0, r4
   d42be:	f007 f932 	bl	db526 <atoi>
   d42c2:	f242 730f 	movw	r3, #9999	; 0x270f
   d42c6:	4298      	cmp	r0, r3
   d42c8:	dcdd      	bgt.n	d4286 <_Z14UbidotsHandlerPKcS0_+0x12>
    snprintf(responseString, sizeof(responseString), "Unknown response recevied %i",atoi(data));
   d42ca:	4620      	mov	r0, r4
   d42cc:	f007 f92b 	bl	db526 <atoi>
   d42d0:	4a08      	ldr	r2, [pc, #32]	; (d42f4 <_Z14UbidotsHandlerPKcS0_+0x80>)
   d42d2:	4603      	mov	r3, r0
   d42d4:	2140      	movs	r1, #64	; 0x40
   d42d6:	4668      	mov	r0, sp
   d42d8:	f004 fbc2 	bl	d8a60 <snprintf>
}
   d42dc:	e7d3      	b.n	d4286 <_Z14UbidotsHandlerPKcS0_+0x12>
   d42de:	bf00      	nop
   d42e0:	000dd4db 	.word	0x000dd4db
   d42e4:	000dd4e3 	.word	0x000dd4e3
   d42e8:	2003e590 	.word	0x2003e590
   d42ec:	2003e5c0 	.word	0x2003e5c0
   d42f0:	2003df4f 	.word	0x2003df4f
   d42f4:	000dd4f5 	.word	0x000dd4f5

000d42f8 <_ZN11SystemClassD1Ev>:
    system_error_t error_;
    SleepResult compatResult_;
};


class SystemClass {
   d42f8:	b510      	push	{r4, lr}
   d42fa:	4604      	mov	r4, r0
        if (wakeupSource_) {
   d42fc:	6800      	ldr	r0, [r0, #0]
   d42fe:	b108      	cbz	r0, d4304 <_ZN11SystemClassD1Ev+0xc>
            free(wakeupSource_);
   d4300:	f004 fb96 	bl	d8a30 <free>
class SystemClass {
   d4304:	4620      	mov	r0, r4
   d4306:	bd10      	pop	{r4, pc}

000d4308 <_ZN10CloudClass9_variableI17CloudVariableTypeIPKcvEEEbS3_NT_11PointerTypeERKS5_.isra.0>:
        return _variable(varKey, (const char*)userVar, userVarType);
    }

    template<typename T> static inline bool _variable(const char *varKey, typename T::PointerType userVar, const T& userVarType)
    {
        return spark_variable(varKey, (const void*)userVar, T::TYPE_ID, NULL);
   d4308:	2300      	movs	r3, #0
   d430a:	2204      	movs	r2, #4
   d430c:	f004 bac0 	b.w	d8890 <spark_variable>

000d4310 <_ZNSt14_Function_baseD1Ev>:
    ~_Function_base()
   d4310:	b510      	push	{r4, lr}
      if (_M_manager)
   d4312:	6883      	ldr	r3, [r0, #8]
    ~_Function_base()
   d4314:	4604      	mov	r4, r0
      if (_M_manager)
   d4316:	b113      	cbz	r3, d431e <_ZNSt14_Function_baseD1Ev+0xe>
	_M_manager(_M_functor, _M_functor, __destroy_functor);
   d4318:	2203      	movs	r2, #3
   d431a:	4601      	mov	r1, r0
   d431c:	4798      	blx	r3
    }
   d431e:	4620      	mov	r0, r4
   d4320:	bd10      	pop	{r4, pc}
	...

000d4324 <_ZN5TimerD1Ev>:
    virtual ~Timer() {
   d4324:	b537      	push	{r0, r1, r2, r4, r5, lr}
   d4326:	4b13      	ldr	r3, [pc, #76]	; (d4374 <_ZN5TimerD1Ev+0x50>)
   d4328:	6003      	str	r3, [r0, #0]
   d432a:	4604      	mov	r4, r0
        if (handle) {
   d432c:	6880      	ldr	r0, [r0, #8]
   d432e:	b1c8      	cbz	r0, d4364 <_ZN5TimerD1Ev+0x40>
        return handle ? !os_timer_change(handle, OS_TIMER_CHANGE_STOP, fromISR, 0, block, nullptr) : false;
   d4330:	2500      	movs	r5, #0
   d4332:	f06f 4300 	mvn.w	r3, #2147483648	; 0x80000000
   d4336:	e9cd 3500 	strd	r3, r5, [sp]
   d433a:	2102      	movs	r1, #2
   d433c:	462b      	mov	r3, r5
   d433e:	462a      	mov	r2, r5
   d4340:	f004 f868 	bl	d8414 <os_timer_change>
            os_timer_set_id(handle, nullptr);
   d4344:	68a0      	ldr	r0, [r4, #8]
   d4346:	4629      	mov	r1, r5
   d4348:	f004 f89c 	bl	d8484 <os_timer_set_id>
            while (running) {
   d434c:	7923      	ldrb	r3, [r4, #4]
   d434e:	f003 05ff 	and.w	r5, r3, #255	; 0xff
   d4352:	b113      	cbz	r3, d435a <_ZN5TimerD1Ev+0x36>
                os_thread_yield();
   d4354:	f004 f836 	bl	d83c4 <os_thread_yield>
            while (running) {
   d4358:	e7f8      	b.n	d434c <_ZN5TimerD1Ev+0x28>
            os_timer_destroy(handle, nullptr);
   d435a:	68a0      	ldr	r0, [r4, #8]
   d435c:	4629      	mov	r1, r5
   d435e:	f004 f849 	bl	d83f4 <os_timer_destroy>
            handle = nullptr;
   d4362:	60a5      	str	r5, [r4, #8]
    class function<_Res(_ArgTypes...)>
   d4364:	f104 000c 	add.w	r0, r4, #12
   d4368:	f7ff ffd2 	bl	d4310 <_ZNSt14_Function_baseD1Ev>
    }
   d436c:	4620      	mov	r0, r4
   d436e:	b003      	add	sp, #12
   d4370:	bd30      	pop	{r4, r5, pc}
   d4372:	bf00      	nop
   d4374:	000dddec 	.word	0x000dddec

000d4378 <_ZN5TimerD0Ev>:
    virtual ~Timer() {
   d4378:	b510      	push	{r4, lr}
   d437a:	4604      	mov	r4, r0
    }
   d437c:	f7ff ffd2 	bl	d4324 <_ZN5TimerD1Ev>
   d4380:	4620      	mov	r0, r4
   d4382:	211c      	movs	r1, #28
   d4384:	f006 fa7f 	bl	da886 <_ZdlPvj>
   d4388:	4620      	mov	r0, r4
   d438a:	bd10      	pop	{r4, pc}

000d438c <_ZN10CloudClass9_functionEPKcPFi6StringE>:
            "\n\nIn Particle.function, name must be " __XSTRING(USER_FUNC_KEY_LENGTH) " characters or less\n\n");

        return _function(name, args...);
    }

    static bool _function(const char *funcKey, user_function_int_str_t* func)
   d438c:	4602      	mov	r2, r0
    {
        return register_function(call_raw_user_function, (void*)func, funcKey);
   d438e:	4801      	ldr	r0, [pc, #4]	; (d4394 <_ZN10CloudClass9_functionEPKcPFi6StringE+0x8>)
   d4390:	f004 bc9f 	b.w	d8cd2 <_ZN10CloudClass17register_functionEPFiPvPKcS0_ES0_S2_>
   d4394:	000d8c8b 	.word	0x000d8c8b

000d4398 <_ZN10CloudClass9keepAliveEj>:
    		spark_process();
    }
    static String deviceID(void) { return SystemClass::deviceID(); }

#if HAL_PLATFORM_CLOUD_UDP
    inline static void keepAlive(unsigned sec)
   d4398:	b507      	push	{r0, r1, r2, lr}
    {
        particle::protocol::connection_properties_t conn_prop = {0};
        conn_prop.size = sizeof(conn_prop);
   d439a:	2208      	movs	r2, #8
        particle::protocol::connection_properties_t conn_prop = {0};
   d439c:	2300      	movs	r3, #0
        conn_prop.size = sizeof(conn_prop);
   d439e:	f8ad 2000 	strh.w	r2, [sp]
        conn_prop.keepalive_source = particle::protocol::KeepAliveSource::USER;
        spark_set_connection_property(SPARK_CLOUD_PING_INTERVAL, sec * 1000, &conn_prop, nullptr);
   d43a2:	f44f 717a 	mov.w	r1, #1000	; 0x3e8
        conn_prop.keepalive_source = particle::protocol::KeepAliveSource::USER;
   d43a6:	2201      	movs	r2, #1
   d43a8:	9201      	str	r2, [sp, #4]
        spark_set_connection_property(SPARK_CLOUD_PING_INTERVAL, sec * 1000, &conn_prop, nullptr);
   d43aa:	4341      	muls	r1, r0
   d43ac:	466a      	mov	r2, sp
   d43ae:	4618      	mov	r0, r3
        particle::protocol::connection_properties_t conn_prop = {0};
   d43b0:	f8ad 3002 	strh.w	r3, [sp, #2]
        spark_set_connection_property(SPARK_CLOUD_PING_INTERVAL, sec * 1000, &conn_prop, nullptr);
   d43b4:	f004 fac4 	bl	d8940 <spark_set_connection_property>
    }
   d43b8:	b003      	add	sp, #12
   d43ba:	f85d fb04 	ldr.w	pc, [sp], #4

000d43be <_ZN5Timer12changePeriodEjj>:
    bool changePeriod(unsigned period, unsigned block=default_wait) { return _changePeriod(period, block, false); }
   d43be:	b507      	push	{r0, r1, r2, lr}
         return handle ? !os_timer_change(handle, OS_TIMER_CHANGE_PERIOD, fromISR, period, block, nullptr) : false;
   d43c0:	6880      	ldr	r0, [r0, #8]
    bool changePeriod(unsigned period, unsigned block=default_wait) { return _changePeriod(period, block, false); }
   d43c2:	460b      	mov	r3, r1
         return handle ? !os_timer_change(handle, OS_TIMER_CHANGE_PERIOD, fromISR, period, block, nullptr) : false;
   d43c4:	2100      	movs	r1, #0
   d43c6:	b140      	cbz	r0, d43da <_ZN5Timer12changePeriodEjj+0x1c>
   d43c8:	e9cd 2100 	strd	r2, r1, [sp]
   d43cc:	460a      	mov	r2, r1
   d43ce:	2103      	movs	r1, #3
   d43d0:	f004 f820 	bl	d8414 <os_timer_change>
   d43d4:	fab0 f080 	clz	r0, r0
   d43d8:	0940      	lsrs	r0, r0, #5
    bool changePeriod(unsigned period, unsigned block=default_wait) { return _changePeriod(period, block, false); }
   d43da:	b003      	add	sp, #12
   d43dc:	f85d fb04 	ldr.w	pc, [sp], #4

000d43e0 <_ZN5spark10JSONWriter4nameEPKc>:
// spark::JSONWriter
inline spark::JSONWriter::JSONWriter() :
        state_(BEGIN) {
}

inline spark::JSONWriter& spark::JSONWriter::name(const char *name) {
   d43e0:	b513      	push	{r0, r1, r4, lr}
   d43e2:	4604      	mov	r4, r0
    return this->name(name, strlen(name));
   d43e4:	4608      	mov	r0, r1
   d43e6:	9101      	str	r1, [sp, #4]
   d43e8:	f007 f945 	bl	db676 <strlen>
   d43ec:	9901      	ldr	r1, [sp, #4]
   d43ee:	4602      	mov	r2, r0
   d43f0:	4620      	mov	r0, r4
}
   d43f2:	b002      	add	sp, #8
   d43f4:	e8bd 4010 	ldmia.w	sp!, {r4, lr}
    return this->name(name, strlen(name));
   d43f8:	f005 bafe 	b.w	d99f8 <_ZN5spark10JSONWriter4nameEPKcj>

000d43fc <_ZN5spark10JSONWriter5valueEPKc>:

inline spark::JSONWriter& spark::JSONWriter::name(const String &name) {
    return this->name(name.c_str(), name.length());
}

inline spark::JSONWriter& spark::JSONWriter::value(const char *val) {
   d43fc:	b513      	push	{r0, r1, r4, lr}
   d43fe:	4604      	mov	r4, r0
    return value(val, strlen(val));
   d4400:	4608      	mov	r0, r1
   d4402:	9101      	str	r1, [sp, #4]
   d4404:	f007 f937 	bl	db676 <strlen>
   d4408:	9901      	ldr	r1, [sp, #4]
   d440a:	4602      	mov	r2, r0
   d440c:	4620      	mov	r0, r4
}
   d440e:	b002      	add	sp, #8
   d4410:	e8bd 4010 	ldmia.w	sp!, {r4, lr}
    return value(val, strlen(val));
   d4414:	f005 bb00 	b.w	d9a18 <_ZN5spark10JSONWriter5valueEPKcj>

000d4418 <_ZNK5spark6Logger4infoEPKcz>:
    va_start(args, fmt);
    log(LOG_LEVEL_TRACE, fmt, args);
    va_end(args);
}

inline void spark::Logger::info(const char *fmt, ...) const {
   d4418:	b40e      	push	{r1, r2, r3}
   d441a:	b510      	push	{r4, lr}
   d441c:	b08d      	sub	sp, #52	; 0x34
   d441e:	aa0f      	add	r2, sp, #60	; 0x3c
    va_list args;
    va_start(args, fmt);
    log(LOG_LEVEL_INFO, fmt, args);
   d4420:	6801      	ldr	r1, [r0, #0]
inline void spark::Logger::info(const char *fmt, ...) const {
   d4422:	f852 4b04 	ldr.w	r4, [r2], #4
    va_start(args, fmt);
   d4426:	9203      	str	r2, [sp, #12]
}

inline void spark::Logger::log(LogLevel level, const char *fmt, va_list args) const {
    LogAttributes attr;
    attr.size = sizeof(LogAttributes);
    attr.flags = 0;
   d4428:	2300      	movs	r3, #0
   d442a:	2020      	movs	r0, #32
   d442c:	e9cd 0304 	strd	r0, r3, [sp, #16]
    log_message_v(level, name_, &attr, nullptr, fmt, args);
   d4430:	e9cd 4200 	strd	r4, r2, [sp]
   d4434:	201e      	movs	r0, #30
   d4436:	aa04      	add	r2, sp, #16
   d4438:	f004 f9c4 	bl	d87c4 <log_message_v>
}
   d443c:	b00d      	add	sp, #52	; 0x34
   d443e:	e8bd 4010 	ldmia.w	sp!, {r4, lr}
   d4442:	b003      	add	sp, #12
   d4444:	4770      	bx	lr

000d4446 <_ZN21PublishQueueAsyncBase7publishEPKcS1_N8particle5FlagsI15PublishFlagTypehEES5_>:
	inline  bool publish(const char *eventName, const char *data, PublishFlags flags1, PublishFlags flags2 = PublishFlags()) {
   d4446:	b537      	push	{r0, r1, r2, r4, r5, lr}
		return publishCommon(eventName, data, 60, flags1, flags2);
   d4448:	6804      	ldr	r4, [r0, #0]
	inline  bool publish(const char *eventName, const char *data, PublishFlags flags1, PublishFlags flags2 = PublishFlags()) {
   d444a:	f89d 5018 	ldrb.w	r5, [sp, #24]
		return publishCommon(eventName, data, 60, flags1, flags2);
   d444e:	f88d 3000 	strb.w	r3, [sp]
   d4452:	f88d 5004 	strb.w	r5, [sp, #4]
   d4456:	68e4      	ldr	r4, [r4, #12]
   d4458:	233c      	movs	r3, #60	; 0x3c
   d445a:	47a0      	blx	r4
	}
   d445c:	b003      	add	sp, #12
   d445e:	bd30      	pop	{r4, r5, pc}

000d4460 <_Z16setThirdPartySim6String>:
{
   d4460:	b537      	push	{r0, r1, r2, r4, r5, lr}
   d4462:	491c      	ldr	r1, [pc, #112]	; (d44d4 <_Z16setThirdPartySim6String+0x74>)
   d4464:	4605      	mov	r5, r0
   d4466:	f005 fd41 	bl	d9eec <_ZNK6String6equalsEPKc>
  if (command == "1")
   d446a:	4604      	mov	r4, r0
   d446c:	b300      	cbz	r0, d44b0 <_Z16setThirdPartySim6String+0x50>
    sysStatus.thirdPartySim = true;
   d446e:	4c1a      	ldr	r4, [pc, #104]	; (d44d8 <_Z16setThirdPartySim6String+0x78>)
   d4470:	2301      	movs	r3, #1
    Particle.keepAlive(sysStatus.keepAlive);                                                // Set the keep alive value
   d4472:	6860      	ldr	r0, [r4, #4]
    sysStatus.thirdPartySim = true;
   d4474:	7063      	strb	r3, [r4, #1]
    Particle.keepAlive(sysStatus.keepAlive);                                                // Set the keep alive value
   d4476:	f7ff ff8f 	bl	d4398 <_ZN10CloudClass9keepAliveEj>
    keepAliveTimer.changePeriod(sysStatus.keepAlive*1000);                                  // Will start the repeating timer
   d447a:	6863      	ldr	r3, [r4, #4]
   d447c:	4817      	ldr	r0, [pc, #92]	; (d44dc <_Z16setThirdPartySim6String+0x7c>)
   d447e:	f44f 717a 	mov.w	r1, #1000	; 0x3e8
   d4482:	f06f 4200 	mvn.w	r2, #2147483648	; 0x80000000
   d4486:	4359      	muls	r1, r3
   d4488:	f7ff ff99 	bl	d43be <_ZN5Timer12changePeriodEjj>
    static bool connected(void) { return spark_cloud_flag_connected(); }
   d448c:	f004 fa20 	bl	d88d0 <spark_cloud_flag_connected>
    if (Particle.connected()) publishQueue.publish("Mode","Set to 3rd Party Sim", PRIVATE);
   d4490:	b148      	cbz	r0, d44a6 <_Z16setThirdPartySim6String+0x46>
}

// particle::Flags<TagT, ValueT>
template<typename TagT, typename ValueT>
inline particle::Flags<TagT, ValueT>::Flags() :
        val_(0) {
   d4492:	2300      	movs	r3, #0
   d4494:	f88d 3000 	strb.w	r3, [sp]
   d4498:	4b11      	ldr	r3, [pc, #68]	; (d44e0 <_Z16setThirdPartySim6String+0x80>)
   d449a:	4a12      	ldr	r2, [pc, #72]	; (d44e4 <_Z16setThirdPartySim6String+0x84>)
   d449c:	781b      	ldrb	r3, [r3, #0]
   d449e:	4912      	ldr	r1, [pc, #72]	; (d44e8 <_Z16setThirdPartySim6String+0x88>)
   d44a0:	4812      	ldr	r0, [pc, #72]	; (d44ec <_Z16setThirdPartySim6String+0x8c>)
   d44a2:	f7ff ffd0 	bl	d4446 <_ZN21PublishQueueAsyncBase7publishEPKcS1_N8particle5FlagsI15PublishFlagTypehEES5_>
    sysStatusWriteNeeded = true;
   d44a6:	4b12      	ldr	r3, [pc, #72]	; (d44f0 <_Z16setThirdPartySim6String+0x90>)
   d44a8:	2001      	movs	r0, #1
   d44aa:	7018      	strb	r0, [r3, #0]
}
   d44ac:	b003      	add	sp, #12
   d44ae:	bd30      	pop	{r4, r5, pc}
   d44b0:	4910      	ldr	r1, [pc, #64]	; (d44f4 <_Z16setThirdPartySim6String+0x94>)
   d44b2:	4628      	mov	r0, r5
   d44b4:	f005 fd1a 	bl	d9eec <_ZNK6String6equalsEPKc>
  else if (command == "0")
   d44b8:	2800      	cmp	r0, #0
   d44ba:	d0f7      	beq.n	d44ac <_Z16setThirdPartySim6String+0x4c>
    sysStatus.thirdPartySim = false;
   d44bc:	4b06      	ldr	r3, [pc, #24]	; (d44d8 <_Z16setThirdPartySim6String+0x78>)
   d44be:	705c      	strb	r4, [r3, #1]
   d44c0:	f004 fa06 	bl	d88d0 <spark_cloud_flag_connected>
    if (Particle.connected()) publishQueue.publish("Mode","Set to Particle Sim", PRIVATE);
   d44c4:	2800      	cmp	r0, #0
   d44c6:	d0ee      	beq.n	d44a6 <_Z16setThirdPartySim6String+0x46>
   d44c8:	4b05      	ldr	r3, [pc, #20]	; (d44e0 <_Z16setThirdPartySim6String+0x80>)
   d44ca:	f88d 4000 	strb.w	r4, [sp]
   d44ce:	781b      	ldrb	r3, [r3, #0]
   d44d0:	4a09      	ldr	r2, [pc, #36]	; (d44f8 <_Z16setThirdPartySim6String+0x98>)
   d44d2:	e7e4      	b.n	d449e <_Z16setThirdPartySim6String+0x3e>
   d44d4:	000dd463 	.word	0x000dd463
   d44d8:	2003e590 	.word	0x2003e590
   d44dc:	2003e3b0 	.word	0x2003e3b0
   d44e0:	2003df2d 	.word	0x2003df2d
   d44e4:	000dd512 	.word	0x000dd512
   d44e8:	000dd5a2 	.word	0x000dd5a2
   d44ec:	2003e3d0 	.word	0x2003e3d0
   d44f0:	2003e5c0 	.word	0x2003e5c0
   d44f4:	000de3da 	.word	0x000de3da
   d44f8:	000dd527 	.word	0x000dd527

000d44fc <_Z12setKeepAlive6String>:
{
   d44fc:	b510      	push	{r4, lr}
   d44fe:	b0c4      	sub	sp, #272	; 0x110
  int tempTime = strtol(command,&pEND,10);                                                  // Looks for the first integer and interprets it
   d4500:	6800      	ldr	r0, [r0, #0]
   d4502:	220a      	movs	r2, #10
   d4504:	a903      	add	r1, sp, #12
   d4506:	f007 ff8f 	bl	dc428 <strtol>
  if ((tempTime < 0) || (tempTime > 1200)) return 0;                                        // Make sure it falls in a valid range or send a "fail" result
   d450a:	f5b0 6f96 	cmp.w	r0, #1200	; 0x4b0
   d450e:	d822      	bhi.n	d4556 <_Z12setKeepAlive6String+0x5a>
  sysStatus.keepAlive = tempTime;
   d4510:	4c12      	ldr	r4, [pc, #72]	; (d455c <_Z12setKeepAlive6String+0x60>)
   d4512:	6060      	str	r0, [r4, #4]
  Particle.keepAlive(sysStatus.keepAlive);                                                // Set the keep alive value
   d4514:	f7ff ff40 	bl	d4398 <_ZN10CloudClass9keepAliveEj>
  keepAliveTimer.changePeriod(sysStatus.keepAlive*1000);                                  // Will start the repeating timer
   d4518:	6863      	ldr	r3, [r4, #4]
   d451a:	4811      	ldr	r0, [pc, #68]	; (d4560 <_Z12setKeepAlive6String+0x64>)
   d451c:	f44f 717a 	mov.w	r1, #1000	; 0x3e8
   d4520:	4359      	muls	r1, r3
   d4522:	f06f 4200 	mvn.w	r2, #2147483648	; 0x80000000
   d4526:	f7ff ff4a 	bl	d43be <_ZN5Timer12changePeriodEjj>
  snprintf(data, sizeof(data), "Keep Alive set to %i sec",sysStatus.keepAlive);
   d452a:	6863      	ldr	r3, [r4, #4]
   d452c:	4a0d      	ldr	r2, [pc, #52]	; (d4564 <_Z12setKeepAlive6String+0x68>)
   d452e:	f44f 7180 	mov.w	r1, #256	; 0x100
   d4532:	a804      	add	r0, sp, #16
   d4534:	f004 fa94 	bl	d8a60 <snprintf>
   d4538:	2300      	movs	r3, #0
  publishQueue.publish("Keep Alive",data, PRIVATE);
   d453a:	f88d 3000 	strb.w	r3, [sp]
   d453e:	4b0a      	ldr	r3, [pc, #40]	; (d4568 <_Z12setKeepAlive6String+0x6c>)
   d4540:	490a      	ldr	r1, [pc, #40]	; (d456c <_Z12setKeepAlive6String+0x70>)
   d4542:	781b      	ldrb	r3, [r3, #0]
   d4544:	480a      	ldr	r0, [pc, #40]	; (d4570 <_Z12setKeepAlive6String+0x74>)
   d4546:	aa04      	add	r2, sp, #16
   d4548:	f7ff ff7d 	bl	d4446 <_ZN21PublishQueueAsyncBase7publishEPKcS1_N8particle5FlagsI15PublishFlagTypehEES5_>
  sysStatusWriteNeeded = true;                                                           // Need to store to FRAM back in the main loop
   d454c:	4b09      	ldr	r3, [pc, #36]	; (d4574 <_Z12setKeepAlive6String+0x78>)
   d454e:	2001      	movs	r0, #1
   d4550:	7018      	strb	r0, [r3, #0]
}
   d4552:	b044      	add	sp, #272	; 0x110
   d4554:	bd10      	pop	{r4, pc}
  if ((tempTime < 0) || (tempTime > 1200)) return 0;                                        // Make sure it falls in a valid range or send a "fail" result
   d4556:	2000      	movs	r0, #0
   d4558:	e7fb      	b.n	d4552 <_Z12setKeepAlive6String+0x56>
   d455a:	bf00      	nop
   d455c:	2003e590 	.word	0x2003e590
   d4560:	2003e3b0 	.word	0x2003e3b0
   d4564:	000dd53b 	.word	0x000dd53b
   d4568:	2003df2d 	.word	0x2003df2d
   d456c:	000dd554 	.word	0x000dd554
   d4570:	2003e3d0 	.word	0x2003e3d0
   d4574:	2003e5c0 	.word	0x2003e5c0

000d4578 <_Z20setReportingDuration6String>:
int setReportingDuration(String command){
   d4578:	b500      	push	{lr}
   d457a:	b089      	sub	sp, #36	; 0x24
   d457c:	9003      	str	r0, [sp, #12]
  sysStatus.reportingBoundary = command.toFloat();
   d457e:	f005 fcc7 	bl	d9f10 <_ZNK6String7toFloatEv>
   d4582:	4b0e      	ldr	r3, [pc, #56]	; (d45bc <_Z20setReportingDuration6String+0x44>)
  publishQueue.publish("Reporting Time Set to %s Minutes.",String(command),PRIVATE);
   d4584:	9903      	ldr	r1, [sp, #12]
  sysStatus.reportingBoundary = command.toFloat();
   d4586:	eebd 0ac0 	vcvt.s32.f32	s0, s0
  publishQueue.publish("Reporting Time Set to %s Minutes.",String(command),PRIVATE);
   d458a:	a804      	add	r0, sp, #16
  sysStatus.reportingBoundary = command.toFloat();
   d458c:	ed83 0a09 	vstr	s0, [r3, #36]	; 0x24
  publishQueue.publish("Reporting Time Set to %s Minutes.",String(command),PRIVATE);
   d4590:	f005 fc50 	bl	d9e34 <_ZN6StringC1ERKS_>
   d4594:	2300      	movs	r3, #0
   d4596:	f88d 3000 	strb.w	r3, [sp]
   d459a:	4b09      	ldr	r3, [pc, #36]	; (d45c0 <_Z20setReportingDuration6String+0x48>)
   d459c:	9a04      	ldr	r2, [sp, #16]
   d459e:	781b      	ldrb	r3, [r3, #0]
   d45a0:	4908      	ldr	r1, [pc, #32]	; (d45c4 <_Z20setReportingDuration6String+0x4c>)
   d45a2:	4809      	ldr	r0, [pc, #36]	; (d45c8 <_Z20setReportingDuration6String+0x50>)
   d45a4:	f7ff ff4f 	bl	d4446 <_ZN21PublishQueueAsyncBase7publishEPKcS1_N8particle5FlagsI15PublishFlagTypehEES5_>
   d45a8:	a804      	add	r0, sp, #16
   d45aa:	f005 fbd5 	bl	d9d58 <_ZN6StringD1Ev>
  sysStatusWriteNeeded = true;
   d45ae:	4b07      	ldr	r3, [pc, #28]	; (d45cc <_Z20setReportingDuration6String+0x54>)
   d45b0:	2001      	movs	r0, #1
   d45b2:	7018      	strb	r0, [r3, #0]
}
   d45b4:	b009      	add	sp, #36	; 0x24
   d45b6:	f85d fb04 	ldr.w	pc, [sp], #4
   d45ba:	bf00      	nop
   d45bc:	2003e590 	.word	0x2003e590
   d45c0:	2003df2d 	.word	0x2003df2d
   d45c4:	000dd55f 	.word	0x000dd55f
   d45c8:	2003e3d0 	.word	0x2003e3d0
   d45cc:	2003e5c0 	.word	0x2003e5c0

000d45d0 <_Z14setVerboseMode6String>:
{
   d45d0:	b537      	push	{r0, r1, r2, r4, r5, lr}
   d45d2:	4916      	ldr	r1, [pc, #88]	; (d462c <_Z14setVerboseMode6String+0x5c>)
   d45d4:	4605      	mov	r5, r0
   d45d6:	f005 fc89 	bl	d9eec <_ZNK6String6equalsEPKc>
  if (command == "1")
   d45da:	4604      	mov	r4, r0
   d45dc:	b188      	cbz	r0, d4602 <_Z14setVerboseMode6String+0x32>
    sysStatus.verboseMode = true;
   d45de:	4b14      	ldr	r3, [pc, #80]	; (d4630 <_Z14setVerboseMode6String+0x60>)
    publishQueue.publish("Mode","Set Verbose Mode",PRIVATE);
   d45e0:	4a14      	ldr	r2, [pc, #80]	; (d4634 <_Z14setVerboseMode6String+0x64>)
   d45e2:	4915      	ldr	r1, [pc, #84]	; (d4638 <_Z14setVerboseMode6String+0x68>)
   d45e4:	4815      	ldr	r0, [pc, #84]	; (d463c <_Z14setVerboseMode6String+0x6c>)
    sysStatus.verboseMode = true;
   d45e6:	2401      	movs	r4, #1
   d45e8:	725c      	strb	r4, [r3, #9]
   d45ea:	2300      	movs	r3, #0
    publishQueue.publish("Mode","Set Verbose Mode",PRIVATE);
   d45ec:	f88d 3000 	strb.w	r3, [sp]
   d45f0:	4b13      	ldr	r3, [pc, #76]	; (d4640 <_Z14setVerboseMode6String+0x70>)
   d45f2:	781b      	ldrb	r3, [r3, #0]
   d45f4:	f7ff ff27 	bl	d4446 <_ZN21PublishQueueAsyncBase7publishEPKcS1_N8particle5FlagsI15PublishFlagTypehEES5_>
    sysStatusWriteNeeded = true;
   d45f8:	4b12      	ldr	r3, [pc, #72]	; (d4644 <_Z14setVerboseMode6String+0x74>)
    return 1;
   d45fa:	4620      	mov	r0, r4
    sysStatusWriteNeeded = true;
   d45fc:	701c      	strb	r4, [r3, #0]
}
   d45fe:	b003      	add	sp, #12
   d4600:	bd30      	pop	{r4, r5, pc}
   d4602:	4911      	ldr	r1, [pc, #68]	; (d4648 <_Z14setVerboseMode6String+0x78>)
   d4604:	4628      	mov	r0, r5
   d4606:	f005 fc71 	bl	d9eec <_ZNK6String6equalsEPKc>
  else if (command == "0")
   d460a:	2800      	cmp	r0, #0
   d460c:	d0f7      	beq.n	d45fe <_Z14setVerboseMode6String+0x2e>
    sysStatus.verboseMode = false;
   d460e:	4b08      	ldr	r3, [pc, #32]	; (d4630 <_Z14setVerboseMode6String+0x60>)
    publishQueue.publish("Mode","Cleared Verbose Mode",PRIVATE);
   d4610:	4a0e      	ldr	r2, [pc, #56]	; (d464c <_Z14setVerboseMode6String+0x7c>)
    sysStatus.verboseMode = false;
   d4612:	725c      	strb	r4, [r3, #9]
    publishQueue.publish("Mode","Cleared Verbose Mode",PRIVATE);
   d4614:	4b0a      	ldr	r3, [pc, #40]	; (d4640 <_Z14setVerboseMode6String+0x70>)
   d4616:	f88d 4000 	strb.w	r4, [sp]
   d461a:	781b      	ldrb	r3, [r3, #0]
   d461c:	4906      	ldr	r1, [pc, #24]	; (d4638 <_Z14setVerboseMode6String+0x68>)
   d461e:	4807      	ldr	r0, [pc, #28]	; (d463c <_Z14setVerboseMode6String+0x6c>)
   d4620:	f7ff ff11 	bl	d4446 <_ZN21PublishQueueAsyncBase7publishEPKcS1_N8particle5FlagsI15PublishFlagTypehEES5_>
    sysStatusWriteNeeded = true;
   d4624:	4b07      	ldr	r3, [pc, #28]	; (d4644 <_Z14setVerboseMode6String+0x74>)
   d4626:	2001      	movs	r0, #1
   d4628:	7018      	strb	r0, [r3, #0]
    return 1;
   d462a:	e7e8      	b.n	d45fe <_Z14setVerboseMode6String+0x2e>
   d462c:	000dd463 	.word	0x000dd463
   d4630:	2003e590 	.word	0x2003e590
   d4634:	000dd581 	.word	0x000dd581
   d4638:	000dd5a2 	.word	0x000dd5a2
   d463c:	2003e3d0 	.word	0x2003e3d0
   d4640:	2003df2d 	.word	0x2003df2d
   d4644:	2003e5c0 	.word	0x2003e5c0
   d4648:	000de3da 	.word	0x000de3da
   d464c:	000dd592 	.word	0x000dd592

000d4650 <_Z13disableSensor6String>:

/* 
  EnableSensor (String Sensor)
  This function takes in the sensor number as integer and enables or disable the sensor accordingly.
*/
int disableSensor(String Sensor){
   d4650:	b530      	push	{r4, r5, lr}
   d4652:	b0c5      	sub	sp, #276	; 0x114
  char * pEND;
  char data[256];
  int tempSensor = strtol(Sensor,&pEND,10);                                                  // Looks for the first integer and interprets it
   d4654:	6800      	ldr	r0, [r0, #0]
   d4656:	220a      	movs	r2, #10
   d4658:	a903      	add	r1, sp, #12
   d465a:	f007 fee5 	bl	dc428 <strtol>
  if ((tempSensor < 1) || (tempSensor >7) ) return 0;
   d465e:	1e43      	subs	r3, r0, #1
   d4660:	2b06      	cmp	r3, #6
  int tempSensor = strtol(Sensor,&pEND,10);                                                  // Looks for the first integer and interprets it
   d4662:	4604      	mov	r4, r0
  if ((tempSensor < 1) || (tempSensor >7) ) return 0;
   d4664:	f04f 0500 	mov.w	r5, #0
   d4668:	d842      	bhi.n	d46f0 <_Z13disableSensor6String+0xa0>
 
  if (tempSensor == 1){
   d466a:	2801      	cmp	r0, #1
   d466c:	d113      	bne.n	d4696 <_Z13disableSensor6String+0x46>
    sysStatus.sensorOneConnected = false;
   d466e:	4b21      	ldr	r3, [pc, #132]	; (d46f4 <_Z13disableSensor6String+0xa4>)
    snprintf(data, sizeof(data), "Disabled Sensor One");
   d4670:	4921      	ldr	r1, [pc, #132]	; (d46f8 <_Z13disableSensor6String+0xa8>)
    sysStatus.sensorOneConnected = false;
   d4672:	771d      	strb	r5, [r3, #28]
    snprintf(data, sizeof(data), "Disabled Sensor One");
   d4674:	a804      	add	r0, sp, #16
   d4676:	f006 ffd9 	bl	db62c <strcpy>
    publishQueue.publish("Sensor Status",data,PRIVATE);
   d467a:	4b20      	ldr	r3, [pc, #128]	; (d46fc <_Z13disableSensor6String+0xac>)
   d467c:	f88d 5000 	strb.w	r5, [sp]
   d4680:	781b      	ldrb	r3, [r3, #0]
   d4682:	491f      	ldr	r1, [pc, #124]	; (d4700 <_Z13disableSensor6String+0xb0>)
   d4684:	481f      	ldr	r0, [pc, #124]	; (d4704 <_Z13disableSensor6String+0xb4>)
   d4686:	aa04      	add	r2, sp, #16
   d4688:	f7ff fedd 	bl	d4446 <_ZN21PublishQueueAsyncBase7publishEPKcS1_N8particle5FlagsI15PublishFlagTypehEES5_>
  }
  else if (tempSensor == 6){
    sysStatus.sensorSixConnected = false;
    snprintf(data, sizeof(data), "Disabled Sensor Six");
    publishQueue.publish("Sensor Status",data,PRIVATE);
    sysStatusWriteNeeded = true; 
   d468c:	4b1e      	ldr	r3, [pc, #120]	; (d4708 <_Z13disableSensor6String+0xb8>)
   d468e:	701c      	strb	r4, [r3, #0]
    return 1;      
  }
  return 0;
}
   d4690:	4620      	mov	r0, r4
   d4692:	b045      	add	sp, #276	; 0x114
   d4694:	bd30      	pop	{r4, r5, pc}
  } else if (tempSensor == 2){
   d4696:	2802      	cmp	r0, #2
   d4698:	d110      	bne.n	d46bc <_Z13disableSensor6String+0x6c>
    sysStatus.sensorTwoConnected = false;
   d469a:	4b16      	ldr	r3, [pc, #88]	; (d46f4 <_Z13disableSensor6String+0xa4>)
    snprintf(data, sizeof(data), "Disabled Sensor Two");
   d469c:	491b      	ldr	r1, [pc, #108]	; (d470c <_Z13disableSensor6String+0xbc>)
    sysStatus.sensorTwoConnected = false;
   d469e:	775d      	strb	r5, [r3, #29]
    snprintf(data, sizeof(data), "Disabled Sensor Six");
   d46a0:	a804      	add	r0, sp, #16
   d46a2:	f006 ffc3 	bl	db62c <strcpy>
    publishQueue.publish("Sensor Status",data,PRIVATE);
   d46a6:	4b15      	ldr	r3, [pc, #84]	; (d46fc <_Z13disableSensor6String+0xac>)
   d46a8:	f88d 5000 	strb.w	r5, [sp]
   d46ac:	781b      	ldrb	r3, [r3, #0]
   d46ae:	4914      	ldr	r1, [pc, #80]	; (d4700 <_Z13disableSensor6String+0xb0>)
   d46b0:	4814      	ldr	r0, [pc, #80]	; (d4704 <_Z13disableSensor6String+0xb4>)
   d46b2:	aa04      	add	r2, sp, #16
   d46b4:	f7ff fec7 	bl	d4446 <_ZN21PublishQueueAsyncBase7publishEPKcS1_N8particle5FlagsI15PublishFlagTypehEES5_>
    sysStatusWriteNeeded = true; 
   d46b8:	2401      	movs	r4, #1
   d46ba:	e7e7      	b.n	d468c <_Z13disableSensor6String+0x3c>
  else if (tempSensor == 3){
   d46bc:	2803      	cmp	r0, #3
   d46be:	d103      	bne.n	d46c8 <_Z13disableSensor6String+0x78>
    sysStatus.sensorThreeConnected = false;
   d46c0:	4b0c      	ldr	r3, [pc, #48]	; (d46f4 <_Z13disableSensor6String+0xa4>)
    snprintf(data, sizeof(data), "Disabled Sensor Three");
   d46c2:	4913      	ldr	r1, [pc, #76]	; (d4710 <_Z13disableSensor6String+0xc0>)
    sysStatus.sensorThreeConnected = false;
   d46c4:	779d      	strb	r5, [r3, #30]
    snprintf(data, sizeof(data), "Disabled Sensor Three");
   d46c6:	e7eb      	b.n	d46a0 <_Z13disableSensor6String+0x50>
  else if (tempSensor == 4){
   d46c8:	2804      	cmp	r0, #4
   d46ca:	d103      	bne.n	d46d4 <_Z13disableSensor6String+0x84>
    sysStatus.sensorFourConnected = false;
   d46cc:	4b09      	ldr	r3, [pc, #36]	; (d46f4 <_Z13disableSensor6String+0xa4>)
    snprintf(data, sizeof(data), "Disabled Sensor Four");
   d46ce:	4911      	ldr	r1, [pc, #68]	; (d4714 <_Z13disableSensor6String+0xc4>)
    sysStatus.sensorFourConnected = false;
   d46d0:	77dd      	strb	r5, [r3, #31]
    snprintf(data, sizeof(data), "Disabled Sensor Four");
   d46d2:	e7e5      	b.n	d46a0 <_Z13disableSensor6String+0x50>
  else if (tempSensor == 5){
   d46d4:	2805      	cmp	r0, #5
   d46d6:	d104      	bne.n	d46e2 <_Z13disableSensor6String+0x92>
    sysStatus.sensorFiveConnected = false;
   d46d8:	4b06      	ldr	r3, [pc, #24]	; (d46f4 <_Z13disableSensor6String+0xa4>)
    snprintf(data, sizeof(data), "Disabled Sensor Five");
   d46da:	490f      	ldr	r1, [pc, #60]	; (d4718 <_Z13disableSensor6String+0xc8>)
    sysStatus.sensorFiveConnected = false;
   d46dc:	f883 5020 	strb.w	r5, [r3, #32]
    snprintf(data, sizeof(data), "Disabled Sensor Five");
   d46e0:	e7de      	b.n	d46a0 <_Z13disableSensor6String+0x50>
  else if (tempSensor == 6){
   d46e2:	2806      	cmp	r0, #6
   d46e4:	d104      	bne.n	d46f0 <_Z13disableSensor6String+0xa0>
    sysStatus.sensorSixConnected = false;
   d46e6:	4b03      	ldr	r3, [pc, #12]	; (d46f4 <_Z13disableSensor6String+0xa4>)
    snprintf(data, sizeof(data), "Disabled Sensor Six");
   d46e8:	490c      	ldr	r1, [pc, #48]	; (d471c <_Z13disableSensor6String+0xcc>)
    sysStatus.sensorSixConnected = false;
   d46ea:	f883 5021 	strb.w	r5, [r3, #33]	; 0x21
    snprintf(data, sizeof(data), "Disabled Sensor Six");
   d46ee:	e7d7      	b.n	d46a0 <_Z13disableSensor6String+0x50>
  if ((tempSensor < 1) || (tempSensor >7) ) return 0;
   d46f0:	462c      	mov	r4, r5
   d46f2:	e7cd      	b.n	d4690 <_Z13disableSensor6String+0x40>
   d46f4:	2003e590 	.word	0x2003e590
   d46f8:	000dd5a7 	.word	0x000dd5a7
   d46fc:	2003df2d 	.word	0x2003df2d
   d4700:	000dd5bb 	.word	0x000dd5bb
   d4704:	2003e3d0 	.word	0x2003e3d0
   d4708:	2003e5c0 	.word	0x2003e5c0
   d470c:	000dd5c9 	.word	0x000dd5c9
   d4710:	000dd5dd 	.word	0x000dd5dd
   d4714:	000dd5f3 	.word	0x000dd5f3
   d4718:	000dd608 	.word	0x000dd608
   d471c:	000dd61d 	.word	0x000dd61d

000d4720 <_Z16setOperatingMode6String>:

int setOperatingMode(String Sensor){
   d4720:	b500      	push	{lr}
   d4722:	b0c5      	sub	sp, #276	; 0x114
  char * pEND;
  char data[256];
  int tempSensor = strtol(Sensor,&pEND,10);                                                  // Looks for the first integer and interprets it
   d4724:	6800      	ldr	r0, [r0, #0]
   d4726:	220a      	movs	r2, #10
   d4728:	a903      	add	r1, sp, #12
   d472a:	f007 fe7d 	bl	dc428 <strtol>
  if ((tempSensor < 0) || (tempSensor >4) ) return 0;
   d472e:	2804      	cmp	r0, #4
   d4730:	d818      	bhi.n	d4764 <_Z16setOperatingMode6String+0x44>
  else{
    sysStatus.operatingMode = tempSensor;
   d4732:	4b0d      	ldr	r3, [pc, #52]	; (d4768 <_Z16setOperatingMode6String+0x48>)
    snprintf(data, sizeof(data), "Operation Mode %i",tempSensor);
   d4734:	4a0d      	ldr	r2, [pc, #52]	; (d476c <_Z16setOperatingMode6String+0x4c>)
    sysStatus.operatingMode = tempSensor;
   d4736:	6298      	str	r0, [r3, #40]	; 0x28
    snprintf(data, sizeof(data), "Operation Mode %i",tempSensor);
   d4738:	f44f 7180 	mov.w	r1, #256	; 0x100
   d473c:	4603      	mov	r3, r0
   d473e:	a804      	add	r0, sp, #16
   d4740:	f004 f98e 	bl	d8a60 <snprintf>
   d4744:	2300      	movs	r3, #0
    publishQueue.publish("Mode",data,PRIVATE);
   d4746:	f88d 3000 	strb.w	r3, [sp]
   d474a:	4b09      	ldr	r3, [pc, #36]	; (d4770 <_Z16setOperatingMode6String+0x50>)
   d474c:	4909      	ldr	r1, [pc, #36]	; (d4774 <_Z16setOperatingMode6String+0x54>)
   d474e:	781b      	ldrb	r3, [r3, #0]
   d4750:	4809      	ldr	r0, [pc, #36]	; (d4778 <_Z16setOperatingMode6String+0x58>)
   d4752:	aa04      	add	r2, sp, #16
   d4754:	f7ff fe77 	bl	d4446 <_ZN21PublishQueueAsyncBase7publishEPKcS1_N8particle5FlagsI15PublishFlagTypehEES5_>
    sysStatusWriteNeeded = true;  
   d4758:	4b08      	ldr	r3, [pc, #32]	; (d477c <_Z16setOperatingMode6String+0x5c>)
   d475a:	2001      	movs	r0, #1
   d475c:	7018      	strb	r0, [r3, #0]
    return 1; 
  }
}
   d475e:	b045      	add	sp, #276	; 0x114
   d4760:	f85d fb04 	ldr.w	pc, [sp], #4
  if ((tempSensor < 0) || (tempSensor >4) ) return 0;
   d4764:	2000      	movs	r0, #0
   d4766:	e7fa      	b.n	d475e <_Z16setOperatingMode6String+0x3e>
   d4768:	2003e590 	.word	0x2003e590
   d476c:	000dd631 	.word	0x000dd631
   d4770:	2003df2d 	.word	0x2003df2d
   d4774:	000dd5a2 	.word	0x000dd5a2
   d4778:	2003e3d0 	.word	0x2003e3d0
   d477c:	2003e5c0 	.word	0x2003e5c0

000d4780 <_Z11resetSystem6String>:

}

int resetSystem(String Command)

{
   d4780:	b51f      	push	{r0, r1, r2, r3, r4, lr}
  char * pEND;
  int command = strtol(Command,&pEND,10);                                                  // Looks for the first integer and interprets it
   d4782:	220a      	movs	r2, #10
   d4784:	6800      	ldr	r0, [r0, #0]
   d4786:	a903      	add	r1, sp, #12
   d4788:	f007 fe4e 	bl	dc428 <strtol>
    if (command == 1) {
   d478c:	2801      	cmp	r0, #1
  int command = strtol(Command,&pEND,10);                                                  // Looks for the first integer and interprets it
   d478e:	4604      	mov	r4, r0
    if (command == 1) {
   d4790:	f04f 0300 	mov.w	r3, #0
   d4794:	d111      	bne.n	d47ba <_Z11resetSystem6String+0x3a>
      publishQueue.publish("Reset","Device Reset Success",PRIVATE);
   d4796:	f88d 3000 	strb.w	r3, [sp]
   d479a:	4b09      	ldr	r3, [pc, #36]	; (d47c0 <_Z11resetSystem6String+0x40>)
   d479c:	4a09      	ldr	r2, [pc, #36]	; (d47c4 <_Z11resetSystem6String+0x44>)
   d479e:	781b      	ldrb	r3, [r3, #0]
   d47a0:	4909      	ldr	r1, [pc, #36]	; (d47c8 <_Z11resetSystem6String+0x48>)
   d47a2:	480a      	ldr	r0, [pc, #40]	; (d47cc <_Z11resetSystem6String+0x4c>)
   d47a4:	f7ff fe4f 	bl	d4446 <_ZN21PublishQueueAsyncBase7publishEPKcS1_N8particle5FlagsI15PublishFlagTypehEES5_>
      delay(5000);
   d47a8:	f241 3088 	movw	r0, #5000	; 0x1388
   d47ac:	f004 f9a8 	bl	d8b00 <delay>
      System.reset();
   d47b0:	f005 fbf8 	bl	d9fa4 <_ZN11SystemClass5resetEv>
      return 1;
      }
    else return 0;  
  }
   d47b4:	4620      	mov	r0, r4
   d47b6:	b004      	add	sp, #16
   d47b8:	bd10      	pop	{r4, pc}
    else return 0;  
   d47ba:	461c      	mov	r4, r3
   d47bc:	e7fa      	b.n	d47b4 <_Z11resetSystem6String+0x34>
   d47be:	bf00      	nop
   d47c0:	2003df2d 	.word	0x2003df2d
   d47c4:	000dd643 	.word	0x000dd643
   d47c8:	000ddc60 	.word	0x000ddc60
   d47cc:	2003e3d0 	.word	0x2003e3d0

000d47d0 <_Z18loadSystemDefaultsv>:
void loadSystemDefaults() {                                                                 // Default settings for the device - connected, not-low power and always on
   d47d0:	b507      	push	{r0, r1, r2, lr}
   d47d2:	f004 f87d 	bl	d88d0 <spark_cloud_flag_connected>
  if (Particle.connected()) publishQueue.publish("Mode","Loading System Defaults", PRIVATE);
   d47d6:	b148      	cbz	r0, d47ec <_Z18loadSystemDefaultsv+0x1c>
   d47d8:	2300      	movs	r3, #0
   d47da:	f88d 3000 	strb.w	r3, [sp]
   d47de:	4b0e      	ldr	r3, [pc, #56]	; (d4818 <_Z18loadSystemDefaultsv+0x48>)
   d47e0:	4a0e      	ldr	r2, [pc, #56]	; (d481c <_Z18loadSystemDefaultsv+0x4c>)
   d47e2:	781b      	ldrb	r3, [r3, #0]
   d47e4:	490e      	ldr	r1, [pc, #56]	; (d4820 <_Z18loadSystemDefaultsv+0x50>)
   d47e6:	480f      	ldr	r0, [pc, #60]	; (d4824 <_Z18loadSystemDefaultsv+0x54>)
   d47e8:	f7ff fe2d 	bl	d4446 <_ZN21PublishQueueAsyncBase7publishEPKcS1_N8particle5FlagsI15PublishFlagTypehEES5_>
  sysStatus.keepAlive = 120;
   d47ec:	4a0e      	ldr	r2, [pc, #56]	; (d4828 <_Z18loadSystemDefaultsv+0x58>)
        writeData(framAddr, (const uint8_t *)&t, sizeof(T));
   d47ee:	480f      	ldr	r0, [pc, #60]	; (d482c <_Z18loadSystemDefaultsv+0x5c>)
   d47f0:	2378      	movs	r3, #120	; 0x78
   d47f2:	6053      	str	r3, [r2, #4]
  sysStatus.structuresVersion = 1;
   d47f4:	f240 1301 	movw	r3, #257	; 0x101
   d47f8:	8013      	strh	r3, [r2, #0]
  sysStatus.verboseMode = false;
   d47fa:	2300      	movs	r3, #0
   d47fc:	7253      	strb	r3, [r2, #9]
  sysStatus.lowBatteryMode = false;
   d47fe:	7293      	strb	r3, [r2, #10]
  sysStatus.operatingMode = 1;
   d4800:	2101      	movs	r1, #1
   d4802:	f44f 7316 	mov.w	r3, #600	; 0x258
   d4806:	e9c2 3109 	strd	r3, r1, [r2, #36]	; 0x24
   d480a:	2330      	movs	r3, #48	; 0x30
}
   d480c:	b003      	add	sp, #12
   d480e:	f85d eb04 	ldr.w	lr, [sp], #4
   d4812:	f002 b80e 	b.w	d6832 <_ZN6MB85RC9writeDataEjPKhj>
   d4816:	bf00      	nop
   d4818:	2003df2d 	.word	0x2003df2d
   d481c:	000dd658 	.word	0x000dd658
   d4820:	000dd5a2 	.word	0x000dd5a2
   d4824:	2003e3d0 	.word	0x2003e3d0
   d4828:	2003e590 	.word	0x2003e590
   d482c:	2003e3a0 	.word	0x2003e3a0

000d4830 <_Z20loadConstantDefaultsv>:
void loadConstantDefaults(){                                                 // Default settings for sensor constants.
   d4830:	b507      	push	{r0, r1, r2, lr}
   d4832:	f004 f84d 	bl	d88d0 <spark_cloud_flag_connected>
  if (Particle.connected()) publishQueue.publish("Mode","Loading Constant Defaults 90.9", PRIVATE);
   d4836:	b148      	cbz	r0, d484c <_Z20loadConstantDefaultsv+0x1c>
   d4838:	2300      	movs	r3, #0
   d483a:	f88d 3000 	strb.w	r3, [sp]
   d483e:	4b0b      	ldr	r3, [pc, #44]	; (d486c <_Z20loadConstantDefaultsv+0x3c>)
   d4840:	4a0b      	ldr	r2, [pc, #44]	; (d4870 <_Z20loadConstantDefaultsv+0x40>)
   d4842:	781b      	ldrb	r3, [r3, #0]
   d4844:	490b      	ldr	r1, [pc, #44]	; (d4874 <_Z20loadConstantDefaultsv+0x44>)
   d4846:	480c      	ldr	r0, [pc, #48]	; (d4878 <_Z20loadConstantDefaultsv+0x48>)
   d4848:	f7ff fdfd 	bl	d4446 <_ZN21PublishQueueAsyncBase7publishEPKcS1_N8particle5FlagsI15PublishFlagTypehEES5_>
  sensorConstants.sensorOneConstant = 90.9;
   d484c:	4a0b      	ldr	r2, [pc, #44]	; (d487c <_Z20loadConstantDefaultsv+0x4c>)
   d484e:	4b0c      	ldr	r3, [pc, #48]	; (d4880 <_Z20loadConstantDefaultsv+0x50>)
   d4850:	480c      	ldr	r0, [pc, #48]	; (d4884 <_Z20loadConstantDefaultsv+0x54>)
   d4852:	6013      	str	r3, [r2, #0]
  sensorConstants.sensorTwoConstant = 90.9;
   d4854:	6053      	str	r3, [r2, #4]
  sensorConstants.sensorThreeConstant = 90.9;
   d4856:	6093      	str	r3, [r2, #8]
  sensorConstants.sensorFourConstant = 90.9;
   d4858:	60d3      	str	r3, [r2, #12]
  sensorConstants.sensorFiveConstant = 90.9;
   d485a:	6113      	str	r3, [r2, #16]
  sensorConstants.sensorSixConstant = 90.9;
   d485c:	6153      	str	r3, [r2, #20]
   d485e:	21a0      	movs	r1, #160	; 0xa0
   d4860:	2318      	movs	r3, #24
}
   d4862:	b003      	add	sp, #12
   d4864:	f85d eb04 	ldr.w	lr, [sp], #4
   d4868:	f001 bfe3 	b.w	d6832 <_ZN6MB85RC9writeDataEjPKhj>
   d486c:	2003df2d 	.word	0x2003df2d
   d4870:	000dd670 	.word	0x000dd670
   d4874:	000dd5a2 	.word	0x000dd5a2
   d4878:	2003e3d0 	.word	0x2003e3d0
   d487c:	2003e428 	.word	0x2003e428
   d4880:	42b5cccd 	.word	0x42b5cccd
   d4884:	2003e3a0 	.word	0x2003e3a0

000d4888 <_Z17checkSystemValuesv>:
void checkSystemValues() {                                                                  // Checks to ensure that all system values are in reasonable range 
   d4888:	b510      	push	{r4, lr}
  if (sysStatus.connectedStatus < 0 || sysStatus.connectedStatus > 1) {
   d488a:	4c15      	ldr	r4, [pc, #84]	; (d48e0 <_Z17checkSystemValuesv+0x58>)
   d488c:	7a23      	ldrb	r3, [r4, #8]
   d488e:	2b01      	cmp	r3, #1
   d4890:	d904      	bls.n	d489c <_Z17checkSystemValuesv+0x14>
   d4892:	f004 f81d 	bl	d88d0 <spark_cloud_flag_connected>
    if (Particle.connected()) sysStatus.connectedStatus = true;
   d4896:	b300      	cbz	r0, d48da <_Z17checkSystemValuesv+0x52>
   d4898:	2301      	movs	r3, #1
   d489a:	7223      	strb	r3, [r4, #8]
  if (sysStatus.keepAlive < 0 || sysStatus.keepAlive > 1200) sysStatus.keepAlive = 600;
   d489c:	6863      	ldr	r3, [r4, #4]
  sysStatusWriteNeeded = true;
   d489e:	4a11      	ldr	r2, [pc, #68]	; (d48e4 <_Z17checkSystemValuesv+0x5c>)
  if (sysStatus.keepAlive < 0 || sysStatus.keepAlive > 1200) sysStatus.keepAlive = 600;
   d48a0:	f5b3 6f96 	cmp.w	r3, #1200	; 0x4b0
   d48a4:	bf84      	itt	hi
   d48a6:	f44f 7316 	movhi.w	r3, #600	; 0x258
   d48aa:	6063      	strhi	r3, [r4, #4]
  if (sysStatus.verboseMode < 0 || sysStatus.verboseMode > 1) sysStatus.verboseMode = true;
   d48ac:	7a63      	ldrb	r3, [r4, #9]
   d48ae:	2b01      	cmp	r3, #1
   d48b0:	bf84      	itt	hi
   d48b2:	2301      	movhi	r3, #1
   d48b4:	7263      	strbhi	r3, [r4, #9]
  if (sysStatus.lowBatteryMode < 0 || sysStatus.lowBatteryMode > 1) sysStatus.lowBatteryMode = 0;
   d48b6:	7aa3      	ldrb	r3, [r4, #10]
   d48b8:	2b01      	cmp	r3, #1
   d48ba:	bf84      	itt	hi
   d48bc:	2300      	movhi	r3, #0
   d48be:	72a3      	strbhi	r3, [r4, #10]
  if (sysStatus.resetCount < 0 || sysStatus.resetCount > 255) sysStatus.resetCount = 0;
   d48c0:	6963      	ldr	r3, [r4, #20]
   d48c2:	2bff      	cmp	r3, #255	; 0xff
   d48c4:	bf84      	itt	hi
   d48c6:	2300      	movhi	r3, #0
   d48c8:	6163      	strhi	r3, [r4, #20]
  if (sysStatus.operatingMode<0 || sysStatus.operatingMode>5) sysStatus.operatingMode = 1;
   d48ca:	6aa3      	ldr	r3, [r4, #40]	; 0x28
   d48cc:	2b05      	cmp	r3, #5
   d48ce:	f04f 0301 	mov.w	r3, #1
  sysStatusWriteNeeded = true;
   d48d2:	7013      	strb	r3, [r2, #0]
  if (sysStatus.operatingMode<0 || sysStatus.operatingMode>5) sysStatus.operatingMode = 1;
   d48d4:	bf88      	it	hi
   d48d6:	62a3      	strhi	r3, [r4, #40]	; 0x28
}
   d48d8:	bd10      	pop	{r4, pc}
    else sysStatus.connectedStatus = false;
   d48da:	7220      	strb	r0, [r4, #8]
   d48dc:	e7de      	b.n	d489c <_Z17checkSystemValuesv+0x14>
   d48de:	bf00      	nop
   d48e0:	2003e590 	.word	0x2003e590
   d48e4:	2003e5c0 	.word	0x2003e5c0

000d48e8 <_Z19checkConstantValuesv>:
  if ( sensorConstants.sensorOneConstant < 0.0  || sensorConstants.sensorOneConstant > 3000.0) sensorConstants.sensorOneConstant = 90.91;
   d48e8:	4b33      	ldr	r3, [pc, #204]	; (d49b8 <_Z19checkConstantValuesv+0xd0>)
   d48ea:	edd3 7a00 	vldr	s15, [r3]
   d48ee:	eef5 7ac0 	vcmpe.f32	s15, #0.0
   d48f2:	eef1 fa10 	vmrs	APSR_nzcv, fpscr
   d48f6:	d406      	bmi.n	d4906 <_Z19checkConstantValuesv+0x1e>
   d48f8:	ed9f 7a30 	vldr	s14, [pc, #192]	; d49bc <_Z19checkConstantValuesv+0xd4>
   d48fc:	eef4 7ac7 	vcmpe.f32	s15, s14
   d4900:	eef1 fa10 	vmrs	APSR_nzcv, fpscr
   d4904:	dd01      	ble.n	d490a <_Z19checkConstantValuesv+0x22>
   d4906:	4a2e      	ldr	r2, [pc, #184]	; (d49c0 <_Z19checkConstantValuesv+0xd8>)
   d4908:	601a      	str	r2, [r3, #0]
  if ( sensorConstants.sensorTwoConstant < 0.0  || sensorConstants.sensorTwoConstant > 3000.0) sensorConstants.sensorTwoConstant = 90.91;
   d490a:	edd3 7a01 	vldr	s15, [r3, #4]
   d490e:	eef5 7ac0 	vcmpe.f32	s15, #0.0
   d4912:	eef1 fa10 	vmrs	APSR_nzcv, fpscr
   d4916:	d406      	bmi.n	d4926 <_Z19checkConstantValuesv+0x3e>
   d4918:	ed9f 7a28 	vldr	s14, [pc, #160]	; d49bc <_Z19checkConstantValuesv+0xd4>
   d491c:	eef4 7ac7 	vcmpe.f32	s15, s14
   d4920:	eef1 fa10 	vmrs	APSR_nzcv, fpscr
   d4924:	dd01      	ble.n	d492a <_Z19checkConstantValuesv+0x42>
   d4926:	4a26      	ldr	r2, [pc, #152]	; (d49c0 <_Z19checkConstantValuesv+0xd8>)
   d4928:	605a      	str	r2, [r3, #4]
  if ( sensorConstants.sensorThreeConstant < 0.0  || sensorConstants.sensorThreeConstant > 3000.0) sensorConstants.sensorThreeConstant = 90.91;
   d492a:	edd3 7a02 	vldr	s15, [r3, #8]
   d492e:	eef5 7ac0 	vcmpe.f32	s15, #0.0
   d4932:	eef1 fa10 	vmrs	APSR_nzcv, fpscr
   d4936:	d406      	bmi.n	d4946 <_Z19checkConstantValuesv+0x5e>
   d4938:	ed9f 7a20 	vldr	s14, [pc, #128]	; d49bc <_Z19checkConstantValuesv+0xd4>
   d493c:	eef4 7ac7 	vcmpe.f32	s15, s14
   d4940:	eef1 fa10 	vmrs	APSR_nzcv, fpscr
   d4944:	dd01      	ble.n	d494a <_Z19checkConstantValuesv+0x62>
   d4946:	4a1e      	ldr	r2, [pc, #120]	; (d49c0 <_Z19checkConstantValuesv+0xd8>)
   d4948:	609a      	str	r2, [r3, #8]
  if ( sensorConstants.sensorFourConstant < 0.0  || sensorConstants.sensorFourConstant > 3000.0) sensorConstants.sensorFourConstant = 90.91;
   d494a:	edd3 7a03 	vldr	s15, [r3, #12]
   d494e:	eef5 7ac0 	vcmpe.f32	s15, #0.0
   d4952:	eef1 fa10 	vmrs	APSR_nzcv, fpscr
   d4956:	d406      	bmi.n	d4966 <_Z19checkConstantValuesv+0x7e>
   d4958:	ed9f 7a18 	vldr	s14, [pc, #96]	; d49bc <_Z19checkConstantValuesv+0xd4>
   d495c:	eef4 7ac7 	vcmpe.f32	s15, s14
   d4960:	eef1 fa10 	vmrs	APSR_nzcv, fpscr
   d4964:	dd01      	ble.n	d496a <_Z19checkConstantValuesv+0x82>
   d4966:	4a16      	ldr	r2, [pc, #88]	; (d49c0 <_Z19checkConstantValuesv+0xd8>)
   d4968:	60da      	str	r2, [r3, #12]
  if ( sensorConstants.sensorFiveConstant < 0.0  || sensorConstants.sensorFiveConstant > 3000.0) sensorConstants.sensorFiveConstant = 90.91;
   d496a:	edd3 7a04 	vldr	s15, [r3, #16]
   d496e:	eef5 7ac0 	vcmpe.f32	s15, #0.0
   d4972:	eef1 fa10 	vmrs	APSR_nzcv, fpscr
   d4976:	d406      	bmi.n	d4986 <_Z19checkConstantValuesv+0x9e>
   d4978:	ed9f 7a10 	vldr	s14, [pc, #64]	; d49bc <_Z19checkConstantValuesv+0xd4>
   d497c:	eef4 7ac7 	vcmpe.f32	s15, s14
   d4980:	eef1 fa10 	vmrs	APSR_nzcv, fpscr
   d4984:	dd01      	ble.n	d498a <_Z19checkConstantValuesv+0xa2>
   d4986:	4a0e      	ldr	r2, [pc, #56]	; (d49c0 <_Z19checkConstantValuesv+0xd8>)
   d4988:	611a      	str	r2, [r3, #16]
  if ( sensorConstants.sensorSixConstant < 0.0  || sensorConstants.sensorSixConstant > 3000.0) sensorConstants.sensorSixConstant = 90.91;
   d498a:	edd3 7a05 	vldr	s15, [r3, #20]
   d498e:	eef5 7ac0 	vcmpe.f32	s15, #0.0
   d4992:	eef1 fa10 	vmrs	APSR_nzcv, fpscr
   d4996:	d406      	bmi.n	d49a6 <_Z19checkConstantValuesv+0xbe>
   d4998:	ed9f 7a08 	vldr	s14, [pc, #32]	; d49bc <_Z19checkConstantValuesv+0xd4>
   d499c:	eef4 7ac7 	vcmpe.f32	s15, s14
   d49a0:	eef1 fa10 	vmrs	APSR_nzcv, fpscr
   d49a4:	dd01      	ble.n	d49aa <_Z19checkConstantValuesv+0xc2>
   d49a6:	4a06      	ldr	r2, [pc, #24]	; (d49c0 <_Z19checkConstantValuesv+0xd8>)
   d49a8:	615a      	str	r2, [r3, #20]
   d49aa:	4a03      	ldr	r2, [pc, #12]	; (d49b8 <_Z19checkConstantValuesv+0xd0>)
   d49ac:	4805      	ldr	r0, [pc, #20]	; (d49c4 <_Z19checkConstantValuesv+0xdc>)
   d49ae:	2318      	movs	r3, #24
   d49b0:	21a0      	movs	r1, #160	; 0xa0
   d49b2:	f001 bf3e 	b.w	d6832 <_ZN6MB85RC9writeDataEjPKhj>
   d49b6:	bf00      	nop
   d49b8:	2003e428 	.word	0x2003e428
   d49bc:	453b8000 	.word	0x453b8000
   d49c0:	42b5d1ec 	.word	0x42b5d1ec
   d49c4:	2003e3a0 	.word	0x2003e3a0

000d49c8 <_Z11petWatchdogv>:
{
   d49c8:	b507      	push	{r0, r1, r2, lr}
  digitalWrite(donePin, HIGH);                                                              // Pet the watchdog
   d49ca:	2101      	movs	r1, #1
   d49cc:	2005      	movs	r0, #5
   d49ce:	f005 fee4 	bl	da79a <digitalWrite>
  digitalWrite(donePin, LOW);
   d49d2:	2100      	movs	r1, #0
   d49d4:	2005      	movs	r0, #5
   d49d6:	f005 fee0 	bl	da79a <digitalWrite>
  watchdogFlag = false;
   d49da:	4a09      	ldr	r2, [pc, #36]	; (d4a00 <_Z11petWatchdogv+0x38>)
   d49dc:	2300      	movs	r3, #0
   d49de:	7013      	strb	r3, [r2, #0]
  if (Particle.connected && sysStatus.verboseMode) publishQueue.publish("Watchdog","Petted",PRIVATE);
   d49e0:	4a08      	ldr	r2, [pc, #32]	; (d4a04 <_Z11petWatchdogv+0x3c>)
   d49e2:	7a52      	ldrb	r2, [r2, #9]
   d49e4:	b142      	cbz	r2, d49f8 <_Z11petWatchdogv+0x30>
   d49e6:	f88d 3000 	strb.w	r3, [sp]
   d49ea:	4b07      	ldr	r3, [pc, #28]	; (d4a08 <_Z11petWatchdogv+0x40>)
   d49ec:	4a07      	ldr	r2, [pc, #28]	; (d4a0c <_Z11petWatchdogv+0x44>)
   d49ee:	781b      	ldrb	r3, [r3, #0]
   d49f0:	4907      	ldr	r1, [pc, #28]	; (d4a10 <_Z11petWatchdogv+0x48>)
   d49f2:	4808      	ldr	r0, [pc, #32]	; (d4a14 <_Z11petWatchdogv+0x4c>)
   d49f4:	f7ff fd27 	bl	d4446 <_ZN21PublishQueueAsyncBase7publishEPKcS1_N8particle5FlagsI15PublishFlagTypehEES5_>
}
   d49f8:	b003      	add	sp, #12
   d49fa:	f85d fb04 	ldr.w	pc, [sp], #4
   d49fe:	bf00      	nop
   d4a00:	2003e5c1 	.word	0x2003e5c1
   d4a04:	2003e590 	.word	0x2003e590
   d4a08:	2003df2d 	.word	0x2003df2d
   d4a0c:	000dd68f 	.word	0x000dd68f
   d4a10:	000dd696 	.word	0x000dd696
   d4a14:	2003e3d0 	.word	0x2003e3d0

000d4a18 <_Z22publishStateTransitionv>:
{
   d4a18:	b530      	push	{r4, r5, lr}
  snprintf(stateTransitionString, sizeof(stateTransitionString), "From %s to %s", stateNames[oldState],stateNames[state]);
   d4a1a:	4d11      	ldr	r5, [pc, #68]	; (d4a60 <_Z22publishStateTransitionv+0x48>)
   d4a1c:	4c11      	ldr	r4, [pc, #68]	; (d4a64 <_Z22publishStateTransitionv+0x4c>)
   d4a1e:	4912      	ldr	r1, [pc, #72]	; (d4a68 <_Z22publishStateTransitionv+0x50>)
   d4a20:	782a      	ldrb	r2, [r5, #0]
   d4a22:	7820      	ldrb	r0, [r4, #0]
{
   d4a24:	b08d      	sub	sp, #52	; 0x34
  snprintf(stateTransitionString, sizeof(stateTransitionString), "From %s to %s", stateNames[oldState],stateNames[state]);
   d4a26:	231a      	movs	r3, #26
   d4a28:	fb03 1202 	mla	r2, r3, r2, r1
   d4a2c:	9200      	str	r2, [sp, #0]
   d4a2e:	fb03 1300 	mla	r3, r3, r0, r1
   d4a32:	4a0e      	ldr	r2, [pc, #56]	; (d4a6c <_Z22publishStateTransitionv+0x54>)
   d4a34:	2128      	movs	r1, #40	; 0x28
   d4a36:	a802      	add	r0, sp, #8
   d4a38:	f004 f812 	bl	d8a60 <snprintf>
  oldState = state;
   d4a3c:	782b      	ldrb	r3, [r5, #0]
   d4a3e:	7023      	strb	r3, [r4, #0]
   d4a40:	f003 ff46 	bl	d88d0 <spark_cloud_flag_connected>
  if(Particle.connected()) publishQueue.publish("State Transition",stateTransitionString, PRIVATE);
   d4a44:	b148      	cbz	r0, d4a5a <_Z22publishStateTransitionv+0x42>
   d4a46:	2300      	movs	r3, #0
   d4a48:	f88d 3000 	strb.w	r3, [sp]
   d4a4c:	4b08      	ldr	r3, [pc, #32]	; (d4a70 <_Z22publishStateTransitionv+0x58>)
   d4a4e:	4909      	ldr	r1, [pc, #36]	; (d4a74 <_Z22publishStateTransitionv+0x5c>)
   d4a50:	781b      	ldrb	r3, [r3, #0]
   d4a52:	4809      	ldr	r0, [pc, #36]	; (d4a78 <_Z22publishStateTransitionv+0x60>)
   d4a54:	aa02      	add	r2, sp, #8
   d4a56:	f7ff fcf6 	bl	d4446 <_ZN21PublishQueueAsyncBase7publishEPKcS1_N8particle5FlagsI15PublishFlagTypehEES5_>
}
   d4a5a:	b00d      	add	sp, #52	; 0x34
   d4a5c:	bd30      	pop	{r4, r5, pc}
   d4a5e:	bf00      	nop
   d4a60:	2003e58d 	.word	0x2003e58d
   d4a64:	2003e3cc 	.word	0x2003e3cc
   d4a68:	2003dc30 	.word	0x2003dc30
   d4a6c:	000dd69f 	.word	0x000dd69f
   d4a70:	2003df2d 	.word	0x2003df2d
   d4a74:	000dd6ad 	.word	0x000dd6ad
   d4a78:	2003e3d0 	.word	0x2003e3d0

000d4a7c <_Z17getBatteryContextv>:
{
   d4a7c:	b530      	push	{r4, r5, lr}
  const char* batteryContext[7] ={"Unknown","Not Charging","Charging","Charged","Discharging","Fault","Diconnected"};
   d4a7e:	4d0d      	ldr	r5, [pc, #52]	; (d4ab4 <_Z17getBatteryContextv+0x38>)
   d4a80:	cd0f      	ldmia	r5!, {r0, r1, r2, r3}
{
   d4a82:	b089      	sub	sp, #36	; 0x24
  const char* batteryContext[7] ={"Unknown","Not Charging","Charging","Charged","Discharging","Fault","Diconnected"};
   d4a84:	ac01      	add	r4, sp, #4
   d4a86:	c40f      	stmia	r4!, {r0, r1, r2, r3}
   d4a88:	e895 0007 	ldmia.w	r5, {r0, r1, r2}
  snprintf(batteryContextStr, sizeof(batteryContextStr),"%s", batteryContext[sysStatus.batteryState]);
   d4a8c:	4b0a      	ldr	r3, [pc, #40]	; (d4ab8 <_Z17getBatteryContextv+0x3c>)
  const char* batteryContext[7] ={"Unknown","Not Charging","Charging","Charged","Discharging","Fault","Diconnected"};
   d4a8e:	e884 0007 	stmia.w	r4, {r0, r1, r2}
  snprintf(batteryContextStr, sizeof(batteryContextStr),"%s", batteryContext[sysStatus.batteryState]);
   d4a92:	7c1b      	ldrb	r3, [r3, #16]
   d4a94:	4809      	ldr	r0, [pc, #36]	; (d4abc <_Z17getBatteryContextv+0x40>)
   d4a96:	aa08      	add	r2, sp, #32
   d4a98:	eb02 0383 	add.w	r3, r2, r3, lsl #2
   d4a9c:	2110      	movs	r1, #16
   d4a9e:	f853 3c1c 	ldr.w	r3, [r3, #-28]
   d4aa2:	4a07      	ldr	r2, [pc, #28]	; (d4ac0 <_Z17getBatteryContextv+0x44>)
   d4aa4:	f003 ffdc 	bl	d8a60 <snprintf>
  sysStatusWriteNeeded = true;
   d4aa8:	4b06      	ldr	r3, [pc, #24]	; (d4ac4 <_Z17getBatteryContextv+0x48>)
   d4aaa:	2201      	movs	r2, #1
   d4aac:	701a      	strb	r2, [r3, #0]
}
   d4aae:	b009      	add	sp, #36	; 0x24
   d4ab0:	bd30      	pop	{r4, r5, pc}
   d4ab2:	bf00      	nop
   d4ab4:	000dde90 	.word	0x000dde90
   d4ab8:	2003e590 	.word	0x2003e590
   d4abc:	2003df2e 	.word	0x2003df2e
   d4ac0:	000ddf6c 	.word	0x000ddf6c
   d4ac4:	2003e5c0 	.word	0x2003e5c0

000d4ac8 <_Z19Three_Phase_MonitorhPN12Load_Monitor7CT_DataEPfS2_>:
void Three_Phase_Monitor(uint8_t Wires,Load_Monitor::CT_Property_Struct Load_Name[],float *Current_rms_per_Phase,float *Power_rms_per_Phase){
   d4ac8:	e92d 4ff0 	stmdb	sp!, {r4, r5, r6, r7, r8, r9, sl, fp, lr}
   float i_rms_per_Phase[p]={0};
   d4acc:	ea4f 0980 	mov.w	r9, r0, lsl #2
   d4ad0:	f109 0407 	add.w	r4, r9, #7
void Three_Phase_Monitor(uint8_t Wires,Load_Monitor::CT_Property_Struct Load_Name[],float *Current_rms_per_Phase,float *Power_rms_per_Phase){
   d4ad4:	b083      	sub	sp, #12
   float i_rms_per_Phase[p]={0};
   d4ad6:	f404 64ff 	and.w	r4, r4, #2040	; 0x7f8
void Three_Phase_Monitor(uint8_t Wires,Load_Monitor::CT_Property_Struct Load_Name[],float *Current_rms_per_Phase,float *Power_rms_per_Phase){
   d4ada:	af02      	add	r7, sp, #8
   float i_rms_per_Phase[p]={0};
   d4adc:	ebad 0d04 	sub.w	sp, sp, r4
   d4ae0:	ad02      	add	r5, sp, #8
   d4ae2:	46ac      	mov	ip, r5
   d4ae4:	f04f 0e00 	mov.w	lr, #0
   d4ae8:	f84c eb04 	str.w	lr, [ip], #4
   d4aec:	3802      	subs	r0, #2
   d4aee:	2800      	cmp	r0, #0
   d4af0:	da2a      	bge.n	d4b48 <_Z19Three_Phase_MonitorhPN12Load_Monitor7CT_DataEPfS2_+0x80>
   i_rms_per_Phase[i]=KUMVA_IO.calcIrms(Load_Name[i]);
   d4af2:	f8df b068 	ldr.w	fp, [pc, #104]	; d4b5c <_Z19Three_Phase_MonitorhPN12Load_Monitor7CT_DataEPfS2_+0x94>
  Power_rms_per_Phase[i]=((i_rms_per_Phase[i]*Vrms)/1000); //in kW
   d4af6:	f8df a068 	ldr.w	sl, [pc, #104]	; d4b60 <_Z19Three_Phase_MonitorhPN12Load_Monitor7CT_DataEPfS2_+0x98>
   d4afa:	460c      	mov	r4, r1
   d4afc:	4690      	mov	r8, r2
   d4afe:	461e      	mov	r6, r3
   d4b00:	44a9      	add	r9, r5
  for (uint8_t i=0;i<p;i++){
   d4b02:	454d      	cmp	r5, r9
   d4b04:	d024      	beq.n	d4b50 <_Z19Three_Phase_MonitorhPN12Load_Monitor7CT_DataEPfS2_+0x88>
   i_rms_per_Phase[i]=KUMVA_IO.calcIrms(Load_Name[i]);
   d4b06:	e9d4 0102 	ldrd	r0, r1, [r4, #8]
   d4b0a:	e88d 0003 	stmia.w	sp, {r0, r1}
   d4b0e:	4658      	mov	r0, fp
   d4b10:	e894 000c 	ldmia.w	r4, {r2, r3}
   d4b14:	f001 fd00 	bl	d6518 <_ZN12Load_Monitor8calcIrmsENS_7CT_DataE>
   d4b18:	ec51 0b10 	vmov	r0, r1, d0
   d4b1c:	f006 fc6c 	bl	db3f8 <__aeabi_d2f>
  Current_rms_per_Phase[i]=i_rms_per_Phase[i];
   d4b20:	f848 0b04 	str.w	r0, [r8], #4
   i_rms_per_Phase[i]=KUMVA_IO.calcIrms(Load_Name[i]);
   d4b24:	f845 0b04 	str.w	r0, [r5], #4
  Power_rms_per_Phase[i]=((i_rms_per_Phase[i]*Vrms)/1000); //in kW
   d4b28:	f006 f93e 	bl	dada8 <__aeabi_f2d>
   d4b2c:	e9da 2300 	ldrd	r2, r3, [sl]
   d4b30:	f006 f992 	bl	dae58 <__aeabi_dmul>
   d4b34:	4b08      	ldr	r3, [pc, #32]	; (d4b58 <_Z19Three_Phase_MonitorhPN12Load_Monitor7CT_DataEPfS2_+0x90>)
   d4b36:	2200      	movs	r2, #0
   d4b38:	f006 fab8 	bl	db0ac <__aeabi_ddiv>
   d4b3c:	f006 fc5c 	bl	db3f8 <__aeabi_d2f>
   d4b40:	3410      	adds	r4, #16
   d4b42:	f846 0b04 	str.w	r0, [r6], #4
  for (uint8_t i=0;i<p;i++){
   d4b46:	e7dc      	b.n	d4b02 <_Z19Three_Phase_MonitorhPN12Load_Monitor7CT_DataEPfS2_+0x3a>
   float i_rms_per_Phase[p]={0};
   d4b48:	f84c eb04 	str.w	lr, [ip], #4
   d4b4c:	3801      	subs	r0, #1
   d4b4e:	e7ce      	b.n	d4aee <_Z19Three_Phase_MonitorhPN12Load_Monitor7CT_DataEPfS2_+0x26>
}
   d4b50:	3704      	adds	r7, #4
   d4b52:	46bd      	mov	sp, r7
   d4b54:	e8bd 8ff0 	ldmia.w	sp!, {r4, r5, r6, r7, r8, r9, sl, fp, pc}
   d4b58:	408f4000 	.word	0x408f4000
   d4b5c:	2003dee8 	.word	0x2003dee8
   d4b60:	2003dc28 	.word	0x2003dc28

000d4b64 <_Z16takeMeasurementsv>:
{   
   d4b64:	e92d 47f0 	stmdb	sp!, {r4, r5, r6, r7, r8, r9, sl, lr}
   d4b68:	ed2d 8b06 	vpush	{d8-d10}
    {CT1_PIN,sensorConstants.sensorOneConstant}, // R phase
   d4b6c:	4cb9      	ldr	r4, [pc, #740]	; (d4e54 <_Z16takeMeasurementsv+0x2f0>)
   d4b6e:	4bba      	ldr	r3, [pc, #744]	; (d4e58 <_Z16takeMeasurementsv+0x2f4>)
   d4b70:	6820      	ldr	r0, [r4, #0]
   d4b72:	f893 a000 	ldrb.w	sl, [r3]
{   
   d4b76:	b0a8      	sub	sp, #160	; 0xa0
  };
   d4b78:	f8cd a000 	str.w	sl, [sp]
    {CT1_PIN,sensorConstants.sensorOneConstant}, // R phase
   d4b7c:	f006 f914 	bl	dada8 <__aeabi_f2d>
    {CT2_PIN,sensorConstants.sensorTwoConstant}, // T phase
   d4b80:	4bb6      	ldr	r3, [pc, #728]	; (d4e5c <_Z16takeMeasurementsv+0x2f8>)
    {CT1_PIN,sensorConstants.sensorOneConstant}, // R phase
   d4b82:	ec41 0b1a 	vmov	d10, r0, r1
    {CT2_PIN,sensorConstants.sensorTwoConstant}, // T phase
   d4b86:	f893 9000 	ldrb.w	r9, [r3]
  };
   d4b8a:	f8cd 9010 	str.w	r9, [sp, #16]
   d4b8e:	e9cd 0102 	strd	r0, r1, [sp, #8]
    {CT2_PIN,sensorConstants.sensorTwoConstant}, // T phase
   d4b92:	6860      	ldr	r0, [r4, #4]
   d4b94:	f006 f908 	bl	dada8 <__aeabi_f2d>
    {CT3_PIN,sensorConstants.sensorThreeConstant} // S phase 
   d4b98:	4bb1      	ldr	r3, [pc, #708]	; (d4e60 <_Z16takeMeasurementsv+0x2fc>)
    {CT2_PIN,sensorConstants.sensorTwoConstant}, // T phase
   d4b9a:	ec41 0b19 	vmov	d9, r0, r1
    {CT3_PIN,sensorConstants.sensorThreeConstant} // S phase 
   d4b9e:	f893 8000 	ldrb.w	r8, [r3]
  };
   d4ba2:	f8cd 8020 	str.w	r8, [sp, #32]
   d4ba6:	e9cd 0106 	strd	r0, r1, [sp, #24]
    {CT3_PIN,sensorConstants.sensorThreeConstant} // S phase 
   d4baa:	68a0      	ldr	r0, [r4, #8]
   d4bac:	f006 f8fc 	bl	dada8 <__aeabi_f2d>
        {CT4_PIN,sensorConstants.sensorFourConstant}, // R phase
   d4bb0:	4bac      	ldr	r3, [pc, #688]	; (d4e64 <_Z16takeMeasurementsv+0x300>)
    {CT3_PIN,sensorConstants.sensorThreeConstant} // S phase 
   d4bb2:	ec41 0b18 	vmov	d8, r0, r1
        {CT4_PIN,sensorConstants.sensorFourConstant}, // R phase
   d4bb6:	781d      	ldrb	r5, [r3, #0]
  };
   d4bb8:	950c      	str	r5, [sp, #48]	; 0x30
  };
   d4bba:	e9cd 010a 	strd	r0, r1, [sp, #40]	; 0x28
        {CT4_PIN,sensorConstants.sensorFourConstant}, // R phase
   d4bbe:	68e0      	ldr	r0, [r4, #12]
   d4bc0:	f006 f8f2 	bl	dada8 <__aeabi_f2d>
        {CT5_PIN,sensorConstants.sensorFiveConstant}, // T phase
   d4bc4:	4ba8      	ldr	r3, [pc, #672]	; (d4e68 <_Z16takeMeasurementsv+0x304>)
        {CT4_PIN,sensorConstants.sensorFourConstant}, // R phase
   d4bc6:	4606      	mov	r6, r0
        {CT5_PIN,sensorConstants.sensorFiveConstant}, // T phase
   d4bc8:	781b      	ldrb	r3, [r3, #0]
   d4bca:	6920      	ldr	r0, [r4, #16]
   d4bcc:	9310      	str	r3, [sp, #64]	; 0x40
        {CT4_PIN,sensorConstants.sensorFourConstant}, // R phase
   d4bce:	460f      	mov	r7, r1
  };
   d4bd0:	e9cd 670e 	strd	r6, r7, [sp, #56]	; 0x38
        {CT5_PIN,sensorConstants.sensorFiveConstant}, // T phase
   d4bd4:	f006 f8e8 	bl	dada8 <__aeabi_f2d>
        {CT6_PIN,sensorConstants.sensorSixConstant} // S phase 
   d4bd8:	4ba4      	ldr	r3, [pc, #656]	; (d4e6c <_Z16takeMeasurementsv+0x308>)
        {CT5_PIN,sensorConstants.sensorFiveConstant}, // T phase
   d4bda:	e9cd 0112 	strd	r0, r1, [sp, #72]	; 0x48
        {CT6_PIN,sensorConstants.sensorSixConstant} // S phase 
   d4bde:	781b      	ldrb	r3, [r3, #0]
   d4be0:	6960      	ldr	r0, [r4, #20]
   d4be2:	9314      	str	r3, [sp, #80]	; 0x50
   d4be4:	f006 f8e0 	bl	dada8 <__aeabi_f2d>
    sensorData.validData = false;
   d4be8:	4ca1      	ldr	r4, [pc, #644]	; (d4e70 <_Z16takeMeasurementsv+0x30c>)
   };
   d4bea:	9524      	str	r5, [sp, #144]	; 0x90
    if ((sysStatus.operatingMode) == 1){
   d4bec:	4da1      	ldr	r5, [pc, #644]	; (d4e74 <_Z16takeMeasurementsv+0x310>)
   };
   d4bee:	f8cd a060 	str.w	sl, [sp, #96]	; 0x60
    sensorData.validData = false;
   d4bf2:	2300      	movs	r3, #0
        {CT6_PIN,sensorConstants.sensorSixConstant} // S phase 
   d4bf4:	e9cd 0116 	strd	r0, r1, [sp, #88]	; 0x58
   };
   d4bf8:	ed8d ab1a 	vstr	d10, [sp, #104]	; 0x68
   d4bfc:	ed8d 9b1e 	vstr	d9, [sp, #120]	; 0x78
   d4c00:	ed8d 8b22 	vstr	d8, [sp, #136]	; 0x88
   d4c04:	e9cd 6726 	strd	r6, r7, [sp, #152]	; 0x98
   d4c08:	f8cd 9070 	str.w	r9, [sp, #112]	; 0x70
   d4c0c:	f8cd 8080 	str.w	r8, [sp, #128]	; 0x80
    sensorData.validData = false;
   d4c10:	f884 3088 	strb.w	r3, [r4, #136]	; 0x88
    getBatteryContext();     
   d4c14:	f7ff ff32 	bl	d4a7c <_Z17getBatteryContextv>
    if ((sysStatus.operatingMode) == 1){
   d4c18:	6aa8      	ldr	r0, [r5, #40]	; 0x28
   d4c1a:	2801      	cmp	r0, #1
   d4c1c:	d14a      	bne.n	d4cb4 <_Z16takeMeasurementsv+0x150>
      if (sysStatus.sensorOneConnected) sensorData.sensorOneCurrent =   emon1.calcIrms(1480);
   d4c1e:	7f2b      	ldrb	r3, [r5, #28]
   d4c20:	b14b      	cbz	r3, d4c36 <_Z16takeMeasurementsv+0xd2>
   d4c22:	4895      	ldr	r0, [pc, #596]	; (d4e78 <_Z16takeMeasurementsv+0x314>)
   d4c24:	f44f 61b9 	mov.w	r1, #1480	; 0x5c8
   d4c28:	f001 fcf6 	bl	d6618 <_ZN13EnergyMonitor8calcIrmsEj>
   d4c2c:	ec51 0b10 	vmov	r0, r1, d0
   d4c30:	f006 fbe2 	bl	db3f8 <__aeabi_d2f>
   d4c34:	6020      	str	r0, [r4, #0]
      if (sysStatus.sensorTwoConnected) sensorData.sensorTwoCurrent =   emon2.calcIrms(1480);
   d4c36:	7f6b      	ldrb	r3, [r5, #29]
   d4c38:	b14b      	cbz	r3, d4c4e <_Z16takeMeasurementsv+0xea>
   d4c3a:	4890      	ldr	r0, [pc, #576]	; (d4e7c <_Z16takeMeasurementsv+0x318>)
   d4c3c:	f44f 61b9 	mov.w	r1, #1480	; 0x5c8
   d4c40:	f001 fcea 	bl	d6618 <_ZN13EnergyMonitor8calcIrmsEj>
   d4c44:	ec51 0b10 	vmov	r0, r1, d0
   d4c48:	f006 fbd6 	bl	db3f8 <__aeabi_d2f>
   d4c4c:	6060      	str	r0, [r4, #4]
      if (sysStatus.sensorThreeConnected) sensorData.sensorThreeCurrent=  emon3.calcIrms(1480);
   d4c4e:	7fab      	ldrb	r3, [r5, #30]
   d4c50:	b14b      	cbz	r3, d4c66 <_Z16takeMeasurementsv+0x102>
   d4c52:	488b      	ldr	r0, [pc, #556]	; (d4e80 <_Z16takeMeasurementsv+0x31c>)
   d4c54:	f44f 61b9 	mov.w	r1, #1480	; 0x5c8
   d4c58:	f001 fcde 	bl	d6618 <_ZN13EnergyMonitor8calcIrmsEj>
   d4c5c:	ec51 0b10 	vmov	r0, r1, d0
   d4c60:	f006 fbca 	bl	db3f8 <__aeabi_d2f>
   d4c64:	60a0      	str	r0, [r4, #8]
      if (sysStatus.sensorFourConnected) sensorData.sensorFourCurrent =  emon4.calcIrms(1480);
   d4c66:	7feb      	ldrb	r3, [r5, #31]
   d4c68:	b14b      	cbz	r3, d4c7e <_Z16takeMeasurementsv+0x11a>
   d4c6a:	4886      	ldr	r0, [pc, #536]	; (d4e84 <_Z16takeMeasurementsv+0x320>)
   d4c6c:	f44f 61b9 	mov.w	r1, #1480	; 0x5c8
   d4c70:	f001 fcd2 	bl	d6618 <_ZN13EnergyMonitor8calcIrmsEj>
   d4c74:	ec51 0b10 	vmov	r0, r1, d0
   d4c78:	f006 fbbe 	bl	db3f8 <__aeabi_d2f>
   d4c7c:	60e0      	str	r0, [r4, #12]
      if (sysStatus.sensorFiveConnected) sensorData.sensorFiveCurrent =  emon5.calcIrms(1480);               
   d4c7e:	f895 3020 	ldrb.w	r3, [r5, #32]
   d4c82:	b14b      	cbz	r3, d4c98 <_Z16takeMeasurementsv+0x134>
   d4c84:	4880      	ldr	r0, [pc, #512]	; (d4e88 <_Z16takeMeasurementsv+0x324>)
   d4c86:	f44f 61b9 	mov.w	r1, #1480	; 0x5c8
   d4c8a:	f001 fcc5 	bl	d6618 <_ZN13EnergyMonitor8calcIrmsEj>
   d4c8e:	ec51 0b10 	vmov	r0, r1, d0
   d4c92:	f006 fbb1 	bl	db3f8 <__aeabi_d2f>
   d4c96:	6120      	str	r0, [r4, #16]
      if (sysStatus.sensorSixConnected) sensorData.sensorSixCurrent =   emon6.calcIrms(1480);
   d4c98:	f895 3021 	ldrb.w	r3, [r5, #33]	; 0x21
   d4c9c:	b1eb      	cbz	r3, d4cda <_Z16takeMeasurementsv+0x176>
      if (sysStatus.sensorSixConnected) sensorData.sensorSixCurrent =   emon6.calcIrms(1480);  
   d4c9e:	487b      	ldr	r0, [pc, #492]	; (d4e8c <_Z16takeMeasurementsv+0x328>)
   d4ca0:	f44f 61b9 	mov.w	r1, #1480	; 0x5c8
   d4ca4:	f001 fcb8 	bl	d6618 <_ZN13EnergyMonitor8calcIrmsEj>
   d4ca8:	ec51 0b10 	vmov	r0, r1, d0
   d4cac:	f006 fba4 	bl	db3f8 <__aeabi_d2f>
   d4cb0:	6160      	str	r0, [r4, #20]
   d4cb2:	e012      	b.n	d4cda <_Z16takeMeasurementsv+0x176>
    else if ((sysStatus.operatingMode) == 2){
   d4cb4:	2802      	cmp	r0, #2
   d4cb6:	f040 808f 	bne.w	d4dd8 <_Z16takeMeasurementsv+0x274>
      Three_Phase_Monitor(3,ThreePhaseLoadOne,sensorData.I_ThreePhaseLoad_One,sensorData.P_ThreePhaseLoad_One);
   d4cba:	f104 033c 	add.w	r3, r4, #60	; 0x3c
   d4cbe:	f104 0230 	add.w	r2, r4, #48	; 0x30
   d4cc2:	4669      	mov	r1, sp
   d4cc4:	2003      	movs	r0, #3
   d4cc6:	f7ff feff 	bl	d4ac8 <_Z19Three_Phase_MonitorhPN12Load_Monitor7CT_DataEPfS2_>
      Three_Phase_Monitor(3,ThreePhaseLoadTwo,sensorData.I_ThreePhaseLoad_Two,sensorData.P_ThreePhaseLoad_Two);
   d4cca:	f104 0354 	add.w	r3, r4, #84	; 0x54
   d4cce:	f104 0248 	add.w	r2, r4, #72	; 0x48
   d4cd2:	a90c      	add	r1, sp, #48	; 0x30
   d4cd4:	2003      	movs	r0, #3
   d4cd6:	f7ff fef7 	bl	d4ac8 <_Z19Three_Phase_MonitorhPN12Load_Monitor7CT_DataEPfS2_>
    if ( ((abs(sensorData.sensorOneCurrent)-(sensorData.sensorOnePrevious)) >= 1.5) || ((abs(sensorData.sensorTwoCurrent)-(sensorData.sensorTwoPrevious)) >= 1.5) || ((abs(sensorData.sensorThreeCurrent)-(sensorData.sensorThreePrevious)) >= 1.5) || ((abs(sensorData.sensorFourCurrent)-(sensorData.sensorFourPrevious)) >= 1.5) || ((abs(sensorData.sensorFiveCurrent)-(sensorData.sensorFivePrevious)) >= 1.5) || ((abs(sensorData.sensorSixCurrent)-(sensorData.sensorSixPrevious)) >= 1.5)) {
   d4cda:	edd4 7a00 	vldr	s15, [r4]
   d4cde:	ed94 7a06 	vldr	s14, [r4, #24]
    sensorDataWriteNeeded = true;
   d4ce2:	4e6b      	ldr	r6, [pc, #428]	; (d4e90 <_Z16takeMeasurementsv+0x32c>)
    if ( ((abs(sensorData.sensorOneCurrent)-(sensorData.sensorOnePrevious)) >= 1.5) || ((abs(sensorData.sensorTwoCurrent)-(sensorData.sensorTwoPrevious)) >= 1.5) || ((abs(sensorData.sensorThreeCurrent)-(sensorData.sensorThreePrevious)) >= 1.5) || ((abs(sensorData.sensorFourCurrent)-(sensorData.sensorFourPrevious)) >= 1.5) || ((abs(sensorData.sensorFiveCurrent)-(sensorData.sensorFivePrevious)) >= 1.5) || ((abs(sensorData.sensorSixCurrent)-(sensorData.sensorSixPrevious)) >= 1.5)) {
   d4ce4:	eef5 7ac0 	vcmpe.f32	s15, #0.0
   d4ce8:	eef1 fa10 	vmrs	APSR_nzcv, fpscr
   d4cec:	bfd8      	it	le
   d4cee:	eef1 7a67 	vnegle.f32	s15, s15
   d4cf2:	ee37 7ac7 	vsub.f32	s14, s15, s14
   d4cf6:	eef7 7a08 	vmov.f32	s15, #120	; 0x3fc00000  1.5
   d4cfa:	eeb4 7ae7 	vcmpe.f32	s14, s15
    sensorDataWriteNeeded = true;
   d4cfe:	2201      	movs	r2, #1
    if ( ((abs(sensorData.sensorOneCurrent)-(sensorData.sensorOnePrevious)) >= 1.5) || ((abs(sensorData.sensorTwoCurrent)-(sensorData.sensorTwoPrevious)) >= 1.5) || ((abs(sensorData.sensorThreeCurrent)-(sensorData.sensorThreePrevious)) >= 1.5) || ((abs(sensorData.sensorFourCurrent)-(sensorData.sensorFourPrevious)) >= 1.5) || ((abs(sensorData.sensorFiveCurrent)-(sensorData.sensorFivePrevious)) >= 1.5) || ((abs(sensorData.sensorSixCurrent)-(sensorData.sensorSixPrevious)) >= 1.5)) {
   d4d00:	eef1 fa10 	vmrs	APSR_nzcv, fpscr
    sensorDataWriteNeeded = true;
   d4d04:	7032      	strb	r2, [r6, #0]
    if ( ((abs(sensorData.sensorOneCurrent)-(sensorData.sensorOnePrevious)) >= 1.5) || ((abs(sensorData.sensorTwoCurrent)-(sensorData.sensorTwoPrevious)) >= 1.5) || ((abs(sensorData.sensorThreeCurrent)-(sensorData.sensorThreePrevious)) >= 1.5) || ((abs(sensorData.sensorFourCurrent)-(sensorData.sensorFourPrevious)) >= 1.5) || ((abs(sensorData.sensorFiveCurrent)-(sensorData.sensorFivePrevious)) >= 1.5) || ((abs(sensorData.sensorSixCurrent)-(sensorData.sensorSixPrevious)) >= 1.5)) {
   d4d06:	da59      	bge.n	d4dbc <_Z16takeMeasurementsv+0x258>
   d4d08:	ed94 7a01 	vldr	s14, [r4, #4]
   d4d0c:	edd4 6a07 	vldr	s13, [r4, #28]
   d4d10:	eeb5 7ac0 	vcmpe.f32	s14, #0.0
   d4d14:	eef1 fa10 	vmrs	APSR_nzcv, fpscr
   d4d18:	bfd8      	it	le
   d4d1a:	eeb1 7a47 	vnegle.f32	s14, s14
   d4d1e:	ee37 7a66 	vsub.f32	s14, s14, s13
   d4d22:	eeb4 7ae7 	vcmpe.f32	s14, s15
   d4d26:	eef1 fa10 	vmrs	APSR_nzcv, fpscr
   d4d2a:	da47      	bge.n	d4dbc <_Z16takeMeasurementsv+0x258>
   d4d2c:	ed94 7a02 	vldr	s14, [r4, #8]
   d4d30:	edd4 6a08 	vldr	s13, [r4, #32]
   d4d34:	eeb5 7ac0 	vcmpe.f32	s14, #0.0
   d4d38:	eef1 fa10 	vmrs	APSR_nzcv, fpscr
   d4d3c:	bfd8      	it	le
   d4d3e:	eeb1 7a47 	vnegle.f32	s14, s14
   d4d42:	ee37 7a66 	vsub.f32	s14, s14, s13
   d4d46:	eeb4 7ae7 	vcmpe.f32	s14, s15
   d4d4a:	eef1 fa10 	vmrs	APSR_nzcv, fpscr
   d4d4e:	da35      	bge.n	d4dbc <_Z16takeMeasurementsv+0x258>
   d4d50:	ed94 7a03 	vldr	s14, [r4, #12]
   d4d54:	edd4 6a09 	vldr	s13, [r4, #36]	; 0x24
   d4d58:	eeb5 7ac0 	vcmpe.f32	s14, #0.0
   d4d5c:	eef1 fa10 	vmrs	APSR_nzcv, fpscr
   d4d60:	bfd8      	it	le
   d4d62:	eeb1 7a47 	vnegle.f32	s14, s14
   d4d66:	ee37 7a66 	vsub.f32	s14, s14, s13
   d4d6a:	eeb4 7ae7 	vcmpe.f32	s14, s15
   d4d6e:	eef1 fa10 	vmrs	APSR_nzcv, fpscr
   d4d72:	da23      	bge.n	d4dbc <_Z16takeMeasurementsv+0x258>
   d4d74:	ed94 7a04 	vldr	s14, [r4, #16]
   d4d78:	edd4 6a0a 	vldr	s13, [r4, #40]	; 0x28
   d4d7c:	eeb5 7ac0 	vcmpe.f32	s14, #0.0
   d4d80:	eef1 fa10 	vmrs	APSR_nzcv, fpscr
   d4d84:	bfd8      	it	le
   d4d86:	eeb1 7a47 	vnegle.f32	s14, s14
   d4d8a:	ee37 7a66 	vsub.f32	s14, s14, s13
   d4d8e:	eeb4 7ae7 	vcmpe.f32	s14, s15
   d4d92:	eef1 fa10 	vmrs	APSR_nzcv, fpscr
   d4d96:	da11      	bge.n	d4dbc <_Z16takeMeasurementsv+0x258>
   d4d98:	ed94 7a05 	vldr	s14, [r4, #20]
   d4d9c:	edd4 6a0b 	vldr	s13, [r4, #44]	; 0x2c
   d4da0:	eeb5 7ac0 	vcmpe.f32	s14, #0.0
   d4da4:	eef1 fa10 	vmrs	APSR_nzcv, fpscr
   d4da8:	bfd8      	it	le
   d4daa:	eeb1 7a47 	vnegle.f32	s14, s14
   d4dae:	ee37 7a66 	vsub.f32	s14, s14, s13
   d4db2:	eeb4 7ae7 	vcmpe.f32	s14, s15
   d4db6:	eef1 fa10 	vmrs	APSR_nzcv, fpscr
   d4dba:	db48      	blt.n	d4e4e <_Z16takeMeasurementsv+0x2ea>
      sensorData.validData = true;
   d4dbc:	2501      	movs	r5, #1
   d4dbe:	f884 5088 	strb.w	r5, [r4, #136]	; 0x88
      sensorData.timeStamp = Time.now();
   d4dc2:	f005 fa6a 	bl	da29a <_ZN9TimeClass3nowEv>
      sensorDataWriteNeeded = true;
   d4dc6:	7035      	strb	r5, [r6, #0]
      sensorData.timeStamp = Time.now();
   d4dc8:	f8c4 0080 	str.w	r0, [r4, #128]	; 0x80
      return 1;
   d4dcc:	4628      	mov	r0, r5
  }
   d4dce:	b028      	add	sp, #160	; 0xa0
   d4dd0:	ecbd 8b06 	vpop	{d8-d10}
   d4dd4:	e8bd 87f0 	ldmia.w	sp!, {r4, r5, r6, r7, r8, r9, sl, pc}
    else if (sysStatus.operatingMode == 3){
   d4dd8:	2803      	cmp	r0, #3
   d4dda:	d12a      	bne.n	d4e32 <_Z16takeMeasurementsv+0x2ce>
      Three_Phase_Monitor(3,ThreePhaseLoadOne,sensorData.I_ThreePhaseLoad_One,sensorData.P_ThreePhaseLoad_One);
   d4ddc:	f104 033c 	add.w	r3, r4, #60	; 0x3c
   d4de0:	f104 0230 	add.w	r2, r4, #48	; 0x30
   d4de4:	4669      	mov	r1, sp
   d4de6:	f7ff fe6f 	bl	d4ac8 <_Z19Three_Phase_MonitorhPN12Load_Monitor7CT_DataEPfS2_>
      if (sysStatus.sensorFourConnected) sensorData.sensorFourCurrent =  emon4.calcIrms(1480); 
   d4dea:	7feb      	ldrb	r3, [r5, #31]
   d4dec:	b1f3      	cbz	r3, d4e2c <_Z16takeMeasurementsv+0x2c8>
   d4dee:	4825      	ldr	r0, [pc, #148]	; (d4e84 <_Z16takeMeasurementsv+0x320>)
   d4df0:	f44f 61b9 	mov.w	r1, #1480	; 0x5c8
   d4df4:	f001 fc10 	bl	d6618 <_ZN13EnergyMonitor8calcIrmsEj>
   d4df8:	ec51 0b10 	vmov	r0, r1, d0
   d4dfc:	f006 fafc 	bl	db3f8 <__aeabi_d2f>
   d4e00:	60e0      	str	r0, [r4, #12]
      if (sysStatus.sensorFiveConnected) sensorData.sensorFiveCurrent =  emon5.calcIrms(1480);       
   d4e02:	f895 3020 	ldrb.w	r3, [r5, #32]
   d4e06:	b1fb      	cbz	r3, d4e48 <_Z16takeMeasurementsv+0x2e4>
   d4e08:	481f      	ldr	r0, [pc, #124]	; (d4e88 <_Z16takeMeasurementsv+0x324>)
   d4e0a:	f44f 61b9 	mov.w	r1, #1480	; 0x5c8
   d4e0e:	f001 fc03 	bl	d6618 <_ZN13EnergyMonitor8calcIrmsEj>
   d4e12:	ec51 0b10 	vmov	r0, r1, d0
   d4e16:	f006 faef 	bl	db3f8 <__aeabi_d2f>
   d4e1a:	6120      	str	r0, [r4, #16]
      if (sysStatus.sensorSixConnected) sensorData.sensorSixCurrent =   emon6.calcIrms(1480);  
   d4e1c:	f895 3021 	ldrb.w	r3, [r5, #33]	; 0x21
   d4e20:	2b00      	cmp	r3, #0
   d4e22:	f47f af3c 	bne.w	d4c9e <_Z16takeMeasurementsv+0x13a>
      else sensorData.sensorSixCurrent=0;
   d4e26:	2300      	movs	r3, #0
   d4e28:	6163      	str	r3, [r4, #20]
   d4e2a:	e756      	b.n	d4cda <_Z16takeMeasurementsv+0x176>
      else sensorData.sensorFourCurrent=0;
   d4e2c:	2300      	movs	r3, #0
   d4e2e:	60e3      	str	r3, [r4, #12]
      if (sysStatus.sensorFiveConnected) sensorData.sensorFiveCurrent =  emon5.calcIrms(1480);    
   d4e30:	e7e7      	b.n	d4e02 <_Z16takeMeasurementsv+0x29e>
    else if (sysStatus.operatingMode == 4){
   d4e32:	2804      	cmp	r0, #4
   d4e34:	f47f af51 	bne.w	d4cda <_Z16takeMeasurementsv+0x176>
      Three_Phase_Monitor(4,ThreePhaseLoadFourWires,sensorData.Four_ThreePhaseLoad_I,sensorData.Four_ThreePhaseLoad_P);
   d4e38:	f104 0370 	add.w	r3, r4, #112	; 0x70
   d4e3c:	f104 0260 	add.w	r2, r4, #96	; 0x60
   d4e40:	a918      	add	r1, sp, #96	; 0x60
   d4e42:	f7ff fe41 	bl	d4ac8 <_Z19Three_Phase_MonitorhPN12Load_Monitor7CT_DataEPfS2_>
   d4e46:	e7dc      	b.n	d4e02 <_Z16takeMeasurementsv+0x29e>
      else sensorData.sensorFiveCurrent=0;                  
   d4e48:	2300      	movs	r3, #0
   d4e4a:	6123      	str	r3, [r4, #16]
   d4e4c:	e7e6      	b.n	d4e1c <_Z16takeMeasurementsv+0x2b8>
      } else return 0;
   d4e4e:	2000      	movs	r0, #0
   d4e50:	e7bd      	b.n	d4dce <_Z16takeMeasurementsv+0x26a>
   d4e52:	bf00      	nop
   d4e54:	2003e428 	.word	0x2003e428
   d4e58:	2003dc20 	.word	0x2003dc20
   d4e5c:	2003dc21 	.word	0x2003dc21
   d4e60:	2003dc22 	.word	0x2003dc22
   d4e64:	2003dc23 	.word	0x2003dc23
   d4e68:	2003dc24 	.word	0x2003dc24
   d4e6c:	2003dc25 	.word	0x2003dc25
   d4e70:	2003e440 	.word	0x2003e440
   d4e74:	2003e590 	.word	0x2003e590
   d4e78:	2003df50 	.word	0x2003df50
   d4e7c:	2003e008 	.word	0x2003e008
   d4e80:	2003e0c0 	.word	0x2003e0c0
   d4e84:	2003e178 	.word	0x2003e178
   d4e88:	2003e230 	.word	0x2003e230
   d4e8c:	2003e2e8 	.word	0x2003e2e8
   d4e90:	2003e4cc 	.word	0x2003e4cc

000d4e94 <_Z11loadEmonlibv>:
void loadEmonlib(){
   d4e94:	b510      	push	{r4, lr}
  emon1.current(CT1_PIN,sensorConstants.sensorOneConstant);
   d4e96:	4c20      	ldr	r4, [pc, #128]	; (d4f18 <_Z11loadEmonlibv+0x84>)
   d4e98:	6820      	ldr	r0, [r4, #0]
   d4e9a:	f005 ff85 	bl	dada8 <__aeabi_f2d>
   d4e9e:	4b1f      	ldr	r3, [pc, #124]	; (d4f1c <_Z11loadEmonlibv+0x88>)
   d4ea0:	ec41 0b10 	vmov	d0, r0, r1
   d4ea4:	7819      	ldrb	r1, [r3, #0]
   d4ea6:	481e      	ldr	r0, [pc, #120]	; (d4f20 <_Z11loadEmonlibv+0x8c>)
   d4ea8:	f001 fbaa 	bl	d6600 <_ZN13EnergyMonitor7currentEjd>
  emon2.current(CT2_PIN,sensorConstants.sensorTwoConstant);
   d4eac:	6860      	ldr	r0, [r4, #4]
   d4eae:	f005 ff7b 	bl	dada8 <__aeabi_f2d>
   d4eb2:	4b1c      	ldr	r3, [pc, #112]	; (d4f24 <_Z11loadEmonlibv+0x90>)
   d4eb4:	ec41 0b10 	vmov	d0, r0, r1
   d4eb8:	7819      	ldrb	r1, [r3, #0]
   d4eba:	481b      	ldr	r0, [pc, #108]	; (d4f28 <_Z11loadEmonlibv+0x94>)
   d4ebc:	f001 fba0 	bl	d6600 <_ZN13EnergyMonitor7currentEjd>
  emon3.current(CT3_PIN,sensorConstants.sensorThreeConstant);
   d4ec0:	68a0      	ldr	r0, [r4, #8]
   d4ec2:	f005 ff71 	bl	dada8 <__aeabi_f2d>
   d4ec6:	4b19      	ldr	r3, [pc, #100]	; (d4f2c <_Z11loadEmonlibv+0x98>)
   d4ec8:	ec41 0b10 	vmov	d0, r0, r1
   d4ecc:	7819      	ldrb	r1, [r3, #0]
   d4ece:	4818      	ldr	r0, [pc, #96]	; (d4f30 <_Z11loadEmonlibv+0x9c>)
   d4ed0:	f001 fb96 	bl	d6600 <_ZN13EnergyMonitor7currentEjd>
  emon4.current(CT4_PIN,sensorConstants.sensorFourConstant);
   d4ed4:	68e0      	ldr	r0, [r4, #12]
   d4ed6:	f005 ff67 	bl	dada8 <__aeabi_f2d>
   d4eda:	4b16      	ldr	r3, [pc, #88]	; (d4f34 <_Z11loadEmonlibv+0xa0>)
   d4edc:	ec41 0b10 	vmov	d0, r0, r1
   d4ee0:	7819      	ldrb	r1, [r3, #0]
   d4ee2:	4815      	ldr	r0, [pc, #84]	; (d4f38 <_Z11loadEmonlibv+0xa4>)
   d4ee4:	f001 fb8c 	bl	d6600 <_ZN13EnergyMonitor7currentEjd>
  emon5.current(CT5_PIN,sensorConstants.sensorFiveConstant);
   d4ee8:	6920      	ldr	r0, [r4, #16]
   d4eea:	f005 ff5d 	bl	dada8 <__aeabi_f2d>
   d4eee:	4b13      	ldr	r3, [pc, #76]	; (d4f3c <_Z11loadEmonlibv+0xa8>)
   d4ef0:	ec41 0b10 	vmov	d0, r0, r1
   d4ef4:	7819      	ldrb	r1, [r3, #0]
   d4ef6:	4812      	ldr	r0, [pc, #72]	; (d4f40 <_Z11loadEmonlibv+0xac>)
   d4ef8:	f001 fb82 	bl	d6600 <_ZN13EnergyMonitor7currentEjd>
  emon6.current(CT6_PIN,sensorConstants.sensorSixConstant);
   d4efc:	6960      	ldr	r0, [r4, #20]
   d4efe:	f005 ff53 	bl	dada8 <__aeabi_f2d>
   d4f02:	4b10      	ldr	r3, [pc, #64]	; (d4f44 <_Z11loadEmonlibv+0xb0>)
   d4f04:	ec41 0b10 	vmov	d0, r0, r1
   d4f08:	7819      	ldrb	r1, [r3, #0]
   d4f0a:	480f      	ldr	r0, [pc, #60]	; (d4f48 <_Z11loadEmonlibv+0xb4>)
   d4f0c:	f001 fb78 	bl	d6600 <_ZN13EnergyMonitor7currentEjd>
  constantsStatusWriteNeeded = true;
   d4f10:	4b0e      	ldr	r3, [pc, #56]	; (d4f4c <_Z11loadEmonlibv+0xb8>)
   d4f12:	2201      	movs	r2, #1
   d4f14:	701a      	strb	r2, [r3, #0]
}
   d4f16:	bd10      	pop	{r4, pc}
   d4f18:	2003e428 	.word	0x2003e428
   d4f1c:	2003dc20 	.word	0x2003dc20
   d4f20:	2003df50 	.word	0x2003df50
   d4f24:	2003dc21 	.word	0x2003dc21
   d4f28:	2003e008 	.word	0x2003e008
   d4f2c:	2003dc22 	.word	0x2003dc22
   d4f30:	2003e0c0 	.word	0x2003e0c0
   d4f34:	2003dc23 	.word	0x2003dc23
   d4f38:	2003e178 	.word	0x2003e178
   d4f3c:	2003dc24 	.word	0x2003dc24
   d4f40:	2003e230 	.word	0x2003e230
   d4f44:	2003dc25 	.word	0x2003dc25
   d4f48:	2003e2e8 	.word	0x2003e2e8
   d4f4c:	2003df4e 	.word	0x2003df4e

000d4f50 <_Z20updateConstantValuesv>:
{   
   d4f50:	b513      	push	{r0, r1, r4, lr}
    snprintf(sensorOneConstantStr,sizeof(sensorOneConstantStr),"CT One: %3.1f", sensorConstants.sensorOneConstant);
   d4f52:	4c22      	ldr	r4, [pc, #136]	; (d4fdc <_Z20updateConstantValuesv+0x8c>)
   d4f54:	6820      	ldr	r0, [r4, #0]
   d4f56:	f005 ff27 	bl	dada8 <__aeabi_f2d>
   d4f5a:	4a21      	ldr	r2, [pc, #132]	; (d4fe0 <_Z20updateConstantValuesv+0x90>)
   d4f5c:	e9cd 0100 	strd	r0, r1, [sp]
   d4f60:	2120      	movs	r1, #32
   d4f62:	4820      	ldr	r0, [pc, #128]	; (d4fe4 <_Z20updateConstantValuesv+0x94>)
   d4f64:	f003 fd7c 	bl	d8a60 <snprintf>
    snprintf(sensorTwoConstantStr,sizeof(sensorTwoConstantStr),"CT Two %3.1f", sensorConstants.sensorTwoConstant);
   d4f68:	6860      	ldr	r0, [r4, #4]
   d4f6a:	f005 ff1d 	bl	dada8 <__aeabi_f2d>
   d4f6e:	4a1e      	ldr	r2, [pc, #120]	; (d4fe8 <_Z20updateConstantValuesv+0x98>)
   d4f70:	e9cd 0100 	strd	r0, r1, [sp]
   d4f74:	2120      	movs	r1, #32
   d4f76:	481d      	ldr	r0, [pc, #116]	; (d4fec <_Z20updateConstantValuesv+0x9c>)
   d4f78:	f003 fd72 	bl	d8a60 <snprintf>
    snprintf(sensorThreeConstantStr,sizeof(sensorThreeConstantStr),"CT Three: %3.1f", sensorConstants.sensorThreeConstant);
   d4f7c:	68a0      	ldr	r0, [r4, #8]
   d4f7e:	f005 ff13 	bl	dada8 <__aeabi_f2d>
   d4f82:	4a1b      	ldr	r2, [pc, #108]	; (d4ff0 <_Z20updateConstantValuesv+0xa0>)
   d4f84:	e9cd 0100 	strd	r0, r1, [sp]
   d4f88:	2120      	movs	r1, #32
   d4f8a:	481a      	ldr	r0, [pc, #104]	; (d4ff4 <_Z20updateConstantValuesv+0xa4>)
   d4f8c:	f003 fd68 	bl	d8a60 <snprintf>
    snprintf(sensorFourConstantStr,sizeof(sensorFourConstantStr),"Sensor Four Constant : %3.1f", sensorConstants.sensorFourConstant);
   d4f90:	68e0      	ldr	r0, [r4, #12]
   d4f92:	f005 ff09 	bl	dada8 <__aeabi_f2d>
   d4f96:	4a18      	ldr	r2, [pc, #96]	; (d4ff8 <_Z20updateConstantValuesv+0xa8>)
   d4f98:	e9cd 0100 	strd	r0, r1, [sp]
   d4f9c:	2120      	movs	r1, #32
   d4f9e:	4817      	ldr	r0, [pc, #92]	; (d4ffc <_Z20updateConstantValuesv+0xac>)
   d4fa0:	f003 fd5e 	bl	d8a60 <snprintf>
    snprintf(sensorFiveConstantStr,sizeof(sensorFiveConstantStr),"Sensor Five Constant : %3.1f", sensorConstants.sensorFiveConstant);
   d4fa4:	6920      	ldr	r0, [r4, #16]
   d4fa6:	f005 feff 	bl	dada8 <__aeabi_f2d>
   d4faa:	4a15      	ldr	r2, [pc, #84]	; (d5000 <_Z20updateConstantValuesv+0xb0>)
   d4fac:	e9cd 0100 	strd	r0, r1, [sp]
   d4fb0:	2120      	movs	r1, #32
   d4fb2:	4814      	ldr	r0, [pc, #80]	; (d5004 <_Z20updateConstantValuesv+0xb4>)
   d4fb4:	f003 fd54 	bl	d8a60 <snprintf>
    snprintf(sensorSixConstantStr,sizeof(sensorSixConstantStr),"Sensor Six Constant : %3.1f", sensorConstants.sensorSixConstant);
   d4fb8:	6960      	ldr	r0, [r4, #20]
   d4fba:	f005 fef5 	bl	dada8 <__aeabi_f2d>
   d4fbe:	4a12      	ldr	r2, [pc, #72]	; (d5008 <_Z20updateConstantValuesv+0xb8>)
   d4fc0:	e9cd 0100 	strd	r0, r1, [sp]
   d4fc4:	2120      	movs	r1, #32
   d4fc6:	4811      	ldr	r0, [pc, #68]	; (d500c <_Z20updateConstantValuesv+0xbc>)
   d4fc8:	f003 fd4a 	bl	d8a60 <snprintf>
    loadEmonlib();
   d4fcc:	f7ff ff62 	bl	d4e94 <_Z11loadEmonlibv>
    constantsStatusWriteNeeded = true;                                                         // This function is called when there is a change so, we need to update the FRAM
   d4fd0:	4b0f      	ldr	r3, [pc, #60]	; (d5010 <_Z20updateConstantValuesv+0xc0>)
   d4fd2:	2201      	movs	r2, #1
   d4fd4:	701a      	strb	r2, [r3, #0]
} 
   d4fd6:	b002      	add	sp, #8
   d4fd8:	bd10      	pop	{r4, pc}
   d4fda:	bf00      	nop
   d4fdc:	2003e428 	.word	0x2003e428
   d4fe0:	000dd6be 	.word	0x000dd6be
   d4fe4:	2003e50d 	.word	0x2003e50d
   d4fe8:	000dd6cc 	.word	0x000dd6cc
   d4fec:	2003e56d 	.word	0x2003e56d
   d4ff0:	000dd6d9 	.word	0x000dd6d9
   d4ff4:	2003e54d 	.word	0x2003e54d
   d4ff8:	000dd6e9 	.word	0x000dd6e9
   d4ffc:	2003e4ed 	.word	0x2003e4ed
   d5000:	000dd706 	.word	0x000dd706
   d5004:	2003e4cd 	.word	0x2003e4cd
   d5008:	000dd723 	.word	0x000dd723
   d500c:	2003e52d 	.word	0x2003e52d
   d5010:	2003df4e 	.word	0x2003df4e

000d5014 <_Z14setConstantOne6String>:
int setConstantOne(String command){
   d5014:	b500      	push	{lr}
   d5016:	b089      	sub	sp, #36	; 0x24
   d5018:	9003      	str	r0, [sp, #12]
  sensorConstants.sensorOneConstant = command.toFloat();
   d501a:	f004 ff79 	bl	d9f10 <_ZNK6String7toFloatEv>
   d501e:	4b0d      	ldr	r3, [pc, #52]	; (d5054 <_Z14setConstantOne6String+0x40>)
  publishQueue.publish("Constant One Value set to ",String(command),PRIVATE);
   d5020:	9903      	ldr	r1, [sp, #12]
  sensorConstants.sensorOneConstant = command.toFloat();
   d5022:	ed83 0a00 	vstr	s0, [r3]
  publishQueue.publish("Constant One Value set to ",String(command),PRIVATE);
   d5026:	a804      	add	r0, sp, #16
   d5028:	f004 ff04 	bl	d9e34 <_ZN6StringC1ERKS_>
   d502c:	2300      	movs	r3, #0
   d502e:	f88d 3000 	strb.w	r3, [sp]
   d5032:	4b09      	ldr	r3, [pc, #36]	; (d5058 <_Z14setConstantOne6String+0x44>)
   d5034:	9a04      	ldr	r2, [sp, #16]
   d5036:	781b      	ldrb	r3, [r3, #0]
   d5038:	4908      	ldr	r1, [pc, #32]	; (d505c <_Z14setConstantOne6String+0x48>)
   d503a:	4809      	ldr	r0, [pc, #36]	; (d5060 <_Z14setConstantOne6String+0x4c>)
   d503c:	f7ff fa03 	bl	d4446 <_ZN21PublishQueueAsyncBase7publishEPKcS1_N8particle5FlagsI15PublishFlagTypehEES5_>
   d5040:	a804      	add	r0, sp, #16
   d5042:	f004 fe89 	bl	d9d58 <_ZN6StringD1Ev>
  updateConstantValues();
   d5046:	f7ff ff83 	bl	d4f50 <_Z20updateConstantValuesv>
}
   d504a:	2001      	movs	r0, #1
   d504c:	b009      	add	sp, #36	; 0x24
   d504e:	f85d fb04 	ldr.w	pc, [sp], #4
   d5052:	bf00      	nop
   d5054:	2003e428 	.word	0x2003e428
   d5058:	2003df2d 	.word	0x2003df2d
   d505c:	000dd73f 	.word	0x000dd73f
   d5060:	2003e3d0 	.word	0x2003e3d0

000d5064 <_Z14setConstantTwo6String>:
int setConstantTwo(String command){
   d5064:	b500      	push	{lr}
   d5066:	b089      	sub	sp, #36	; 0x24
   d5068:	9003      	str	r0, [sp, #12]
  sensorConstants.sensorTwoConstant = command.toFloat();
   d506a:	f004 ff51 	bl	d9f10 <_ZNK6String7toFloatEv>
   d506e:	4b0d      	ldr	r3, [pc, #52]	; (d50a4 <_Z14setConstantTwo6String+0x40>)
  publishQueue.publish("Constant Two Value set to ",String(command),PRIVATE);
   d5070:	9903      	ldr	r1, [sp, #12]
  sensorConstants.sensorTwoConstant = command.toFloat();
   d5072:	ed83 0a01 	vstr	s0, [r3, #4]
  publishQueue.publish("Constant Two Value set to ",String(command),PRIVATE);
   d5076:	a804      	add	r0, sp, #16
   d5078:	f004 fedc 	bl	d9e34 <_ZN6StringC1ERKS_>
   d507c:	2300      	movs	r3, #0
   d507e:	f88d 3000 	strb.w	r3, [sp]
   d5082:	4b09      	ldr	r3, [pc, #36]	; (d50a8 <_Z14setConstantTwo6String+0x44>)
   d5084:	9a04      	ldr	r2, [sp, #16]
   d5086:	781b      	ldrb	r3, [r3, #0]
   d5088:	4908      	ldr	r1, [pc, #32]	; (d50ac <_Z14setConstantTwo6String+0x48>)
   d508a:	4809      	ldr	r0, [pc, #36]	; (d50b0 <_Z14setConstantTwo6String+0x4c>)
   d508c:	f7ff f9db 	bl	d4446 <_ZN21PublishQueueAsyncBase7publishEPKcS1_N8particle5FlagsI15PublishFlagTypehEES5_>
   d5090:	a804      	add	r0, sp, #16
   d5092:	f004 fe61 	bl	d9d58 <_ZN6StringD1Ev>
  updateConstantValues();
   d5096:	f7ff ff5b 	bl	d4f50 <_Z20updateConstantValuesv>
}
   d509a:	2001      	movs	r0, #1
   d509c:	b009      	add	sp, #36	; 0x24
   d509e:	f85d fb04 	ldr.w	pc, [sp], #4
   d50a2:	bf00      	nop
   d50a4:	2003e428 	.word	0x2003e428
   d50a8:	2003df2d 	.word	0x2003df2d
   d50ac:	000dd75a 	.word	0x000dd75a
   d50b0:	2003e3d0 	.word	0x2003e3d0

000d50b4 <_Z16setConstantThree6String>:
int setConstantThree(String command){
   d50b4:	b500      	push	{lr}
   d50b6:	b089      	sub	sp, #36	; 0x24
   d50b8:	9003      	str	r0, [sp, #12]
  sensorConstants.sensorThreeConstant = command.toFloat();
   d50ba:	f004 ff29 	bl	d9f10 <_ZNK6String7toFloatEv>
   d50be:	4b0d      	ldr	r3, [pc, #52]	; (d50f4 <_Z16setConstantThree6String+0x40>)
  publishQueue.publish("Constant Three Value set to ",String(command),PRIVATE);
   d50c0:	9903      	ldr	r1, [sp, #12]
  sensorConstants.sensorThreeConstant = command.toFloat();
   d50c2:	ed83 0a02 	vstr	s0, [r3, #8]
  publishQueue.publish("Constant Three Value set to ",String(command),PRIVATE);
   d50c6:	a804      	add	r0, sp, #16
   d50c8:	f004 feb4 	bl	d9e34 <_ZN6StringC1ERKS_>
   d50cc:	2300      	movs	r3, #0
   d50ce:	f88d 3000 	strb.w	r3, [sp]
   d50d2:	4b09      	ldr	r3, [pc, #36]	; (d50f8 <_Z16setConstantThree6String+0x44>)
   d50d4:	9a04      	ldr	r2, [sp, #16]
   d50d6:	781b      	ldrb	r3, [r3, #0]
   d50d8:	4908      	ldr	r1, [pc, #32]	; (d50fc <_Z16setConstantThree6String+0x48>)
   d50da:	4809      	ldr	r0, [pc, #36]	; (d5100 <_Z16setConstantThree6String+0x4c>)
   d50dc:	f7ff f9b3 	bl	d4446 <_ZN21PublishQueueAsyncBase7publishEPKcS1_N8particle5FlagsI15PublishFlagTypehEES5_>
   d50e0:	a804      	add	r0, sp, #16
   d50e2:	f004 fe39 	bl	d9d58 <_ZN6StringD1Ev>
  updateConstantValues();
   d50e6:	f7ff ff33 	bl	d4f50 <_Z20updateConstantValuesv>
}
   d50ea:	2001      	movs	r0, #1
   d50ec:	b009      	add	sp, #36	; 0x24
   d50ee:	f85d fb04 	ldr.w	pc, [sp], #4
   d50f2:	bf00      	nop
   d50f4:	2003e428 	.word	0x2003e428
   d50f8:	2003df2d 	.word	0x2003df2d
   d50fc:	000dd775 	.word	0x000dd775
   d5100:	2003e3d0 	.word	0x2003e3d0

000d5104 <_Z15setConstantFour6String>:
int setConstantFour(String command){
   d5104:	b500      	push	{lr}
   d5106:	b089      	sub	sp, #36	; 0x24
   d5108:	9003      	str	r0, [sp, #12]
  sensorConstants.sensorFourConstant = command.toFloat();
   d510a:	f004 ff01 	bl	d9f10 <_ZNK6String7toFloatEv>
   d510e:	4b0d      	ldr	r3, [pc, #52]	; (d5144 <_Z15setConstantFour6String+0x40>)
  publishQueue.publish("Constant Four Value set to ",String(command),PRIVATE);
   d5110:	9903      	ldr	r1, [sp, #12]
  sensorConstants.sensorFourConstant = command.toFloat();
   d5112:	ed83 0a03 	vstr	s0, [r3, #12]
  publishQueue.publish("Constant Four Value set to ",String(command),PRIVATE);
   d5116:	a804      	add	r0, sp, #16
   d5118:	f004 fe8c 	bl	d9e34 <_ZN6StringC1ERKS_>
   d511c:	2300      	movs	r3, #0
   d511e:	f88d 3000 	strb.w	r3, [sp]
   d5122:	4b09      	ldr	r3, [pc, #36]	; (d5148 <_Z15setConstantFour6String+0x44>)
   d5124:	9a04      	ldr	r2, [sp, #16]
   d5126:	781b      	ldrb	r3, [r3, #0]
   d5128:	4908      	ldr	r1, [pc, #32]	; (d514c <_Z15setConstantFour6String+0x48>)
   d512a:	4809      	ldr	r0, [pc, #36]	; (d5150 <_Z15setConstantFour6String+0x4c>)
   d512c:	f7ff f98b 	bl	d4446 <_ZN21PublishQueueAsyncBase7publishEPKcS1_N8particle5FlagsI15PublishFlagTypehEES5_>
   d5130:	a804      	add	r0, sp, #16
   d5132:	f004 fe11 	bl	d9d58 <_ZN6StringD1Ev>
  updateConstantValues();
   d5136:	f7ff ff0b 	bl	d4f50 <_Z20updateConstantValuesv>
}
   d513a:	2001      	movs	r0, #1
   d513c:	b009      	add	sp, #36	; 0x24
   d513e:	f85d fb04 	ldr.w	pc, [sp], #4
   d5142:	bf00      	nop
   d5144:	2003e428 	.word	0x2003e428
   d5148:	2003df2d 	.word	0x2003df2d
   d514c:	000dd792 	.word	0x000dd792
   d5150:	2003e3d0 	.word	0x2003e3d0

000d5154 <_Z15setConstantFive6String>:
int setConstantFive(String command){
   d5154:	b500      	push	{lr}
   d5156:	b089      	sub	sp, #36	; 0x24
   d5158:	9003      	str	r0, [sp, #12]
  sensorConstants.sensorFiveConstant = command.toFloat();
   d515a:	f004 fed9 	bl	d9f10 <_ZNK6String7toFloatEv>
   d515e:	4b0d      	ldr	r3, [pc, #52]	; (d5194 <_Z15setConstantFive6String+0x40>)
  publishQueue.publish("Constant Five Value set to ",String(command),PRIVATE);
   d5160:	9903      	ldr	r1, [sp, #12]
  sensorConstants.sensorFiveConstant = command.toFloat();
   d5162:	ed83 0a04 	vstr	s0, [r3, #16]
  publishQueue.publish("Constant Five Value set to ",String(command),PRIVATE);
   d5166:	a804      	add	r0, sp, #16
   d5168:	f004 fe64 	bl	d9e34 <_ZN6StringC1ERKS_>
   d516c:	2300      	movs	r3, #0
   d516e:	f88d 3000 	strb.w	r3, [sp]
   d5172:	4b09      	ldr	r3, [pc, #36]	; (d5198 <_Z15setConstantFive6String+0x44>)
   d5174:	9a04      	ldr	r2, [sp, #16]
   d5176:	781b      	ldrb	r3, [r3, #0]
   d5178:	4908      	ldr	r1, [pc, #32]	; (d519c <_Z15setConstantFive6String+0x48>)
   d517a:	4809      	ldr	r0, [pc, #36]	; (d51a0 <_Z15setConstantFive6String+0x4c>)
   d517c:	f7ff f963 	bl	d4446 <_ZN21PublishQueueAsyncBase7publishEPKcS1_N8particle5FlagsI15PublishFlagTypehEES5_>
   d5180:	a804      	add	r0, sp, #16
   d5182:	f004 fde9 	bl	d9d58 <_ZN6StringD1Ev>
  updateConstantValues();
   d5186:	f7ff fee3 	bl	d4f50 <_Z20updateConstantValuesv>
}
   d518a:	2001      	movs	r0, #1
   d518c:	b009      	add	sp, #36	; 0x24
   d518e:	f85d fb04 	ldr.w	pc, [sp], #4
   d5192:	bf00      	nop
   d5194:	2003e428 	.word	0x2003e428
   d5198:	2003df2d 	.word	0x2003df2d
   d519c:	000dd7ae 	.word	0x000dd7ae
   d51a0:	2003e3d0 	.word	0x2003e3d0

000d51a4 <_Z14setConstantSix6String>:
int setConstantSix(String command){
   d51a4:	b500      	push	{lr}
   d51a6:	b089      	sub	sp, #36	; 0x24
   d51a8:	9003      	str	r0, [sp, #12]
  sensorConstants.sensorSixConstant = command.toFloat();
   d51aa:	f004 feb1 	bl	d9f10 <_ZNK6String7toFloatEv>
   d51ae:	4b0d      	ldr	r3, [pc, #52]	; (d51e4 <_Z14setConstantSix6String+0x40>)
  publishQueue.publish("Constant Six Value set to ",String(command),PRIVATE);
   d51b0:	9903      	ldr	r1, [sp, #12]
  sensorConstants.sensorSixConstant = command.toFloat();
   d51b2:	ed83 0a05 	vstr	s0, [r3, #20]
  publishQueue.publish("Constant Six Value set to ",String(command),PRIVATE);
   d51b6:	a804      	add	r0, sp, #16
   d51b8:	f004 fe3c 	bl	d9e34 <_ZN6StringC1ERKS_>
   d51bc:	2300      	movs	r3, #0
   d51be:	f88d 3000 	strb.w	r3, [sp]
   d51c2:	4b09      	ldr	r3, [pc, #36]	; (d51e8 <_Z14setConstantSix6String+0x44>)
   d51c4:	9a04      	ldr	r2, [sp, #16]
   d51c6:	781b      	ldrb	r3, [r3, #0]
   d51c8:	4908      	ldr	r1, [pc, #32]	; (d51ec <_Z14setConstantSix6String+0x48>)
   d51ca:	4809      	ldr	r0, [pc, #36]	; (d51f0 <_Z14setConstantSix6String+0x4c>)
   d51cc:	f7ff f93b 	bl	d4446 <_ZN21PublishQueueAsyncBase7publishEPKcS1_N8particle5FlagsI15PublishFlagTypehEES5_>
   d51d0:	a804      	add	r0, sp, #16
   d51d2:	f004 fdc1 	bl	d9d58 <_ZN6StringD1Ev>
  updateConstantValues();
   d51d6:	f7ff febb 	bl	d4f50 <_Z20updateConstantValuesv>
}
   d51da:	2001      	movs	r0, #1
   d51dc:	b009      	add	sp, #36	; 0x24
   d51de:	f85d fb04 	ldr.w	pc, [sp], #4
   d51e2:	bf00      	nop
   d51e4:	2003e428 	.word	0x2003e428
   d51e8:	2003df2d 	.word	0x2003df2d
   d51ec:	000dd7ca 	.word	0x000dd7ca
   d51f0:	2003e3d0 	.word	0x2003e3d0

000d51f4 <_Z17sendConfigurationv>:
  }
  else return 0;
}

// This function is used for onsite checking and debugging. It sends device configuration as json data. 
void sendConfiguration(){
   d51f4:	b5f0      	push	{r4, r5, r6, r7, lr}
   d51f6:	f5ad 7d0d 	sub.w	sp, sp, #564	; 0x234
  char data[512];
  memset(data, 0, sizeof(data));
   d51fa:	f44f 7400 	mov.w	r4, #512	; 0x200
   d51fe:	ae0c      	add	r6, sp, #48	; 0x30
   d5200:	4622      	mov	r2, r4
   d5202:	2100      	movs	r1, #0
   d5204:	4630      	mov	r0, r6
   d5206:	f006 f9db 	bl	db5c0 <memset>
        state_(BEGIN) {
   d520a:	2300      	movs	r3, #0

// spark::JSONBufferWriter
inline spark::JSONBufferWriter::JSONBufferWriter(char *buf, size_t size) :
        buf_(buf),
        bufSize_(size),
        n_(0) {
   d520c:	4aa8      	ldr	r2, [pc, #672]	; (d54b0 <_Z17sendConfigurationv+0x2bc>)
        state_(BEGIN) {
   d520e:	f88d 3020 	strb.w	r3, [sp, #32]
  JSONBufferWriter writer(data, sizeof(data));
  writer.beginObject();
   d5212:	a807      	add	r0, sp, #28
        n_(0) {
   d5214:	9207      	str	r2, [sp, #28]
   d5216:	930b      	str	r3, [sp, #44]	; 0x2c
   d5218:	e9cd 6409 	strd	r6, r4, [sp, #36]	; 0x24
   d521c:	f004 fb49 	bl	d98b2 <_ZN5spark10JSONWriter11beginObjectEv>
    writer.name("Name").value(DeviceNameHelperRetained::instance().getName());
   d5220:	49a4      	ldr	r1, [pc, #656]	; (d54b4 <_Z17sendConfigurationv+0x2c0>)
   d5222:	a807      	add	r0, sp, #28
   d5224:	f7ff f8dc 	bl	d43e0 <_ZN5spark10JSONWriter4nameEPKc>
   d5228:	4604      	mov	r4, r0
   d522a:	f002 fed5 	bl	d7fd8 <_ZN24DeviceNameHelperRetained8instanceEv>
   d522e:	6841      	ldr	r1, [r0, #4]
    /**
     * @brief Returns the device name as a c-string
     * 
     * May return an empty string if the name has not been retrieved yet
     */
    const char *getName() const { return data ? data->name : ""; };
   d5230:	2900      	cmp	r1, #0
   d5232:	f000 8097 	beq.w	d5364 <_Z17sendConfigurationv+0x170>
   d5236:	310c      	adds	r1, #12
   d5238:	4620      	mov	r0, r4
   d523a:	f7ff f8df 	bl	d43fc <_ZN5spark10JSONWriter5valueEPKc>
    writer.name("Release").value(releaseNumber);
   d523e:	499e      	ldr	r1, [pc, #632]	; (d54b8 <_Z17sendConfigurationv+0x2c4>)
    writer.name("Operating Mode").value(String(sysStatus.operatingMode));
   d5240:	4c9e      	ldr	r4, [pc, #632]	; (d54bc <_Z17sendConfigurationv+0x2c8>)
    writer.name("Release").value(releaseNumber);
   d5242:	a807      	add	r0, sp, #28
   d5244:	f7ff f8cc 	bl	d43e0 <_ZN5spark10JSONWriter4nameEPKc>
   d5248:	499d      	ldr	r1, [pc, #628]	; (d54c0 <_Z17sendConfigurationv+0x2cc>)
   d524a:	f7ff f8d7 	bl	d43fc <_ZN5spark10JSONWriter5valueEPKc>
    writer.name("Operating Mode").value(String(sysStatus.operatingMode));
   d524e:	499d      	ldr	r1, [pc, #628]	; (d54c4 <_Z17sendConfigurationv+0x2d0>)
   d5250:	a807      	add	r0, sp, #28
   d5252:	f7ff f8c5 	bl	d43e0 <_ZN5spark10JSONWriter4nameEPKc>
   d5256:	6aa1      	ldr	r1, [r4, #40]	; 0x28
   d5258:	4605      	mov	r5, r0
   d525a:	220a      	movs	r2, #10
   d525c:	a803      	add	r0, sp, #12
   d525e:	f004 fe06 	bl	d9e6e <_ZN6StringC1Eih>
    return value(val.c_str(), val.length());
   d5262:	9a05      	ldr	r2, [sp, #20]
   d5264:	9903      	ldr	r1, [sp, #12]
   d5266:	4628      	mov	r0, r5
   d5268:	f004 fbd6 	bl	d9a18 <_ZN5spark10JSONWriter5valueEPKcj>
   d526c:	a803      	add	r0, sp, #12
   d526e:	f004 fd73 	bl	d9d58 <_ZN6StringD1Ev>
    writer.name("Sensors");
   d5272:	4995      	ldr	r1, [pc, #596]	; (d54c8 <_Z17sendConfigurationv+0x2d4>)
   d5274:	a807      	add	r0, sp, #28
   d5276:	f7ff f8b3 	bl	d43e0 <_ZN5spark10JSONWriter4nameEPKc>
    writer.beginObject();
   d527a:	a807      	add	r0, sp, #28
   d527c:	f004 fb19 	bl	d98b2 <_ZN5spark10JSONWriter11beginObjectEv>
      if ((sysStatus.operatingMode) == 1){
   d5280:	6aa3      	ldr	r3, [r4, #40]	; 0x28
   d5282:	2b01      	cmp	r3, #1
   d5284:	d170      	bne.n	d5368 <_Z17sendConfigurationv+0x174>
        writer.name("SensorOneConnected").value(sysStatus.sensorOneConnected);
   d5286:	4991      	ldr	r1, [pc, #580]	; (d54cc <_Z17sendConfigurationv+0x2d8>)
        writer.name("SensorOneConstant").value(sensorConstants.sensorOneConstant);
   d5288:	4d91      	ldr	r5, [pc, #580]	; (d54d0 <_Z17sendConfigurationv+0x2dc>)
        writer.name("SensorOneConnected").value(sysStatus.sensorOneConnected);
   d528a:	a807      	add	r0, sp, #28
   d528c:	f7ff f8a8 	bl	d43e0 <_ZN5spark10JSONWriter4nameEPKc>
   d5290:	7f21      	ldrb	r1, [r4, #28]
   d5292:	f004 fb1b 	bl	d98cc <_ZN5spark10JSONWriter5valueEb>
        writer.name("SensorOneConstant").value(sensorConstants.sensorOneConstant);
   d5296:	498f      	ldr	r1, [pc, #572]	; (d54d4 <_Z17sendConfigurationv+0x2e0>)
   d5298:	a807      	add	r0, sp, #28
   d529a:	f7ff f8a1 	bl	d43e0 <_ZN5spark10JSONWriter4nameEPKc>
   d529e:	4607      	mov	r7, r0
   d52a0:	6828      	ldr	r0, [r5, #0]
   d52a2:	f005 fd81 	bl	dada8 <__aeabi_f2d>
   d52a6:	ec41 0b10 	vmov	d0, r0, r1
   d52aa:	4638      	mov	r0, r7
   d52ac:	f004 fb38 	bl	d9920 <_ZN5spark10JSONWriter5valueEd>
        writer.name("SensorTwoConnected").value(sysStatus.sensorTwoConnected);
   d52b0:	4989      	ldr	r1, [pc, #548]	; (d54d8 <_Z17sendConfigurationv+0x2e4>)
   d52b2:	a807      	add	r0, sp, #28
   d52b4:	f7ff f894 	bl	d43e0 <_ZN5spark10JSONWriter4nameEPKc>
   d52b8:	7f61      	ldrb	r1, [r4, #29]
   d52ba:	f004 fb07 	bl	d98cc <_ZN5spark10JSONWriter5valueEb>
        writer.name("SensorTwoConstant").value(sensorConstants.sensorTwoConstant);
   d52be:	4987      	ldr	r1, [pc, #540]	; (d54dc <_Z17sendConfigurationv+0x2e8>)
   d52c0:	a807      	add	r0, sp, #28
   d52c2:	f7ff f88d 	bl	d43e0 <_ZN5spark10JSONWriter4nameEPKc>
   d52c6:	4607      	mov	r7, r0
   d52c8:	6868      	ldr	r0, [r5, #4]
   d52ca:	f005 fd6d 	bl	dada8 <__aeabi_f2d>
   d52ce:	ec41 0b10 	vmov	d0, r0, r1
   d52d2:	4638      	mov	r0, r7
   d52d4:	f004 fb24 	bl	d9920 <_ZN5spark10JSONWriter5valueEd>
        writer.name("SensorThreeConnected").value(sysStatus.sensorThreeConnected);
   d52d8:	4981      	ldr	r1, [pc, #516]	; (d54e0 <_Z17sendConfigurationv+0x2ec>)
   d52da:	a807      	add	r0, sp, #28
   d52dc:	f7ff f880 	bl	d43e0 <_ZN5spark10JSONWriter4nameEPKc>
   d52e0:	7fa1      	ldrb	r1, [r4, #30]
   d52e2:	f004 faf3 	bl	d98cc <_ZN5spark10JSONWriter5valueEb>
        writer.name("SensorOneConnected").value(true);
        writer.name("SensorOneConstant").value(sensorConstants.sensorOneConstant);
        writer.name("SensorTwoConnected").value(true);
        writer.name("SensorTwoConstant").value(sensorConstants.sensorTwoConstant);
        writer.name("SensorThreeConnected").value(true);
        writer.name("SensorThreeConstant").value(sensorConstants.sensorThreeConstant);
   d52e6:	497f      	ldr	r1, [pc, #508]	; (d54e4 <_Z17sendConfigurationv+0x2f0>)
   d52e8:	a807      	add	r0, sp, #28
   d52ea:	f7ff f879 	bl	d43e0 <_ZN5spark10JSONWriter4nameEPKc>
   d52ee:	4607      	mov	r7, r0
   d52f0:	68a8      	ldr	r0, [r5, #8]
   d52f2:	f005 fd59 	bl	dada8 <__aeabi_f2d>
   d52f6:	ec41 0b10 	vmov	d0, r0, r1
   d52fa:	4638      	mov	r0, r7
   d52fc:	f004 fb10 	bl	d9920 <_ZN5spark10JSONWriter5valueEd>
        writer.name("SensorFourConnected").value(sysStatus.sensorFourConnected);
   d5300:	4979      	ldr	r1, [pc, #484]	; (d54e8 <_Z17sendConfigurationv+0x2f4>)
   d5302:	a807      	add	r0, sp, #28
   d5304:	f7ff f86c 	bl	d43e0 <_ZN5spark10JSONWriter4nameEPKc>
   d5308:	7fe1      	ldrb	r1, [r4, #31]
   d530a:	f004 fadf 	bl	d98cc <_ZN5spark10JSONWriter5valueEb>
        writer.name("SensorFourConstant").value(sensorConstants.sensorFourConstant);
   d530e:	4977      	ldr	r1, [pc, #476]	; (d54ec <_Z17sendConfigurationv+0x2f8>)
   d5310:	a807      	add	r0, sp, #28
   d5312:	f7ff f865 	bl	d43e0 <_ZN5spark10JSONWriter4nameEPKc>
   d5316:	4607      	mov	r7, r0
   d5318:	68e8      	ldr	r0, [r5, #12]
   d531a:	f005 fd45 	bl	dada8 <__aeabi_f2d>
   d531e:	ec41 0b10 	vmov	d0, r0, r1
   d5322:	4638      	mov	r0, r7
   d5324:	f004 fafc 	bl	d9920 <_ZN5spark10JSONWriter5valueEd>
        writer.name("SensorFiveConnected").value(sysStatus.sensorFiveConnected);
   d5328:	4971      	ldr	r1, [pc, #452]	; (d54f0 <_Z17sendConfigurationv+0x2fc>)
   d532a:	a807      	add	r0, sp, #28
   d532c:	f7ff f858 	bl	d43e0 <_ZN5spark10JSONWriter4nameEPKc>
   d5330:	f894 1020 	ldrb.w	r1, [r4, #32]
   d5334:	f004 faca 	bl	d98cc <_ZN5spark10JSONWriter5valueEb>
        writer.name("SensorFiveConstant").value(sensorConstants.sensorFiveConstant);
   d5338:	496e      	ldr	r1, [pc, #440]	; (d54f4 <_Z17sendConfigurationv+0x300>)
   d533a:	a807      	add	r0, sp, #28
   d533c:	f7ff f850 	bl	d43e0 <_ZN5spark10JSONWriter4nameEPKc>
   d5340:	4607      	mov	r7, r0
   d5342:	6928      	ldr	r0, [r5, #16]
   d5344:	f005 fd30 	bl	dada8 <__aeabi_f2d>
   d5348:	ec41 0b10 	vmov	d0, r0, r1
   d534c:	4638      	mov	r0, r7
   d534e:	f004 fae7 	bl	d9920 <_ZN5spark10JSONWriter5valueEd>
        writer.name("SensorSixConnected").value(sysStatus.sensorSixConnected);
   d5352:	4969      	ldr	r1, [pc, #420]	; (d54f8 <_Z17sendConfigurationv+0x304>)
   d5354:	a807      	add	r0, sp, #28
   d5356:	f7ff f843 	bl	d43e0 <_ZN5spark10JSONWriter4nameEPKc>
   d535a:	f894 1021 	ldrb.w	r1, [r4, #33]	; 0x21
   d535e:	f004 fab5 	bl	d98cc <_ZN5spark10JSONWriter5valueEb>
   d5362:	e070      	b.n	d5446 <_Z17sendConfigurationv+0x252>
   d5364:	4965      	ldr	r1, [pc, #404]	; (d54fc <_Z17sendConfigurationv+0x308>)
   d5366:	e767      	b.n	d5238 <_Z17sendConfigurationv+0x44>
      else if ((sysStatus.operatingMode) == 2){
   d5368:	2b02      	cmp	r3, #2
   d536a:	f040 80d7 	bne.w	d551c <_Z17sendConfigurationv+0x328>
        writer.name("SensorOneConnected").value(true);
   d536e:	4957      	ldr	r1, [pc, #348]	; (d54cc <_Z17sendConfigurationv+0x2d8>)
        writer.name("SensorOneConstant").value(sensorConstants.sensorOneConstant);
   d5370:	4d57      	ldr	r5, [pc, #348]	; (d54d0 <_Z17sendConfigurationv+0x2dc>)
        writer.name("SensorOneConnected").value(true);
   d5372:	a807      	add	r0, sp, #28
   d5374:	f7ff f834 	bl	d43e0 <_ZN5spark10JSONWriter4nameEPKc>
   d5378:	2101      	movs	r1, #1
   d537a:	f004 fabf 	bl	d98fc <_ZN5spark10JSONWriter5valueEi>
        writer.name("SensorOneConstant").value(sensorConstants.sensorOneConstant);
   d537e:	4955      	ldr	r1, [pc, #340]	; (d54d4 <_Z17sendConfigurationv+0x2e0>)
   d5380:	a807      	add	r0, sp, #28
   d5382:	f7ff f82d 	bl	d43e0 <_ZN5spark10JSONWriter4nameEPKc>
   d5386:	4607      	mov	r7, r0
   d5388:	6828      	ldr	r0, [r5, #0]
   d538a:	f005 fd0d 	bl	dada8 <__aeabi_f2d>
   d538e:	ec41 0b10 	vmov	d0, r0, r1
   d5392:	4638      	mov	r0, r7
   d5394:	f004 fac4 	bl	d9920 <_ZN5spark10JSONWriter5valueEd>
        writer.name("SensorTwoConnected").value(true);
   d5398:	494f      	ldr	r1, [pc, #316]	; (d54d8 <_Z17sendConfigurationv+0x2e4>)
   d539a:	a807      	add	r0, sp, #28
   d539c:	f7ff f820 	bl	d43e0 <_ZN5spark10JSONWriter4nameEPKc>
   d53a0:	2101      	movs	r1, #1
   d53a2:	f004 faab 	bl	d98fc <_ZN5spark10JSONWriter5valueEi>
        writer.name("SensorTwoConstant").value(sensorConstants.sensorTwoConstant);
   d53a6:	494d      	ldr	r1, [pc, #308]	; (d54dc <_Z17sendConfigurationv+0x2e8>)
   d53a8:	a807      	add	r0, sp, #28
   d53aa:	f7ff f819 	bl	d43e0 <_ZN5spark10JSONWriter4nameEPKc>
   d53ae:	4607      	mov	r7, r0
   d53b0:	6868      	ldr	r0, [r5, #4]
   d53b2:	f005 fcf9 	bl	dada8 <__aeabi_f2d>
   d53b6:	ec41 0b10 	vmov	d0, r0, r1
   d53ba:	4638      	mov	r0, r7
   d53bc:	f004 fab0 	bl	d9920 <_ZN5spark10JSONWriter5valueEd>
        writer.name("SensorThreeConnected").value(true);
   d53c0:	4947      	ldr	r1, [pc, #284]	; (d54e0 <_Z17sendConfigurationv+0x2ec>)
   d53c2:	a807      	add	r0, sp, #28
   d53c4:	f7ff f80c 	bl	d43e0 <_ZN5spark10JSONWriter4nameEPKc>
   d53c8:	2101      	movs	r1, #1
   d53ca:	f004 fa97 	bl	d98fc <_ZN5spark10JSONWriter5valueEi>
        writer.name("SensorThreeConstant").value(sensorConstants.sensorThreeConstant);
   d53ce:	4945      	ldr	r1, [pc, #276]	; (d54e4 <_Z17sendConfigurationv+0x2f0>)
   d53d0:	a807      	add	r0, sp, #28
   d53d2:	f7ff f805 	bl	d43e0 <_ZN5spark10JSONWriter4nameEPKc>
   d53d6:	4607      	mov	r7, r0
   d53d8:	68a8      	ldr	r0, [r5, #8]
   d53da:	f005 fce5 	bl	dada8 <__aeabi_f2d>
   d53de:	ec41 0b10 	vmov	d0, r0, r1
   d53e2:	4638      	mov	r0, r7
   d53e4:	f004 fa9c 	bl	d9920 <_ZN5spark10JSONWriter5valueEd>
        writer.name("SensorFourConnected").value(true);
   d53e8:	493f      	ldr	r1, [pc, #252]	; (d54e8 <_Z17sendConfigurationv+0x2f4>)
   d53ea:	a807      	add	r0, sp, #28
   d53ec:	f7fe fff8 	bl	d43e0 <_ZN5spark10JSONWriter4nameEPKc>
   d53f0:	2101      	movs	r1, #1
   d53f2:	f004 fa83 	bl	d98fc <_ZN5spark10JSONWriter5valueEi>
        writer.name("SensorFourConstant").value(sensorConstants.sensorFourConstant);
   d53f6:	493d      	ldr	r1, [pc, #244]	; (d54ec <_Z17sendConfigurationv+0x2f8>)
   d53f8:	a807      	add	r0, sp, #28
   d53fa:	f7fe fff1 	bl	d43e0 <_ZN5spark10JSONWriter4nameEPKc>
   d53fe:	4607      	mov	r7, r0
   d5400:	68e8      	ldr	r0, [r5, #12]
   d5402:	f005 fcd1 	bl	dada8 <__aeabi_f2d>
   d5406:	ec41 0b10 	vmov	d0, r0, r1
   d540a:	4638      	mov	r0, r7
   d540c:	f004 fa88 	bl	d9920 <_ZN5spark10JSONWriter5valueEd>
        writer.name("SensorFiveConnected").value(true);
   d5410:	4937      	ldr	r1, [pc, #220]	; (d54f0 <_Z17sendConfigurationv+0x2fc>)
   d5412:	a807      	add	r0, sp, #28
   d5414:	f7fe ffe4 	bl	d43e0 <_ZN5spark10JSONWriter4nameEPKc>
   d5418:	2101      	movs	r1, #1
   d541a:	f004 fa6f 	bl	d98fc <_ZN5spark10JSONWriter5valueEi>
        writer.name("SensorFiveConstant").value(sensorConstants.sensorFiveConstant);
   d541e:	4935      	ldr	r1, [pc, #212]	; (d54f4 <_Z17sendConfigurationv+0x300>)
   d5420:	a807      	add	r0, sp, #28
   d5422:	f7fe ffdd 	bl	d43e0 <_ZN5spark10JSONWriter4nameEPKc>
   d5426:	4607      	mov	r7, r0
   d5428:	6928      	ldr	r0, [r5, #16]
   d542a:	f005 fcbd 	bl	dada8 <__aeabi_f2d>
   d542e:	ec41 0b10 	vmov	d0, r0, r1
   d5432:	4638      	mov	r0, r7
   d5434:	f004 fa74 	bl	d9920 <_ZN5spark10JSONWriter5valueEd>
        writer.name("SensorSixConnected").value(true);
   d5438:	492f      	ldr	r1, [pc, #188]	; (d54f8 <_Z17sendConfigurationv+0x304>)
   d543a:	a807      	add	r0, sp, #28
   d543c:	f7fe ffd0 	bl	d43e0 <_ZN5spark10JSONWriter4nameEPKc>
   d5440:	2101      	movs	r1, #1
   d5442:	f004 fa5b 	bl	d98fc <_ZN5spark10JSONWriter5valueEi>
        writer.name("SensorSixConstant").value(sensorConstants.sensorSixConstant);
   d5446:	492e      	ldr	r1, [pc, #184]	; (d5500 <_Z17sendConfigurationv+0x30c>)
   d5448:	a807      	add	r0, sp, #28
   d544a:	f7fe ffc9 	bl	d43e0 <_ZN5spark10JSONWriter4nameEPKc>
   d544e:	4607      	mov	r7, r0
   d5450:	6968      	ldr	r0, [r5, #20]
   d5452:	f005 fca9 	bl	dada8 <__aeabi_f2d>
   d5456:	ec41 0b10 	vmov	d0, r0, r1
   d545a:	4638      	mov	r0, r7
   d545c:	f004 fa60 	bl	d9920 <_ZN5spark10JSONWriter5valueEd>
      }
    writer.endObject();
   d5460:	a807      	add	r0, sp, #28
   d5462:	f004 fa10 	bl	d9886 <_ZN5spark10JSONWriter9endObjectEv>
    writer.name("Third Party Sim").value(sysStatus.thirdPartySim);
   d5466:	4927      	ldr	r1, [pc, #156]	; (d5504 <_Z17sendConfigurationv+0x310>)
   d5468:	a807      	add	r0, sp, #28
   d546a:	f7fe ffb9 	bl	d43e0 <_ZN5spark10JSONWriter4nameEPKc>
   d546e:	7861      	ldrb	r1, [r4, #1]
   d5470:	f004 fa2c 	bl	d98cc <_ZN5spark10JSONWriter5valueEb>
    writer.name("KeepAlive").value(sysStatus.keepAlive);
   d5474:	4924      	ldr	r1, [pc, #144]	; (d5508 <_Z17sendConfigurationv+0x314>)
   d5476:	a807      	add	r0, sp, #28
   d5478:	f7fe ffb2 	bl	d43e0 <_ZN5spark10JSONWriter4nameEPKc>
   d547c:	6861      	ldr	r1, [r4, #4]
   d547e:	f004 fa3d 	bl	d98fc <_ZN5spark10JSONWriter5valueEi>
    writer.name("Reporting Duration").value(sysStatus.reportingBoundary);
   d5482:	4922      	ldr	r1, [pc, #136]	; (d550c <_Z17sendConfigurationv+0x318>)
   d5484:	a807      	add	r0, sp, #28
   d5486:	f7fe ffab 	bl	d43e0 <_ZN5spark10JSONWriter4nameEPKc>
   d548a:	6a61      	ldr	r1, [r4, #36]	; 0x24
   d548c:	f004 fa36 	bl	d98fc <_ZN5spark10JSONWriter5valueEi>
  writer.endObject();
   d5490:	a807      	add	r0, sp, #28
   d5492:	f004 f9f8 	bl	d9886 <_ZN5spark10JSONWriter9endObjectEv>
   d5496:	2300      	movs	r3, #0

  publishQueue.publish("System Configuration",data,PRIVATE);
   d5498:	f88d 3000 	strb.w	r3, [sp]
   d549c:	4b1c      	ldr	r3, [pc, #112]	; (d5510 <_Z17sendConfigurationv+0x31c>)
   d549e:	491d      	ldr	r1, [pc, #116]	; (d5514 <_Z17sendConfigurationv+0x320>)
   d54a0:	781b      	ldrb	r3, [r3, #0]
   d54a2:	481d      	ldr	r0, [pc, #116]	; (d5518 <_Z17sendConfigurationv+0x324>)
   d54a4:	4632      	mov	r2, r6
   d54a6:	f7fe ffce 	bl	d4446 <_ZN21PublishQueueAsyncBase7publishEPKcS1_N8particle5FlagsI15PublishFlagTypehEES5_>
 
   d54aa:	f50d 7d0d 	add.w	sp, sp, #564	; 0x234
   d54ae:	bdf0      	pop	{r4, r5, r6, r7, pc}
   d54b0:	000de414 	.word	0x000de414
   d54b4:	000dd969 	.word	0x000dd969
   d54b8:	000dd7e5 	.word	0x000dd7e5
   d54bc:	2003e590 	.word	0x2003e590
   d54c0:	000ddeec 	.word	0x000ddeec
   d54c4:	000dd7ed 	.word	0x000dd7ed
   d54c8:	000dd7fc 	.word	0x000dd7fc
   d54cc:	000dd804 	.word	0x000dd804
   d54d0:	2003e428 	.word	0x2003e428
   d54d4:	000dd817 	.word	0x000dd817
   d54d8:	000dd829 	.word	0x000dd829
   d54dc:	000dd83c 	.word	0x000dd83c
   d54e0:	000dd84e 	.word	0x000dd84e
   d54e4:	000dd863 	.word	0x000dd863
   d54e8:	000dd877 	.word	0x000dd877
   d54ec:	000dd88b 	.word	0x000dd88b
   d54f0:	000dd89e 	.word	0x000dd89e
   d54f4:	000dd8b2 	.word	0x000dd8b2
   d54f8:	000dd8c5 	.word	0x000dd8c5
   d54fc:	000de518 	.word	0x000de518
   d5500:	000dd8d8 	.word	0x000dd8d8
   d5504:	000dd8ea 	.word	0x000dd8ea
   d5508:	000dd8fa 	.word	0x000dd8fa
   d550c:	000dd904 	.word	0x000dd904
   d5510:	2003df2d 	.word	0x2003df2d
   d5514:	000dd917 	.word	0x000dd917
   d5518:	2003e3d0 	.word	0x2003e3d0
      else if ((sysStatus.operatingMode) == 3){
   d551c:	2b03      	cmp	r3, #3
   d551e:	d19f      	bne.n	d5460 <_Z17sendConfigurationv+0x26c>
        writer.name("SensorOneConnected").value(true);
   d5520:	4918      	ldr	r1, [pc, #96]	; (d5584 <_Z17sendConfigurationv+0x390>)
        writer.name("SensorOneConstant").value(sensorConstants.sensorOneConstant);
   d5522:	4d19      	ldr	r5, [pc, #100]	; (d5588 <_Z17sendConfigurationv+0x394>)
        writer.name("SensorOneConnected").value(true);
   d5524:	a807      	add	r0, sp, #28
   d5526:	f7fe ff5b 	bl	d43e0 <_ZN5spark10JSONWriter4nameEPKc>
   d552a:	2101      	movs	r1, #1
   d552c:	f004 f9e6 	bl	d98fc <_ZN5spark10JSONWriter5valueEi>
        writer.name("SensorOneConstant").value(sensorConstants.sensorOneConstant);
   d5530:	4916      	ldr	r1, [pc, #88]	; (d558c <_Z17sendConfigurationv+0x398>)
   d5532:	a807      	add	r0, sp, #28
   d5534:	f7fe ff54 	bl	d43e0 <_ZN5spark10JSONWriter4nameEPKc>
   d5538:	4607      	mov	r7, r0
   d553a:	6828      	ldr	r0, [r5, #0]
   d553c:	f005 fc34 	bl	dada8 <__aeabi_f2d>
   d5540:	ec41 0b10 	vmov	d0, r0, r1
   d5544:	4638      	mov	r0, r7
   d5546:	f004 f9eb 	bl	d9920 <_ZN5spark10JSONWriter5valueEd>
        writer.name("SensorTwoConnected").value(true);
   d554a:	4911      	ldr	r1, [pc, #68]	; (d5590 <_Z17sendConfigurationv+0x39c>)
   d554c:	a807      	add	r0, sp, #28
   d554e:	f7fe ff47 	bl	d43e0 <_ZN5spark10JSONWriter4nameEPKc>
   d5552:	2101      	movs	r1, #1
   d5554:	f004 f9d2 	bl	d98fc <_ZN5spark10JSONWriter5valueEi>
        writer.name("SensorTwoConstant").value(sensorConstants.sensorTwoConstant);
   d5558:	490e      	ldr	r1, [pc, #56]	; (d5594 <_Z17sendConfigurationv+0x3a0>)
   d555a:	a807      	add	r0, sp, #28
   d555c:	f7fe ff40 	bl	d43e0 <_ZN5spark10JSONWriter4nameEPKc>
   d5560:	4607      	mov	r7, r0
   d5562:	6868      	ldr	r0, [r5, #4]
   d5564:	f005 fc20 	bl	dada8 <__aeabi_f2d>
   d5568:	ec41 0b10 	vmov	d0, r0, r1
   d556c:	4638      	mov	r0, r7
   d556e:	f004 f9d7 	bl	d9920 <_ZN5spark10JSONWriter5valueEd>
        writer.name("SensorThreeConnected").value(true);
   d5572:	4909      	ldr	r1, [pc, #36]	; (d5598 <_Z17sendConfigurationv+0x3a4>)
   d5574:	a807      	add	r0, sp, #28
   d5576:	f7fe ff33 	bl	d43e0 <_ZN5spark10JSONWriter4nameEPKc>
   d557a:	2101      	movs	r1, #1
   d557c:	f004 f9be 	bl	d98fc <_ZN5spark10JSONWriter5valueEi>
   d5580:	e6b1      	b.n	d52e6 <_Z17sendConfigurationv+0xf2>
   d5582:	bf00      	nop
   d5584:	000dd804 	.word	0x000dd804
   d5588:	2003e428 	.word	0x2003e428
   d558c:	000dd817 	.word	0x000dd817
   d5590:	000dd829 	.word	0x000dd829
   d5594:	000dd83c 	.word	0x000dd83c
   d5598:	000dd84e 	.word	0x000dd84e

000d559c <_Z25sendConfigurationFunction6String>:
{
   d559c:	b508      	push	{r3, lr}
   d559e:	4904      	ldr	r1, [pc, #16]	; (d55b0 <_Z25sendConfigurationFunction6String+0x14>)
   d55a0:	f004 fca4 	bl	d9eec <_ZNK6String6equalsEPKc>
  if (command == "1") {
   d55a4:	b110      	cbz	r0, d55ac <_Z25sendConfigurationFunction6String+0x10>
    sendConfiguration();
   d55a6:	f7ff fe25 	bl	d51f4 <_Z17sendConfigurationv>
    return 1;
   d55aa:	2001      	movs	r0, #1
}
   d55ac:	bd08      	pop	{r3, pc}
   d55ae:	bf00      	nop
   d55b0:	000dd463 	.word	0x000dd463

000d55b4 <_ZNSt14__shared_countILN9__gnu_cxx12_Lock_policyE0EED1Ev>:
      explicit __shared_count(const __weak_count<_Lp>& __r);

      // Does not throw if __r._M_get_use_count() == 0, caller must check.
      explicit __shared_count(const __weak_count<_Lp>& __r, std::nothrow_t);

      ~__shared_count() noexcept
   d55b4:	b538      	push	{r3, r4, r5, lr}
      {
	if (_M_pi != nullptr)
   d55b6:	6804      	ldr	r4, [r0, #0]
      ~__shared_count() noexcept
   d55b8:	4605      	mov	r5, r0
	if (_M_pi != nullptr)
   d55ba:	b17c      	cbz	r4, d55dc <_ZNSt14__shared_countILN9__gnu_cxx12_Lock_policyE0EED1Ev+0x28>
      if (--_M_use_count == 0)
   d55bc:	6863      	ldr	r3, [r4, #4]
   d55be:	3b01      	subs	r3, #1
   d55c0:	6063      	str	r3, [r4, #4]
   d55c2:	b95b      	cbnz	r3, d55dc <_ZNSt14__shared_countILN9__gnu_cxx12_Lock_policyE0EED1Ev+0x28>
          _M_dispose();
   d55c4:	6823      	ldr	r3, [r4, #0]
   d55c6:	4620      	mov	r0, r4
   d55c8:	689b      	ldr	r3, [r3, #8]
   d55ca:	4798      	blx	r3
          if (--_M_weak_count == 0)
   d55cc:	68a3      	ldr	r3, [r4, #8]
   d55ce:	3b01      	subs	r3, #1
   d55d0:	60a3      	str	r3, [r4, #8]
   d55d2:	b91b      	cbnz	r3, d55dc <_ZNSt14__shared_countILN9__gnu_cxx12_Lock_policyE0EED1Ev+0x28>
            _M_destroy();
   d55d4:	6823      	ldr	r3, [r4, #0]
   d55d6:	4620      	mov	r0, r4
   d55d8:	68db      	ldr	r3, [r3, #12]
   d55da:	4798      	blx	r3
	  _M_pi->_M_release();
      }
   d55dc:	4628      	mov	r0, r5
   d55de:	bd38      	pop	{r3, r4, r5, pc}

000d55e0 <_ZN18CloudConfigStorage18getJSONValueForKeyEPKc>:
    JSONValue getJSONValueForKey(const char *key) { return getJSONValueForKey(jsonObj, key); }; 
   d55e0:	b51f      	push	{r0, r1, r2, r3, r4, lr}
	__shared_ptr(const __shared_ptr<_Yp, _Lp>& __r,
		     element_type* __p) noexcept
	: _M_ptr(__p), _M_refcount(__r._M_refcount) // never throws
	{ }

      __shared_ptr(const __shared_ptr&) noexcept = default;
   d55e2:	684b      	ldr	r3, [r1, #4]
   d55e4:	9301      	str	r3, [sp, #4]
      : _M_pi(__r._M_pi)
   d55e6:	688b      	ldr	r3, [r1, #8]
   d55e8:	9302      	str	r3, [sp, #8]
   d55ea:	4604      	mov	r4, r0
	if (_M_pi != 0)
   d55ec:	b113      	cbz	r3, d55f4 <_ZN18CloudConfigStorage18getJSONValueForKeyEPKc+0x14>
    { ++_M_use_count; }
   d55ee:	6858      	ldr	r0, [r3, #4]
   d55f0:	3001      	adds	r0, #1
   d55f2:	6058      	str	r0, [r3, #4]
class JSONValue {
   d55f4:	68cb      	ldr	r3, [r1, #12]
   d55f6:	9303      	str	r3, [sp, #12]
   d55f8:	a901      	add	r1, sp, #4
   d55fa:	4620      	mov	r0, r4
   d55fc:	f002 faad 	bl	d7b5a <_ZN18CloudConfigStorage18getJSONValueForKeyEN5spark9JSONValueEPKc>
      __shared_ptr& operator=(const __shared_ptr&) noexcept = default;
      ~__shared_ptr() = default;
   d5600:	a802      	add	r0, sp, #8
   d5602:	f7ff ffd7 	bl	d55b4 <_ZNSt14__shared_countILN9__gnu_cxx12_Lock_policyE0EED1Ev>
   d5606:	4620      	mov	r0, r4
   d5608:	b004      	add	sp, #16
   d560a:	bd10      	pop	{r4, pc}

000d560c <_Z7logJsonv>:
void logJson() {
   d560c:	b51f      	push	{r0, r1, r2, r3, r4, lr}
    if (CloudConfig::instance().getJSONValueForKey("alias").isValid()) {}
   d560e:	f002 f985 	bl	d791c <_ZN11CloudConfig8instanceEv>
    JSONValue getJSONValueForKey(const char *key) { return storageMethod->getJSONValueForKey(key); };
   d5612:	4a09      	ldr	r2, [pc, #36]	; (d5638 <_Z7logJsonv+0x2c>)
   d5614:	6841      	ldr	r1, [r0, #4]
   d5616:	a801      	add	r0, sp, #4
   d5618:	f7ff ffe2 	bl	d55e0 <_ZN18CloudConfigStorage18getJSONValueForKeyEPKc>
    return type() != JSON_TYPE_INVALID;
   d561c:	a801      	add	r0, sp, #4
   d561e:	f003 ffdb 	bl	d95d8 <_ZNK5spark9JSONValue4typeEv>
   d5622:	4604      	mov	r4, r0
   d5624:	a802      	add	r0, sp, #8
   d5626:	f7ff ffc5 	bl	d55b4 <_ZNSt14__shared_countILN9__gnu_cxx12_Lock_policyE0EED1Ev>
   d562a:	b91c      	cbnz	r4, d5634 <_Z7logJsonv+0x28>
        Log.info("no config set");
   d562c:	4903      	ldr	r1, [pc, #12]	; (d563c <_Z7logJsonv+0x30>)
   d562e:	4804      	ldr	r0, [pc, #16]	; (d5640 <_Z7logJsonv+0x34>)
   d5630:	f7fe fef2 	bl	d4418 <_ZNK5spark6Logger4infoEPKcz>
}
   d5634:	b004      	add	sp, #16
   d5636:	bd10      	pop	{r4, pc}
   d5638:	000dd92c 	.word	0x000dd92c
   d563c:	000dd932 	.word	0x000dd932
   d5640:	2003e61c 	.word	0x2003e61c

000d5644 <_ZNSt17_Function_handlerIFvvEZ5setupEUlvE_E9_M_invokeERKSt9_Any_data>:
            logJson();
   d5644:	f7ff bfe2 	b.w	d560c <_Z7logJsonv>

000d5648 <_ZN11CloudConfig9getStringEPKc.isra.0>:
    const char *getString(const char *key) { return storageMethod->getJSONValueForKey(key).toString().data(); };
   d5648:	b510      	push	{r4, lr}
   d564a:	b08a      	sub	sp, #40	; 0x28
   d564c:	460a      	mov	r2, r1
   d564e:	4601      	mov	r1, r0
   d5650:	a803      	add	r0, sp, #12
   d5652:	f7ff ffc5 	bl	d55e0 <_ZN18CloudConfigStorage18getJSONValueForKeyEPKc>
      __shared_ptr(const __shared_ptr&) noexcept = default;
   d5656:	9b03      	ldr	r3, [sp, #12]
   d5658:	9301      	str	r3, [sp, #4]
      : _M_pi(__r._M_pi)
   d565a:	9b04      	ldr	r3, [sp, #16]
    return JSONString(t_, d_);
   d565c:	9905      	ldr	r1, [sp, #20]
   d565e:	9302      	str	r3, [sp, #8]
	if (_M_pi != 0)
   d5660:	b113      	cbz	r3, d5668 <_ZN11CloudConfig9getStringEPKc.isra.0+0x20>
    { ++_M_use_count; }
   d5662:	685a      	ldr	r2, [r3, #4]
   d5664:	3201      	adds	r2, #1
   d5666:	605a      	str	r2, [r3, #4]
   d5668:	aa01      	add	r2, sp, #4
   d566a:	a806      	add	r0, sp, #24
   d566c:	f004 f8bc 	bl	d97e8 <_ZN5spark10JSONStringC1EPK9jsmntok_tSt10shared_ptrINS_6detail8JSONDataEE>
      ~__shared_ptr() = default;
   d5670:	a802      	add	r0, sp, #8
   d5672:	f7ff ff9f 	bl	d55b4 <_ZNSt14__shared_countILN9__gnu_cxx12_Lock_policyE0EED1Ev>
   d5676:	a807      	add	r0, sp, #28
   d5678:	9c08      	ldr	r4, [sp, #32]
   d567a:	f7ff ff9b 	bl	d55b4 <_ZNSt14__shared_countILN9__gnu_cxx12_Lock_policyE0EED1Ev>
   d567e:	a804      	add	r0, sp, #16
   d5680:	f7ff ff98 	bl	d55b4 <_ZNSt14__shared_countILN9__gnu_cxx12_Lock_policyE0EED1Ev>
   d5684:	4620      	mov	r0, r4
   d5686:	b00a      	add	sp, #40	; 0x28
   d5688:	bd10      	pop	{r4, pc}
	...

000d568c <_Z9sendEventv>:
{
   d568c:	b5f0      	push	{r4, r5, r6, r7, lr}
   d568e:	f5ad 7d57 	sub.w	sp, sp, #860	; 0x35c
  memset(influx_hook, 0, sizeof(influx_hook));
   d5692:	f44f 7400 	mov.w	r4, #512	; 0x200
    inline static SleepResult sleep(const pin_t* pins, size_t pinsSize, const InterruptMode* edgeTriggerMode, size_t edgeTriggerModeSize, SleepOptionFlags flag, std::chrono::seconds s) {
        return sleep(pins, pinsSize, edgeTriggerMode, edgeTriggerModeSize, flag, s.count());
    }

    static String deviceID(void) {
        return spark_deviceID();
   d5696:	a80d      	add	r0, sp, #52	; 0x34
   d5698:	ae56      	add	r6, sp, #344	; 0x158
   d569a:	f003 f921 	bl	d88e0 <spark_deviceID>
   d569e:	4622      	mov	r2, r4
   d56a0:	2100      	movs	r1, #0
   d56a2:	4630      	mov	r0, r6
   d56a4:	f005 ff8c 	bl	db5c0 <memset>
        state_(BEGIN) {
   d56a8:	2300      	movs	r3, #0
        n_(0) {
   d56aa:	4a65      	ldr	r2, [pc, #404]	; (d5840 <_Z9sendEventv+0x1b4>)
        state_(BEGIN) {
   d56ac:	f88d 3048 	strb.w	r3, [sp, #72]	; 0x48
  writer.beginObject();
   d56b0:	a811      	add	r0, sp, #68	; 0x44
        n_(0) {
   d56b2:	9211      	str	r2, [sp, #68]	; 0x44
   d56b4:	9315      	str	r3, [sp, #84]	; 0x54
   d56b6:	e9cd 6413 	strd	r6, r4, [sp, #76]	; 0x4c
   d56ba:	f004 f8fa 	bl	d98b2 <_ZN5spark10JSONWriter11beginObjectEv>
    writer.name("tags");
   d56be:	4961      	ldr	r1, [pc, #388]	; (d5844 <_Z9sendEventv+0x1b8>)
   d56c0:	a811      	add	r0, sp, #68	; 0x44
   d56c2:	f7fe fe8d 	bl	d43e0 <_ZN5spark10JSONWriter4nameEPKc>
    writer.beginObject();
   d56c6:	a811      	add	r0, sp, #68	; 0x44
   d56c8:	f004 f8f3 	bl	d98b2 <_ZN5spark10JSONWriter11beginObjectEv>
      writer.name("alias").value(CloudConfig::instance().getString("alias"));
   d56cc:	495e      	ldr	r1, [pc, #376]	; (d5848 <_Z9sendEventv+0x1bc>)
   d56ce:	a811      	add	r0, sp, #68	; 0x44
   d56d0:	f7fe fe86 	bl	d43e0 <_ZN5spark10JSONWriter4nameEPKc>
   d56d4:	4604      	mov	r4, r0
   d56d6:	f002 f921 	bl	d791c <_ZN11CloudConfig8instanceEv>
   d56da:	495b      	ldr	r1, [pc, #364]	; (d5848 <_Z9sendEventv+0x1bc>)
   d56dc:	6840      	ldr	r0, [r0, #4]
   d56de:	f7ff ffb3 	bl	d5648 <_ZN11CloudConfig9getStringEPKc.isra.0>
   d56e2:	4601      	mov	r1, r0
   d56e4:	4620      	mov	r0, r4
   d56e6:	f7fe fe89 	bl	d43fc <_ZN5spark10JSONWriter5valueEPKc>
      writer.name("lat").value(CloudConfig::instance().getString("lat"));
   d56ea:	4958      	ldr	r1, [pc, #352]	; (d584c <_Z9sendEventv+0x1c0>)
   d56ec:	a811      	add	r0, sp, #68	; 0x44
   d56ee:	f7fe fe77 	bl	d43e0 <_ZN5spark10JSONWriter4nameEPKc>
   d56f2:	4604      	mov	r4, r0
   d56f4:	f002 f912 	bl	d791c <_ZN11CloudConfig8instanceEv>
   d56f8:	4954      	ldr	r1, [pc, #336]	; (d584c <_Z9sendEventv+0x1c0>)
   d56fa:	6840      	ldr	r0, [r0, #4]
   d56fc:	f7ff ffa4 	bl	d5648 <_ZN11CloudConfig9getStringEPKc.isra.0>
   d5700:	4601      	mov	r1, r0
   d5702:	4620      	mov	r0, r4
   d5704:	f7fe fe7a 	bl	d43fc <_ZN5spark10JSONWriter5valueEPKc>
      writer.name("longitude").value(CloudConfig::instance().getString("longitude"));
   d5708:	4951      	ldr	r1, [pc, #324]	; (d5850 <_Z9sendEventv+0x1c4>)
   d570a:	a811      	add	r0, sp, #68	; 0x44
   d570c:	f7fe fe68 	bl	d43e0 <_ZN5spark10JSONWriter4nameEPKc>
   d5710:	4604      	mov	r4, r0
   d5712:	f002 f903 	bl	d791c <_ZN11CloudConfig8instanceEv>
   d5716:	494e      	ldr	r1, [pc, #312]	; (d5850 <_Z9sendEventv+0x1c4>)
   d5718:	6840      	ldr	r0, [r0, #4]
   d571a:	f7ff ff95 	bl	d5648 <_ZN11CloudConfig9getStringEPKc.isra.0>
   d571e:	4601      	mov	r1, r0
   d5720:	4620      	mov	r0, r4
   d5722:	f7fe fe6b 	bl	d43fc <_ZN5spark10JSONWriter5valueEPKc>
      writer.name("product").value(CloudConfig::instance().getString("product"));
   d5726:	494b      	ldr	r1, [pc, #300]	; (d5854 <_Z9sendEventv+0x1c8>)
   d5728:	a811      	add	r0, sp, #68	; 0x44
   d572a:	f7fe fe59 	bl	d43e0 <_ZN5spark10JSONWriter4nameEPKc>
   d572e:	4604      	mov	r4, r0
   d5730:	f002 f8f4 	bl	d791c <_ZN11CloudConfig8instanceEv>
   d5734:	4947      	ldr	r1, [pc, #284]	; (d5854 <_Z9sendEventv+0x1c8>)
   d5736:	6840      	ldr	r0, [r0, #4]
   d5738:	f7ff ff86 	bl	d5648 <_ZN11CloudConfig9getStringEPKc.isra.0>
   d573c:	4601      	mov	r1, r0
   d573e:	4620      	mov	r0, r4
   d5740:	f7fe fe5c 	bl	d43fc <_ZN5spark10JSONWriter5valueEPKc>
      writer.name("client").value(CloudConfig::instance().getString("client"));
   d5744:	4944      	ldr	r1, [pc, #272]	; (d5858 <_Z9sendEventv+0x1cc>)
   d5746:	a811      	add	r0, sp, #68	; 0x44
   d5748:	f7fe fe4a 	bl	d43e0 <_ZN5spark10JSONWriter4nameEPKc>
   d574c:	4604      	mov	r4, r0
   d574e:	f002 f8e5 	bl	d791c <_ZN11CloudConfig8instanceEv>
   d5752:	4941      	ldr	r1, [pc, #260]	; (d5858 <_Z9sendEventv+0x1cc>)
   d5754:	6840      	ldr	r0, [r0, #4]
   d5756:	f7ff ff77 	bl	d5648 <_ZN11CloudConfig9getStringEPKc.isra.0>
   d575a:	4601      	mov	r1, r0
   d575c:	4620      	mov	r0, r4
   d575e:	f7fe fe4d 	bl	d43fc <_ZN5spark10JSONWriter5valueEPKc>
      writer.name("Device-Name").value(DeviceNameHelperRetained::instance().getName());
   d5762:	493e      	ldr	r1, [pc, #248]	; (d585c <_Z9sendEventv+0x1d0>)
   d5764:	a811      	add	r0, sp, #68	; 0x44
   d5766:	f7fe fe3b 	bl	d43e0 <_ZN5spark10JSONWriter4nameEPKc>
   d576a:	4604      	mov	r4, r0
   d576c:	f002 fc34 	bl	d7fd8 <_ZN24DeviceNameHelperRetained8instanceEv>
   d5770:	6841      	ldr	r1, [r0, #4]
   d5772:	2900      	cmp	r1, #0
   d5774:	d061      	beq.n	d583a <_Z9sendEventv+0x1ae>
   d5776:	310c      	adds	r1, #12
   d5778:	4620      	mov	r0, r4
   d577a:	f7fe fe3f 	bl	d43fc <_ZN5spark10JSONWriter5valueEPKc>
      writer.name("device_id").value(myDeviceID.c_str());
   d577e:	4938      	ldr	r1, [pc, #224]	; (d5860 <_Z9sendEventv+0x1d4>)
      if (sysStatus.operatingMode == 1){
   d5780:	4d38      	ldr	r5, [pc, #224]	; (d5864 <_Z9sendEventv+0x1d8>)
   d5782:	4c39      	ldr	r4, [pc, #228]	; (d5868 <_Z9sendEventv+0x1dc>)
      writer.name("device_id").value(myDeviceID.c_str());
   d5784:	a811      	add	r0, sp, #68	; 0x44
   d5786:	f7fe fe2b 	bl	d43e0 <_ZN5spark10JSONWriter4nameEPKc>
   d578a:	990d      	ldr	r1, [sp, #52]	; 0x34
   d578c:	f7fe fe36 	bl	d43fc <_ZN5spark10JSONWriter5valueEPKc>
    writer.endObject();
   d5790:	a811      	add	r0, sp, #68	; 0x44
   d5792:	f004 f878 	bl	d9886 <_ZN5spark10JSONWriter9endObjectEv>
    writer.name("values");
   d5796:	4935      	ldr	r1, [pc, #212]	; (d586c <_Z9sendEventv+0x1e0>)
   d5798:	a811      	add	r0, sp, #68	; 0x44
   d579a:	f7fe fe21 	bl	d43e0 <_ZN5spark10JSONWriter4nameEPKc>
    writer.beginObject();
   d579e:	a811      	add	r0, sp, #68	; 0x44
   d57a0:	f004 f887 	bl	d98b2 <_ZN5spark10JSONWriter11beginObjectEv>
      if (sysStatus.operatingMode == 1){
   d57a4:	6aab      	ldr	r3, [r5, #40]	; 0x28
   d57a6:	2b01      	cmp	r3, #1
   d57a8:	d170      	bne.n	d588c <_Z9sendEventv+0x200>
        writer.name("sensorOne").value(sensorData.sensorOneCurrent);
   d57aa:	4931      	ldr	r1, [pc, #196]	; (d5870 <_Z9sendEventv+0x1e4>)
   d57ac:	a811      	add	r0, sp, #68	; 0x44
   d57ae:	f7fe fe17 	bl	d43e0 <_ZN5spark10JSONWriter4nameEPKc>
   d57b2:	4607      	mov	r7, r0
   d57b4:	6820      	ldr	r0, [r4, #0]
   d57b6:	f005 faf7 	bl	dada8 <__aeabi_f2d>
   d57ba:	ec41 0b10 	vmov	d0, r0, r1
   d57be:	4638      	mov	r0, r7
   d57c0:	f004 f8ae 	bl	d9920 <_ZN5spark10JSONWriter5valueEd>
        writer.name("sensorTwo").value(sensorData.sensorTwoCurrent);
   d57c4:	492b      	ldr	r1, [pc, #172]	; (d5874 <_Z9sendEventv+0x1e8>)
   d57c6:	a811      	add	r0, sp, #68	; 0x44
   d57c8:	f7fe fe0a 	bl	d43e0 <_ZN5spark10JSONWriter4nameEPKc>
   d57cc:	4607      	mov	r7, r0
   d57ce:	6860      	ldr	r0, [r4, #4]
   d57d0:	f005 faea 	bl	dada8 <__aeabi_f2d>
   d57d4:	ec41 0b10 	vmov	d0, r0, r1
   d57d8:	4638      	mov	r0, r7
   d57da:	f004 f8a1 	bl	d9920 <_ZN5spark10JSONWriter5valueEd>
        writer.name("sensorThree").value(sensorData.sensorThreeCurrent);
   d57de:	4926      	ldr	r1, [pc, #152]	; (d5878 <_Z9sendEventv+0x1ec>)
   d57e0:	a811      	add	r0, sp, #68	; 0x44
   d57e2:	f7fe fdfd 	bl	d43e0 <_ZN5spark10JSONWriter4nameEPKc>
   d57e6:	4607      	mov	r7, r0
   d57e8:	68a0      	ldr	r0, [r4, #8]
        writer.name("SensorOneT").value(sensorData.I_ThreePhaseLoad_One[2]);
   d57ea:	f005 fadd 	bl	dada8 <__aeabi_f2d>
   d57ee:	ec41 0b10 	vmov	d0, r0, r1
   d57f2:	4638      	mov	r0, r7
   d57f4:	f004 f894 	bl	d9920 <_ZN5spark10JSONWriter5valueEd>
        writer.name("sensorFour").value(sensorData.sensorFourCurrent);
   d57f8:	4920      	ldr	r1, [pc, #128]	; (d587c <_Z9sendEventv+0x1f0>)
   d57fa:	a811      	add	r0, sp, #68	; 0x44
   d57fc:	f7fe fdf0 	bl	d43e0 <_ZN5spark10JSONWriter4nameEPKc>
   d5800:	4607      	mov	r7, r0
   d5802:	68e0      	ldr	r0, [r4, #12]
        writer.name("SensorOneN").value(sensorData.Four_ThreePhaseLoad_I[3]);
   d5804:	f005 fad0 	bl	dada8 <__aeabi_f2d>
   d5808:	ec41 0b10 	vmov	d0, r0, r1
   d580c:	4638      	mov	r0, r7
   d580e:	f004 f887 	bl	d9920 <_ZN5spark10JSONWriter5valueEd>
        writer.name("sensorFive").value(sensorData.sensorFiveCurrent);
   d5812:	491b      	ldr	r1, [pc, #108]	; (d5880 <_Z9sendEventv+0x1f4>)
   d5814:	a811      	add	r0, sp, #68	; 0x44
   d5816:	f7fe fde3 	bl	d43e0 <_ZN5spark10JSONWriter4nameEPKc>
   d581a:	4607      	mov	r7, r0
   d581c:	6920      	ldr	r0, [r4, #16]
   d581e:	f005 fac3 	bl	dada8 <__aeabi_f2d>
   d5822:	ec41 0b10 	vmov	d0, r0, r1
   d5826:	4638      	mov	r0, r7
   d5828:	f004 f87a 	bl	d9920 <_ZN5spark10JSONWriter5valueEd>
        writer.name("sensorSix").value(sensorData.sensorSixCurrent);
   d582c:	4915      	ldr	r1, [pc, #84]	; (d5884 <_Z9sendEventv+0x1f8>)
   d582e:	a811      	add	r0, sp, #68	; 0x44
   d5830:	f7fe fdd6 	bl	d43e0 <_ZN5spark10JSONWriter4nameEPKc>
   d5834:	4607      	mov	r7, r0
   d5836:	6960      	ldr	r0, [r4, #20]
   d5838:	e072      	b.n	d5920 <_Z9sendEventv+0x294>
   d583a:	4913      	ldr	r1, [pc, #76]	; (d5888 <_Z9sendEventv+0x1fc>)
   d583c:	e79c      	b.n	d5778 <_Z9sendEventv+0xec>
   d583e:	bf00      	nop
   d5840:	000de414 	.word	0x000de414
   d5844:	000dd940 	.word	0x000dd940
   d5848:	000dd92c 	.word	0x000dd92c
   d584c:	000dd945 	.word	0x000dd945
   d5850:	000dd949 	.word	0x000dd949
   d5854:	000dd953 	.word	0x000dd953
   d5858:	000dd95b 	.word	0x000dd95b
   d585c:	000dd962 	.word	0x000dd962
   d5860:	000dd96e 	.word	0x000dd96e
   d5864:	2003e590 	.word	0x2003e590
   d5868:	2003e440 	.word	0x2003e440
   d586c:	000dd978 	.word	0x000dd978
   d5870:	000dd97f 	.word	0x000dd97f
   d5874:	000dd989 	.word	0x000dd989
   d5878:	000dd993 	.word	0x000dd993
   d587c:	000dd99f 	.word	0x000dd99f
   d5880:	000dd9aa 	.word	0x000dd9aa
   d5884:	000dd9b5 	.word	0x000dd9b5
   d5888:	000de518 	.word	0x000de518
      else if (sysStatus.operatingMode == 2){
   d588c:	2b02      	cmp	r3, #2
   d588e:	f040 80b0 	bne.w	d59f2 <_Z9sendEventv+0x366>
        writer.name("SensorOneR").value(sensorData.I_ThreePhaseLoad_One[0]);
   d5892:	49a4      	ldr	r1, [pc, #656]	; (d5b24 <_Z9sendEventv+0x498>)
   d5894:	a811      	add	r0, sp, #68	; 0x44
   d5896:	f7fe fda3 	bl	d43e0 <_ZN5spark10JSONWriter4nameEPKc>
   d589a:	4607      	mov	r7, r0
   d589c:	6b20      	ldr	r0, [r4, #48]	; 0x30
   d589e:	f005 fa83 	bl	dada8 <__aeabi_f2d>
   d58a2:	ec41 0b10 	vmov	d0, r0, r1
   d58a6:	4638      	mov	r0, r7
   d58a8:	f004 f83a 	bl	d9920 <_ZN5spark10JSONWriter5valueEd>
        writer.name("SensorOneS").value(sensorData.I_ThreePhaseLoad_One[1]);
   d58ac:	499e      	ldr	r1, [pc, #632]	; (d5b28 <_Z9sendEventv+0x49c>)
   d58ae:	a811      	add	r0, sp, #68	; 0x44
   d58b0:	f7fe fd96 	bl	d43e0 <_ZN5spark10JSONWriter4nameEPKc>
   d58b4:	4607      	mov	r7, r0
   d58b6:	6b60      	ldr	r0, [r4, #52]	; 0x34
   d58b8:	f005 fa76 	bl	dada8 <__aeabi_f2d>
   d58bc:	ec41 0b10 	vmov	d0, r0, r1
   d58c0:	4638      	mov	r0, r7
   d58c2:	f004 f82d 	bl	d9920 <_ZN5spark10JSONWriter5valueEd>
        writer.name("SensorOneT").value(sensorData.I_ThreePhaseLoad_One[2]);
   d58c6:	4999      	ldr	r1, [pc, #612]	; (d5b2c <_Z9sendEventv+0x4a0>)
   d58c8:	a811      	add	r0, sp, #68	; 0x44
   d58ca:	f7fe fd89 	bl	d43e0 <_ZN5spark10JSONWriter4nameEPKc>
   d58ce:	4607      	mov	r7, r0
   d58d0:	6ba0      	ldr	r0, [r4, #56]	; 0x38
   d58d2:	f005 fa69 	bl	dada8 <__aeabi_f2d>
   d58d6:	ec41 0b10 	vmov	d0, r0, r1
   d58da:	4638      	mov	r0, r7
   d58dc:	f004 f820 	bl	d9920 <_ZN5spark10JSONWriter5valueEd>
        writer.name("SensorTwoR").value(sensorData.I_ThreePhaseLoad_Two[0]);
   d58e0:	4993      	ldr	r1, [pc, #588]	; (d5b30 <_Z9sendEventv+0x4a4>)
   d58e2:	a811      	add	r0, sp, #68	; 0x44
   d58e4:	f7fe fd7c 	bl	d43e0 <_ZN5spark10JSONWriter4nameEPKc>
   d58e8:	4607      	mov	r7, r0
   d58ea:	6ca0      	ldr	r0, [r4, #72]	; 0x48
   d58ec:	f005 fa5c 	bl	dada8 <__aeabi_f2d>
   d58f0:	ec41 0b10 	vmov	d0, r0, r1
   d58f4:	4638      	mov	r0, r7
   d58f6:	f004 f813 	bl	d9920 <_ZN5spark10JSONWriter5valueEd>
        writer.name("SensorTwoS").value(sensorData.I_ThreePhaseLoad_Two[1]);
   d58fa:	498e      	ldr	r1, [pc, #568]	; (d5b34 <_Z9sendEventv+0x4a8>)
   d58fc:	a811      	add	r0, sp, #68	; 0x44
   d58fe:	f7fe fd6f 	bl	d43e0 <_ZN5spark10JSONWriter4nameEPKc>
   d5902:	4607      	mov	r7, r0
   d5904:	6ce0      	ldr	r0, [r4, #76]	; 0x4c
   d5906:	f005 fa4f 	bl	dada8 <__aeabi_f2d>
   d590a:	ec41 0b10 	vmov	d0, r0, r1
   d590e:	4638      	mov	r0, r7
   d5910:	f004 f806 	bl	d9920 <_ZN5spark10JSONWriter5valueEd>
        writer.name("SensorTwoT").value(sensorData.I_ThreePhaseLoad_Two[2]);
   d5914:	4988      	ldr	r1, [pc, #544]	; (d5b38 <_Z9sendEventv+0x4ac>)
   d5916:	a811      	add	r0, sp, #68	; 0x44
   d5918:	f7fe fd62 	bl	d43e0 <_ZN5spark10JSONWriter4nameEPKc>
   d591c:	4607      	mov	r7, r0
   d591e:	6d20      	ldr	r0, [r4, #80]	; 0x50
        writer.name("sensorSix").value(sensorData.sensorSixCurrent);
   d5920:	f005 fa42 	bl	dada8 <__aeabi_f2d>
   d5924:	ec41 0b10 	vmov	d0, r0, r1
   d5928:	4638      	mov	r0, r7
   d592a:	f003 fff9 	bl	d9920 <_ZN5spark10JSONWriter5valueEd>
        writer.name("Mode").value(sysStatus.operatingMode);
   d592e:	4983      	ldr	r1, [pc, #524]	; (d5b3c <_Z9sendEventv+0x4b0>)
   d5930:	a811      	add	r0, sp, #68	; 0x44
   d5932:	f7fe fd55 	bl	d43e0 <_ZN5spark10JSONWriter4nameEPKc>
   d5936:	6aa9      	ldr	r1, [r5, #40]	; 0x28
   d5938:	f003 ffe0 	bl	d98fc <_ZN5spark10JSONWriter5valueEi>
    writer.endObject();
   d593c:	a811      	add	r0, sp, #68	; 0x44
   d593e:	f003 ffa2 	bl	d9886 <_ZN5spark10JSONWriter9endObjectEv>
  writer.endObject();
   d5942:	a811      	add	r0, sp, #68	; 0x44
   d5944:	f003 ff9f 	bl	d9886 <_ZN5spark10JSONWriter9endObjectEv>
  if (sysStatus.operatingMode == 1){
   d5948:	6aab      	ldr	r3, [r5, #40]	; 0x28
   d594a:	2b01      	cmp	r3, #1
   d594c:	f040 80a5 	bne.w	d5a9a <_Z9sendEventv+0x40e>
    snprintf(data, sizeof(data), "{\"sensorOne\":%4.1f, \"sensorTwo\":%4.1f,  \"sensorThree\":%4.1f,  \"sensorFour\":%4.1f,  \"sensorFive\":%4.1f,\"sensorSix\":%4.1f,\"Mode\":1}", sensorData.sensorOneCurrent,sensorData.sensorTwoCurrent,sensorData.sensorThreeCurrent,sensorData.sensorFourCurrent,sensorData.sensorFiveCurrent,sensorData.sensorSixCurrent);
   d5950:	6960      	ldr	r0, [r4, #20]
   d5952:	f005 fa29 	bl	dada8 <__aeabi_f2d>
   d5956:	e9cd 010a 	strd	r0, r1, [sp, #40]	; 0x28
   d595a:	6920      	ldr	r0, [r4, #16]
   d595c:	f005 fa24 	bl	dada8 <__aeabi_f2d>
   d5960:	e9cd 0108 	strd	r0, r1, [sp, #32]
   d5964:	68e0      	ldr	r0, [r4, #12]
   d5966:	f005 fa1f 	bl	dada8 <__aeabi_f2d>
   d596a:	e9cd 0106 	strd	r0, r1, [sp, #24]
   d596e:	68a0      	ldr	r0, [r4, #8]
   d5970:	f005 fa1a 	bl	dada8 <__aeabi_f2d>
   d5974:	e9cd 0104 	strd	r0, r1, [sp, #16]
   d5978:	6860      	ldr	r0, [r4, #4]
   d597a:	f005 fa15 	bl	dada8 <__aeabi_f2d>
   d597e:	e9cd 0102 	strd	r0, r1, [sp, #8]
   d5982:	6820      	ldr	r0, [r4, #0]
   d5984:	f005 fa10 	bl	dada8 <__aeabi_f2d>
   d5988:	e9cd 0100 	strd	r0, r1, [sp]
   d598c:	4a6c      	ldr	r2, [pc, #432]	; (d5b40 <_Z9sendEventv+0x4b4>)
    snprintf(data, sizeof(data), "{\"SensorOneR\":%4.1f, \"SensorOneS\":%4.1f,  \"SensorOneT\":%4.1f,  \"SensorOneN\":%4.1f,  \"sensorFive\":%4.1f,\"sensorSix\":%4.1f,\"Mode\":4}", sensorData.Four_ThreePhaseLoad_I[0] ,sensorData.Four_ThreePhaseLoad_I[1],sensorData.Four_ThreePhaseLoad_I[2],sensorData.Four_ThreePhaseLoad_I[3],sensorData.sensorFiveCurrent,sensorData.sensorSixCurrent);
   d598e:	f44f 7180 	mov.w	r1, #256	; 0x100
   d5992:	a816      	add	r0, sp, #88	; 0x58
   d5994:	f003 f864 	bl	d8a60 <snprintf>
  publishQueue.publish("powermonitoring_hook", data, PRIVATE);
   d5998:	4d6a      	ldr	r5, [pc, #424]	; (d5b44 <_Z9sendEventv+0x4b8>)
   d599a:	496b      	ldr	r1, [pc, #428]	; (d5b48 <_Z9sendEventv+0x4bc>)
   d599c:	486b      	ldr	r0, [pc, #428]	; (d5b4c <_Z9sendEventv+0x4c0>)
   d599e:	2700      	movs	r7, #0
   d59a0:	f88d 7000 	strb.w	r7, [sp]
   d59a4:	782b      	ldrb	r3, [r5, #0]
   d59a6:	aa16      	add	r2, sp, #88	; 0x58
   d59a8:	f7fe fd4d 	bl	d4446 <_ZN21PublishQueueAsyncBase7publishEPKcS1_N8particle5FlagsI15PublishFlagTypehEES5_>
  publishQueue.publish("influx_hook", influx_hook, PRIVATE);
   d59ac:	f88d 7000 	strb.w	r7, [sp]
   d59b0:	4967      	ldr	r1, [pc, #412]	; (d5b50 <_Z9sendEventv+0x4c4>)
   d59b2:	782b      	ldrb	r3, [r5, #0]
   d59b4:	4865      	ldr	r0, [pc, #404]	; (d5b4c <_Z9sendEventv+0x4c0>)
   d59b6:	4632      	mov	r2, r6
   d59b8:	f7fe fd45 	bl	d4446 <_ZN21PublishQueueAsyncBase7publishEPKcS1_N8particle5FlagsI15PublishFlagTypehEES5_>
  sensorData.sensorOnePrevious = sensorData.sensorOneCurrent;
   d59bc:	6823      	ldr	r3, [r4, #0]
   d59be:	61a3      	str	r3, [r4, #24]
  sensorData.sensorTwoPrevious = sensorData.sensorTwoCurrent;
   d59c0:	6863      	ldr	r3, [r4, #4]
   d59c2:	61e3      	str	r3, [r4, #28]
  sensorData.sensorThreePrevious = sensorData.sensorThreeCurrent;
   d59c4:	68a3      	ldr	r3, [r4, #8]
   d59c6:	6223      	str	r3, [r4, #32]
  sensorData.sensorFourPrevious = sensorData.sensorFourCurrent;
   d59c8:	68e3      	ldr	r3, [r4, #12]
   d59ca:	6263      	str	r3, [r4, #36]	; 0x24
  sensorData.sensorFivePrevious = sensorData.sensorFiveCurrent;
   d59cc:	6923      	ldr	r3, [r4, #16]
   d59ce:	62a3      	str	r3, [r4, #40]	; 0x28
  sensorDataWriteNeeded = true;
   d59d0:	4a60      	ldr	r2, [pc, #384]	; (d5b54 <_Z9sendEventv+0x4c8>)
  sensorData.sensorSixPrevious = sensorData.sensorSixCurrent;
   d59d2:	6963      	ldr	r3, [r4, #20]
   d59d4:	62e3      	str	r3, [r4, #44]	; 0x2c
  sensorDataWriteNeeded = true;
   d59d6:	2301      	movs	r3, #1
   d59d8:	7013      	strb	r3, [r2, #0]
  dataInFlight = true;                                                                      // set the data inflight flag
   d59da:	4a5f      	ldr	r2, [pc, #380]	; (d5b58 <_Z9sendEventv+0x4cc>)
   d59dc:	7013      	strb	r3, [r2, #0]

#ifdef __cplusplus
extern "C" {
#endif

inline system_tick_t millis(void) { return HAL_Timer_Get_Milli_Seconds(); }
   d59de:	f002 fd79 	bl	d84d4 <HAL_Timer_Get_Milli_Seconds>
  webhookTimeStamp = millis();
   d59e2:	4b5e      	ldr	r3, [pc, #376]	; (d5b5c <_Z9sendEventv+0x4d0>)
   d59e4:	6018      	str	r0, [r3, #0]
  String myDeviceID = System.deviceID();                                                        // Device ID
   d59e6:	a80d      	add	r0, sp, #52	; 0x34
   d59e8:	f004 f9b6 	bl	d9d58 <_ZN6StringD1Ev>
}
   d59ec:	f50d 7d57 	add.w	sp, sp, #860	; 0x35c
   d59f0:	bdf0      	pop	{r4, r5, r6, r7, pc}
      else if (sysStatus.operatingMode == 3){
   d59f2:	2b03      	cmp	r3, #3
   d59f4:	d120      	bne.n	d5a38 <_Z9sendEventv+0x3ac>
        writer.name("SensorOneR").value(sensorData.I_ThreePhaseLoad_One[0]);
   d59f6:	494b      	ldr	r1, [pc, #300]	; (d5b24 <_Z9sendEventv+0x498>)
   d59f8:	a811      	add	r0, sp, #68	; 0x44
   d59fa:	f7fe fcf1 	bl	d43e0 <_ZN5spark10JSONWriter4nameEPKc>
   d59fe:	4607      	mov	r7, r0
   d5a00:	6b20      	ldr	r0, [r4, #48]	; 0x30
   d5a02:	f005 f9d1 	bl	dada8 <__aeabi_f2d>
   d5a06:	ec41 0b10 	vmov	d0, r0, r1
   d5a0a:	4638      	mov	r0, r7
   d5a0c:	f003 ff88 	bl	d9920 <_ZN5spark10JSONWriter5valueEd>
        writer.name("SensorOneS").value(sensorData.I_ThreePhaseLoad_One[1]);
   d5a10:	4945      	ldr	r1, [pc, #276]	; (d5b28 <_Z9sendEventv+0x49c>)
   d5a12:	a811      	add	r0, sp, #68	; 0x44
   d5a14:	f7fe fce4 	bl	d43e0 <_ZN5spark10JSONWriter4nameEPKc>
   d5a18:	4607      	mov	r7, r0
   d5a1a:	6b60      	ldr	r0, [r4, #52]	; 0x34
   d5a1c:	f005 f9c4 	bl	dada8 <__aeabi_f2d>
   d5a20:	ec41 0b10 	vmov	d0, r0, r1
   d5a24:	4638      	mov	r0, r7
   d5a26:	f003 ff7b 	bl	d9920 <_ZN5spark10JSONWriter5valueEd>
        writer.name("SensorOneT").value(sensorData.I_ThreePhaseLoad_One[2]);
   d5a2a:	4940      	ldr	r1, [pc, #256]	; (d5b2c <_Z9sendEventv+0x4a0>)
   d5a2c:	a811      	add	r0, sp, #68	; 0x44
   d5a2e:	f7fe fcd7 	bl	d43e0 <_ZN5spark10JSONWriter4nameEPKc>
   d5a32:	4607      	mov	r7, r0
   d5a34:	6ba0      	ldr	r0, [r4, #56]	; 0x38
   d5a36:	e6d8      	b.n	d57ea <_Z9sendEventv+0x15e>
      else if (sysStatus.operatingMode == 4){
   d5a38:	2b04      	cmp	r3, #4
   d5a3a:	f47f af7f 	bne.w	d593c <_Z9sendEventv+0x2b0>
        writer.name("SensorOneR").value(sensorData.Four_ThreePhaseLoad_I[0]);
   d5a3e:	4939      	ldr	r1, [pc, #228]	; (d5b24 <_Z9sendEventv+0x498>)
   d5a40:	a811      	add	r0, sp, #68	; 0x44
   d5a42:	f7fe fccd 	bl	d43e0 <_ZN5spark10JSONWriter4nameEPKc>
   d5a46:	4607      	mov	r7, r0
   d5a48:	6e20      	ldr	r0, [r4, #96]	; 0x60
   d5a4a:	f005 f9ad 	bl	dada8 <__aeabi_f2d>
   d5a4e:	ec41 0b10 	vmov	d0, r0, r1
   d5a52:	4638      	mov	r0, r7
   d5a54:	f003 ff64 	bl	d9920 <_ZN5spark10JSONWriter5valueEd>
        writer.name("SensorOneS").value(sensorData.Four_ThreePhaseLoad_I[1]);
   d5a58:	4933      	ldr	r1, [pc, #204]	; (d5b28 <_Z9sendEventv+0x49c>)
   d5a5a:	a811      	add	r0, sp, #68	; 0x44
   d5a5c:	f7fe fcc0 	bl	d43e0 <_ZN5spark10JSONWriter4nameEPKc>
   d5a60:	4607      	mov	r7, r0
   d5a62:	6e60      	ldr	r0, [r4, #100]	; 0x64
   d5a64:	f005 f9a0 	bl	dada8 <__aeabi_f2d>
   d5a68:	ec41 0b10 	vmov	d0, r0, r1
   d5a6c:	4638      	mov	r0, r7
   d5a6e:	f003 ff57 	bl	d9920 <_ZN5spark10JSONWriter5valueEd>
        writer.name("SensorOneT").value(sensorData.Four_ThreePhaseLoad_I[2]);
   d5a72:	492e      	ldr	r1, [pc, #184]	; (d5b2c <_Z9sendEventv+0x4a0>)
   d5a74:	a811      	add	r0, sp, #68	; 0x44
   d5a76:	f7fe fcb3 	bl	d43e0 <_ZN5spark10JSONWriter4nameEPKc>
   d5a7a:	4607      	mov	r7, r0
   d5a7c:	6ea0      	ldr	r0, [r4, #104]	; 0x68
   d5a7e:	f005 f993 	bl	dada8 <__aeabi_f2d>
   d5a82:	ec41 0b10 	vmov	d0, r0, r1
   d5a86:	4638      	mov	r0, r7
   d5a88:	f003 ff4a 	bl	d9920 <_ZN5spark10JSONWriter5valueEd>
        writer.name("SensorOneN").value(sensorData.Four_ThreePhaseLoad_I[3]);
   d5a8c:	4934      	ldr	r1, [pc, #208]	; (d5b60 <_Z9sendEventv+0x4d4>)
   d5a8e:	a811      	add	r0, sp, #68	; 0x44
   d5a90:	f7fe fca6 	bl	d43e0 <_ZN5spark10JSONWriter4nameEPKc>
   d5a94:	4607      	mov	r7, r0
   d5a96:	6ee0      	ldr	r0, [r4, #108]	; 0x6c
   d5a98:	e6b4      	b.n	d5804 <_Z9sendEventv+0x178>
  }else if (sysStatus.operatingMode == 2){
   d5a9a:	2b02      	cmp	r3, #2
   d5a9c:	d11f      	bne.n	d5ade <_Z9sendEventv+0x452>
    snprintf(data, sizeof(data), "{\"SensorOneR\":%4.1f, \"SensorOneS\":%4.1f,  \"SensorOneT\":%4.1f,  \"sensorTwoR\":%4.1f,  \"sensorTwoS\":%4.1f,\"sensorTwoT\":%4.1f,\"Mode\":2}", sensorData.I_ThreePhaseLoad_One[0],sensorData.I_ThreePhaseLoad_One[1],sensorData.I_ThreePhaseLoad_One[2],sensorData.I_ThreePhaseLoad_Two[0],sensorData.I_ThreePhaseLoad_Two[1],sensorData.I_ThreePhaseLoad_Two[2]);
   d5a9e:	6d20      	ldr	r0, [r4, #80]	; 0x50
   d5aa0:	f005 f982 	bl	dada8 <__aeabi_f2d>
   d5aa4:	e9cd 010a 	strd	r0, r1, [sp, #40]	; 0x28
   d5aa8:	6ce0      	ldr	r0, [r4, #76]	; 0x4c
   d5aaa:	f005 f97d 	bl	dada8 <__aeabi_f2d>
   d5aae:	e9cd 0108 	strd	r0, r1, [sp, #32]
   d5ab2:	6ca0      	ldr	r0, [r4, #72]	; 0x48
   d5ab4:	f005 f978 	bl	dada8 <__aeabi_f2d>
   d5ab8:	e9cd 0106 	strd	r0, r1, [sp, #24]
   d5abc:	6ba0      	ldr	r0, [r4, #56]	; 0x38
   d5abe:	f005 f973 	bl	dada8 <__aeabi_f2d>
   d5ac2:	e9cd 0104 	strd	r0, r1, [sp, #16]
   d5ac6:	6b60      	ldr	r0, [r4, #52]	; 0x34
   d5ac8:	f005 f96e 	bl	dada8 <__aeabi_f2d>
   d5acc:	e9cd 0102 	strd	r0, r1, [sp, #8]
   d5ad0:	6b20      	ldr	r0, [r4, #48]	; 0x30
   d5ad2:	f005 f969 	bl	dada8 <__aeabi_f2d>
   d5ad6:	4a23      	ldr	r2, [pc, #140]	; (d5b64 <_Z9sendEventv+0x4d8>)
   d5ad8:	e9cd 0100 	strd	r0, r1, [sp]
   d5adc:	e757      	b.n	d598e <_Z9sendEventv+0x302>
  }else if (sysStatus.operatingMode == 3){
   d5ade:	2b03      	cmp	r3, #3
   d5ae0:	d144      	bne.n	d5b6c <_Z9sendEventv+0x4e0>
    snprintf(data, sizeof(data), "{\"SensorOneR\":%4.1f, \"SensorOneS\":%4.1f,  \"SensorOneT\":%4.1f,  \"sensorFour\":%4.1f,  \"sensorFive\":%4.1f,\"sensorSix\":%4.1f,\"Mode\":3}", sensorData.I_ThreePhaseLoad_One[0],sensorData.I_ThreePhaseLoad_One[1],sensorData.I_ThreePhaseLoad_One[2],sensorData.sensorFourCurrent,sensorData.sensorFiveCurrent,sensorData.sensorSixCurrent);
   d5ae2:	6960      	ldr	r0, [r4, #20]
   d5ae4:	f005 f960 	bl	dada8 <__aeabi_f2d>
   d5ae8:	e9cd 010a 	strd	r0, r1, [sp, #40]	; 0x28
   d5aec:	6920      	ldr	r0, [r4, #16]
   d5aee:	f005 f95b 	bl	dada8 <__aeabi_f2d>
   d5af2:	e9cd 0108 	strd	r0, r1, [sp, #32]
   d5af6:	68e0      	ldr	r0, [r4, #12]
   d5af8:	f005 f956 	bl	dada8 <__aeabi_f2d>
   d5afc:	e9cd 0106 	strd	r0, r1, [sp, #24]
   d5b00:	6ba0      	ldr	r0, [r4, #56]	; 0x38
   d5b02:	f005 f951 	bl	dada8 <__aeabi_f2d>
   d5b06:	e9cd 0104 	strd	r0, r1, [sp, #16]
   d5b0a:	6b60      	ldr	r0, [r4, #52]	; 0x34
   d5b0c:	f005 f94c 	bl	dada8 <__aeabi_f2d>
   d5b10:	e9cd 0102 	strd	r0, r1, [sp, #8]
   d5b14:	6b20      	ldr	r0, [r4, #48]	; 0x30
   d5b16:	f005 f947 	bl	dada8 <__aeabi_f2d>
   d5b1a:	4a13      	ldr	r2, [pc, #76]	; (d5b68 <_Z9sendEventv+0x4dc>)
   d5b1c:	e9cd 0100 	strd	r0, r1, [sp]
   d5b20:	e735      	b.n	d598e <_Z9sendEventv+0x302>
   d5b22:	bf00      	nop
   d5b24:	000dd9bf 	.word	0x000dd9bf
   d5b28:	000dd9ca 	.word	0x000dd9ca
   d5b2c:	000dd9d5 	.word	0x000dd9d5
   d5b30:	000dd9e0 	.word	0x000dd9e0
   d5b34:	000dd9eb 	.word	0x000dd9eb
   d5b38:	000dd9f6 	.word	0x000dd9f6
   d5b3c:	000dd5a2 	.word	0x000dd5a2
   d5b40:	000dda0c 	.word	0x000dda0c
   d5b44:	2003df2d 	.word	0x2003df2d
   d5b48:	000ddc18 	.word	0x000ddc18
   d5b4c:	2003e3d0 	.word	0x2003e3d0
   d5b50:	000ddc2d 	.word	0x000ddc2d
   d5b54:	2003e4cc 	.word	0x2003e4cc
   d5b58:	2003df4f 	.word	0x2003df4f
   d5b5c:	2003e5c4 	.word	0x2003e5c4
   d5b60:	000dda01 	.word	0x000dda01
   d5b64:	000dda8e 	.word	0x000dda8e
   d5b68:	000ddb12 	.word	0x000ddb12
  }else if (sysStatus.operatingMode == 4){
   d5b6c:	2b04      	cmp	r3, #4
   d5b6e:	f47f af13 	bne.w	d5998 <_Z9sendEventv+0x30c>
    snprintf(data, sizeof(data), "{\"SensorOneR\":%4.1f, \"SensorOneS\":%4.1f,  \"SensorOneT\":%4.1f,  \"SensorOneN\":%4.1f,  \"sensorFive\":%4.1f,\"sensorSix\":%4.1f,\"Mode\":4}", sensorData.Four_ThreePhaseLoad_I[0] ,sensorData.Four_ThreePhaseLoad_I[1],sensorData.Four_ThreePhaseLoad_I[2],sensorData.Four_ThreePhaseLoad_I[3],sensorData.sensorFiveCurrent,sensorData.sensorSixCurrent);
   d5b72:	6960      	ldr	r0, [r4, #20]
   d5b74:	f005 f918 	bl	dada8 <__aeabi_f2d>
   d5b78:	e9cd 010a 	strd	r0, r1, [sp, #40]	; 0x28
   d5b7c:	6920      	ldr	r0, [r4, #16]
   d5b7e:	f005 f913 	bl	dada8 <__aeabi_f2d>
   d5b82:	e9cd 0108 	strd	r0, r1, [sp, #32]
   d5b86:	6ee0      	ldr	r0, [r4, #108]	; 0x6c
   d5b88:	f005 f90e 	bl	dada8 <__aeabi_f2d>
   d5b8c:	e9cd 0106 	strd	r0, r1, [sp, #24]
   d5b90:	6ea0      	ldr	r0, [r4, #104]	; 0x68
   d5b92:	f005 f909 	bl	dada8 <__aeabi_f2d>
   d5b96:	e9cd 0104 	strd	r0, r1, [sp, #16]
   d5b9a:	6e60      	ldr	r0, [r4, #100]	; 0x64
   d5b9c:	f005 f904 	bl	dada8 <__aeabi_f2d>
   d5ba0:	e9cd 0102 	strd	r0, r1, [sp, #8]
   d5ba4:	6e20      	ldr	r0, [r4, #96]	; 0x60
   d5ba6:	f005 f8ff 	bl	dada8 <__aeabi_f2d>
   d5baa:	4a02      	ldr	r2, [pc, #8]	; (d5bb4 <_Z9sendEventv+0x528>)
   d5bac:	e9cd 0100 	strd	r0, r1, [sp]
   d5bb0:	e6ed      	b.n	d598e <_Z9sendEventv+0x302>
   d5bb2:	bf00      	nop
   d5bb4:	000ddb95 	.word	0x000ddb95

000d5bb8 <loop>:
void loop() {
   d5bb8:	b537      	push	{r0, r1, r2, r4, r5, lr}
  switch(state) {
   d5bba:	4c79      	ldr	r4, [pc, #484]	; (d5da0 <loop+0x1e8>)
   d5bbc:	7823      	ldrb	r3, [r4, #0]
   d5bbe:	3b01      	subs	r3, #1
   d5bc0:	2b05      	cmp	r3, #5
   d5bc2:	d817      	bhi.n	d5bf4 <loop+0x3c>
   d5bc4:	e8df f003 	tbb	[pc, r3]
   d5bc8:	706403c6 	.word	0x706403c6
   d5bcc:	934a      	.short	0x934a
    if (sysStatus.verboseMode && state != oldState) publishStateTransition();
   d5bce:	4b75      	ldr	r3, [pc, #468]	; (d5da4 <loop+0x1ec>)
   d5bd0:	7a5b      	ldrb	r3, [r3, #9]
   d5bd2:	b12b      	cbz	r3, d5be0 <loop+0x28>
   d5bd4:	4b74      	ldr	r3, [pc, #464]	; (d5da8 <loop+0x1f0>)
   d5bd6:	781b      	ldrb	r3, [r3, #0]
   d5bd8:	2b02      	cmp	r3, #2
   d5bda:	d001      	beq.n	d5be0 <loop+0x28>
   d5bdc:	f7fe ff1c 	bl	d4a18 <_Z22publishStateTransitionv>
    if (!(Time.now() % wakeBoundary)) state = REPORTING_DETERMINATION;                                                     
   d5be0:	f004 fb5b 	bl	da29a <_ZN9TimeClass3nowEv>
   d5be4:	230a      	movs	r3, #10
   d5be6:	fb90 f2f3 	sdiv	r2, r0, r3
   d5bea:	fb02 0313 	mls	r3, r2, r3, r0
   d5bee:	b90b      	cbnz	r3, d5bf4 <loop+0x3c>
   d5bf0:	2305      	movs	r3, #5
    else state = IDLE_STATE;
   d5bf2:	7023      	strb	r3, [r4, #0]
  DeviceNameHelperRetained::instance().loop();
   d5bf4:	f002 f9f0 	bl	d7fd8 <_ZN24DeviceNameHelperRetained8instanceEv>
   d5bf8:	f002 f9ca 	bl	d7f90 <_ZN16DeviceNameHelper4loopEv>
  CloudConfig::instance().loop();
   d5bfc:	f001 fe8e 	bl	d791c <_ZN11CloudConfig8instanceEv>
   d5c00:	f001 fea7 	bl	d7952 <_ZN11CloudConfig4loopEv>
  rtc.loop();                                                                               // keeps the clock up to date
   d5c04:	4869      	ldr	r0, [pc, #420]	; (d5dac <loop+0x1f4>)
   d5c06:	f001 f9f1 	bl	d6fec <_ZN8MCP794104loopEv>
  if (watchdogFlag) petWatchdog();                                                          // Watchdog flag is raised - time to pet the watchdog
   d5c0a:	4b69      	ldr	r3, [pc, #420]	; (d5db0 <loop+0x1f8>)
   d5c0c:	781b      	ldrb	r3, [r3, #0]
   d5c0e:	b10b      	cbz	r3, d5c14 <loop+0x5c>
   d5c10:	f7fe feda 	bl	d49c8 <_Z11petWatchdogv>
  if (sysStatusWriteNeeded) {
   d5c14:	4c67      	ldr	r4, [pc, #412]	; (d5db4 <loop+0x1fc>)
   d5c16:	7823      	ldrb	r3, [r4, #0]
   d5c18:	b13b      	cbz	r3, d5c2a <loop+0x72>
   d5c1a:	2330      	movs	r3, #48	; 0x30
   d5c1c:	4a61      	ldr	r2, [pc, #388]	; (d5da4 <loop+0x1ec>)
   d5c1e:	4866      	ldr	r0, [pc, #408]	; (d5db8 <loop+0x200>)
   d5c20:	2101      	movs	r1, #1
   d5c22:	f000 fe06 	bl	d6832 <_ZN6MB85RC9writeDataEjPKhj>
    sysStatusWriteNeeded = false;
   d5c26:	2300      	movs	r3, #0
   d5c28:	7023      	strb	r3, [r4, #0]
  if (sensorDataWriteNeeded) {
   d5c2a:	4c64      	ldr	r4, [pc, #400]	; (d5dbc <loop+0x204>)
   d5c2c:	7823      	ldrb	r3, [r4, #0]
   d5c2e:	b143      	cbz	r3, d5c42 <loop+0x8a>
   d5c30:	238c      	movs	r3, #140	; 0x8c
   d5c32:	4a63      	ldr	r2, [pc, #396]	; (d5dc0 <loop+0x208>)
   d5c34:	4860      	ldr	r0, [pc, #384]	; (d5db8 <loop+0x200>)
   d5c36:	f44f 7100 	mov.w	r1, #512	; 0x200
   d5c3a:	f000 fdfa 	bl	d6832 <_ZN6MB85RC9writeDataEjPKhj>
    sensorDataWriteNeeded = false;
   d5c3e:	2300      	movs	r3, #0
   d5c40:	7023      	strb	r3, [r4, #0]
  if (constantsStatusWriteNeeded) {
   d5c42:	4c60      	ldr	r4, [pc, #384]	; (d5dc4 <loop+0x20c>)
   d5c44:	7823      	ldrb	r3, [r4, #0]
   d5c46:	b13b      	cbz	r3, d5c58 <loop+0xa0>
   d5c48:	2318      	movs	r3, #24
   d5c4a:	4a5f      	ldr	r2, [pc, #380]	; (d5dc8 <loop+0x210>)
   d5c4c:	485a      	ldr	r0, [pc, #360]	; (d5db8 <loop+0x200>)
   d5c4e:	21a0      	movs	r1, #160	; 0xa0
   d5c50:	f000 fdef 	bl	d6832 <_ZN6MB85RC9writeDataEjPKhj>
    constantsStatusWriteNeeded = false;
   d5c54:	2300      	movs	r3, #0
   d5c56:	7023      	strb	r3, [r4, #0]
}
   d5c58:	b003      	add	sp, #12
   d5c5a:	bd30      	pop	{r4, r5, pc}
    if (sysStatus.verboseMode && state != oldState) publishStateTransition();
   d5c5c:	4d51      	ldr	r5, [pc, #324]	; (d5da4 <loop+0x1ec>)
   d5c5e:	7a6a      	ldrb	r2, [r5, #9]
   d5c60:	b12a      	cbz	r2, d5c6e <loop+0xb6>
   d5c62:	4b51      	ldr	r3, [pc, #324]	; (d5da8 <loop+0x1f0>)
   d5c64:	781b      	ldrb	r3, [r3, #0]
   d5c66:	2b05      	cmp	r3, #5
   d5c68:	d001      	beq.n	d5c6e <loop+0xb6>
   d5c6a:	f7fe fed5 	bl	d4a18 <_Z22publishStateTransitionv>
    if (takeMeasurements()) state = REPORTING_STATE;
   d5c6e:	f7fe ff79 	bl	d4b64 <_Z16takeMeasurementsv>
   d5c72:	b108      	cbz	r0, d5c78 <loop+0xc0>
    state = REPORTING_STATE;
   d5c74:	2304      	movs	r3, #4
   d5c76:	e7bc      	b.n	d5bf2 <loop+0x3a>
    else if (!(Time.now() % sysStatus.reportingBoundary)) state = MEASURING_STATE;
   d5c78:	f004 fb0f 	bl	da29a <_ZN9TimeClass3nowEv>
   d5c7c:	6a6b      	ldr	r3, [r5, #36]	; 0x24
   d5c7e:	fb90 f2f3 	sdiv	r2, r0, r3
   d5c82:	fb02 0313 	mls	r3, r2, r3, r0
   d5c86:	b90b      	cbnz	r3, d5c8c <loop+0xd4>
   d5c88:	2303      	movs	r3, #3
   d5c8a:	e7b2      	b.n	d5bf2 <loop+0x3a>
    else state = IDLE_STATE;
   d5c8c:	2302      	movs	r3, #2
   d5c8e:	e7b0      	b.n	d5bf2 <loop+0x3a>
    if (sysStatus.verboseMode && state != oldState) publishStateTransition();
   d5c90:	4b44      	ldr	r3, [pc, #272]	; (d5da4 <loop+0x1ec>)
   d5c92:	7a5b      	ldrb	r3, [r3, #9]
   d5c94:	b12b      	cbz	r3, d5ca2 <loop+0xea>
   d5c96:	4b44      	ldr	r3, [pc, #272]	; (d5da8 <loop+0x1f0>)
   d5c98:	781b      	ldrb	r3, [r3, #0]
   d5c9a:	2b03      	cmp	r3, #3
   d5c9c:	d001      	beq.n	d5ca2 <loop+0xea>
   d5c9e:	f7fe febb 	bl	d4a18 <_Z22publishStateTransitionv>
    takeMeasurements();
   d5ca2:	f7fe ff5f 	bl	d4b64 <_Z16takeMeasurementsv>
   d5ca6:	e7e5      	b.n	d5c74 <loop+0xbc>
    if (sysStatus.verboseMode && state != oldState) publishStateTransition();               // Reporting - hourly or on command
   d5ca8:	4b3e      	ldr	r3, [pc, #248]	; (d5da4 <loop+0x1ec>)
   d5caa:	7a5b      	ldrb	r3, [r3, #9]
   d5cac:	b12b      	cbz	r3, d5cba <loop+0x102>
   d5cae:	4b3e      	ldr	r3, [pc, #248]	; (d5da8 <loop+0x1f0>)
   d5cb0:	781b      	ldrb	r3, [r3, #0]
   d5cb2:	2b04      	cmp	r3, #4
   d5cb4:	d001      	beq.n	d5cba <loop+0x102>
   d5cb6:	f7fe feaf 	bl	d4a18 <_Z22publishStateTransitionv>
   d5cba:	f002 fe09 	bl	d88d0 <spark_cloud_flag_connected>
    if (Particle.connected()) {
   d5cbe:	b168      	cbz	r0, d5cdc <loop+0x124>
      if (Time.hour() == 12) Particle.syncTime();                                           // Set the clock each day at noon
   d5cc0:	f004 fafc 	bl	da2bc <_ZN9TimeClass4hourEv>
   d5cc4:	280c      	cmp	r0, #12
   d5cc6:	d105      	bne.n	d5cd4 <loop+0x11c>
   d5cc8:	f002 fe02 	bl	d88d0 <spark_cloud_flag_connected>
        if (!connected()) {
   d5ccc:	b110      	cbz	r0, d5cd4 <loop+0x11c>
        return spark_sync_time(NULL);
   d5cce:	2000      	movs	r0, #0
   d5cd0:	f002 fe1e 	bl	d8910 <spark_sync_time>
      sendEvent();                                                                          // Send data to Ubidots
   d5cd4:	f7ff fcda 	bl	d568c <_Z9sendEventv>
      state = RESP_WAIT_STATE;                                                              // Wait for Response
   d5cd8:	2306      	movs	r3, #6
   d5cda:	e78a      	b.n	d5bf2 <loop+0x3a>
        spark_cloud_flag_connect();
   d5cdc:	f002 fdf0 	bl	d88c0 <spark_cloud_flag_connect>
      state = IDLE_STATE;
   d5ce0:	2302      	movs	r3, #2
   d5ce2:	7023      	strb	r3, [r4, #0]
   d5ce4:	f002 fbf6 	bl	d84d4 <HAL_Timer_Get_Milli_Seconds>
      resetTimeStamp = millis();
   d5ce8:	4b38      	ldr	r3, [pc, #224]	; (d5dcc <loop+0x214>)
   d5cea:	6018      	str	r0, [r3, #0]
   d5cec:	e782      	b.n	d5bf4 <loop+0x3c>
    if (sysStatus.verboseMode && state != oldState) publishStateTransition();
   d5cee:	4b2d      	ldr	r3, [pc, #180]	; (d5da4 <loop+0x1ec>)
   d5cf0:	7a5b      	ldrb	r3, [r3, #9]
   d5cf2:	b12b      	cbz	r3, d5d00 <loop+0x148>
   d5cf4:	4b2c      	ldr	r3, [pc, #176]	; (d5da8 <loop+0x1f0>)
   d5cf6:	781b      	ldrb	r3, [r3, #0]
   d5cf8:	2b06      	cmp	r3, #6
   d5cfa:	d001      	beq.n	d5d00 <loop+0x148>
   d5cfc:	f7fe fe8c 	bl	d4a18 <_Z22publishStateTransitionv>
    if (!dataInFlight && !(Time.now() % wakeBoundary))                                       // Response received back to IDLE state - make sure we don't allow repetivie reporting events
   d5d00:	4b33      	ldr	r3, [pc, #204]	; (d5dd0 <loop+0x218>)
   d5d02:	781b      	ldrb	r3, [r3, #0]
   d5d04:	b943      	cbnz	r3, d5d18 <loop+0x160>
   d5d06:	f004 fac8 	bl	da29a <_ZN9TimeClass3nowEv>
   d5d0a:	230a      	movs	r3, #10
   d5d0c:	fb90 f2f3 	sdiv	r2, r0, r3
   d5d10:	fb02 0313 	mls	r3, r2, r3, r0
   d5d14:	2b00      	cmp	r3, #0
   d5d16:	d0b9      	beq.n	d5c8c <loop+0xd4>
   d5d18:	f002 fbdc 	bl	d84d4 <HAL_Timer_Get_Milli_Seconds>
    else if (millis() - webhookTimeStamp > webhookWait) {                                   // If it takes too long - will need to reset
   d5d1c:	4b2d      	ldr	r3, [pc, #180]	; (d5dd4 <loop+0x21c>)
   d5d1e:	681b      	ldr	r3, [r3, #0]
   d5d20:	1ac0      	subs	r0, r0, r3
   d5d22:	f64a 73c8 	movw	r3, #45000	; 0xafc8
   d5d26:	4298      	cmp	r0, r3
   d5d28:	f67f af64 	bls.w	d5bf4 <loop+0x3c>
   d5d2c:	f002 fbd2 	bl	d84d4 <HAL_Timer_Get_Milli_Seconds>
      resetTimeStamp = millis();
   d5d30:	4d26      	ldr	r5, [pc, #152]	; (d5dcc <loop+0x214>)
      publishQueue.publish("spark/device/session/end", "", PRIVATE);                        // If the device times out on the Webhook response, it will ensure a new session is started on next connect
   d5d32:	4a29      	ldr	r2, [pc, #164]	; (d5dd8 <loop+0x220>)
      resetTimeStamp = millis();
   d5d34:	6028      	str	r0, [r5, #0]
   d5d36:	2300      	movs	r3, #0
      publishQueue.publish("spark/device/session/end", "", PRIVATE);                        // If the device times out on the Webhook response, it will ensure a new session is started on next connect
   d5d38:	f88d 3000 	strb.w	r3, [sp]
   d5d3c:	4b27      	ldr	r3, [pc, #156]	; (d5ddc <loop+0x224>)
   d5d3e:	4928      	ldr	r1, [pc, #160]	; (d5de0 <loop+0x228>)
   d5d40:	781b      	ldrb	r3, [r3, #0]
   d5d42:	4828      	ldr	r0, [pc, #160]	; (d5de4 <loop+0x22c>)
   d5d44:	f7fe fb7f 	bl	d4446 <_ZN21PublishQueueAsyncBase7publishEPKcS1_N8particle5FlagsI15PublishFlagTypehEES5_>
      state = ERROR_STATE;                                                                  // Response timed out
   d5d48:	2301      	movs	r3, #1
   d5d4a:	7023      	strb	r3, [r4, #0]
   d5d4c:	f002 fbc2 	bl	d84d4 <HAL_Timer_Get_Milli_Seconds>
      resetTimeStamp = millis();
   d5d50:	6028      	str	r0, [r5, #0]
   d5d52:	e74f      	b.n	d5bf4 <loop+0x3c>
    if (state != oldState) publishStateTransition();
   d5d54:	4b14      	ldr	r3, [pc, #80]	; (d5da8 <loop+0x1f0>)
   d5d56:	781b      	ldrb	r3, [r3, #0]
   d5d58:	2b01      	cmp	r3, #1
   d5d5a:	d001      	beq.n	d5d60 <loop+0x1a8>
   d5d5c:	f7fe fe5c 	bl	d4a18 <_Z22publishStateTransitionv>
   d5d60:	f002 fbb8 	bl	d84d4 <HAL_Timer_Get_Milli_Seconds>
    if (millis() > resetTimeStamp + resetWait)
   d5d64:	4b19      	ldr	r3, [pc, #100]	; (d5dcc <loop+0x214>)
   d5d66:	681b      	ldr	r3, [r3, #0]
   d5d68:	f503 2392 	add.w	r3, r3, #299008	; 0x49000
   d5d6c:	f503 7378 	add.w	r3, r3, #992	; 0x3e0
   d5d70:	4283      	cmp	r3, r0
   d5d72:	f4bf af3f 	bcs.w	d5bf4 <loop+0x3c>
    static bool connected(void) { return spark_cloud_flag_connected(); }
   d5d76:	f002 fdab 	bl	d88d0 <spark_cloud_flag_connected>
      if (Particle.connected()) publishQueue.publish("State","Error State - Reset", PRIVATE); // Brodcast Reset Action
   d5d7a:	b148      	cbz	r0, d5d90 <loop+0x1d8>
   d5d7c:	2300      	movs	r3, #0
   d5d7e:	f88d 3000 	strb.w	r3, [sp]
   d5d82:	4b16      	ldr	r3, [pc, #88]	; (d5ddc <loop+0x224>)
   d5d84:	4a18      	ldr	r2, [pc, #96]	; (d5de8 <loop+0x230>)
   d5d86:	781b      	ldrb	r3, [r3, #0]
   d5d88:	4918      	ldr	r1, [pc, #96]	; (d5dec <loop+0x234>)
   d5d8a:	4816      	ldr	r0, [pc, #88]	; (d5de4 <loop+0x22c>)
   d5d8c:	f7fe fb5b 	bl	d4446 <_ZN21PublishQueueAsyncBase7publishEPKcS1_N8particle5FlagsI15PublishFlagTypehEES5_>
      delay(2000);
   d5d90:	f44f 60fa 	mov.w	r0, #2000	; 0x7d0
   d5d94:	f002 feb4 	bl	d8b00 <delay>
      System.reset();
   d5d98:	f004 f904 	bl	d9fa4 <_ZN11SystemClass5resetEv>
   d5d9c:	e72a      	b.n	d5bf4 <loop+0x3c>
   d5d9e:	bf00      	nop
   d5da0:	2003e58d 	.word	0x2003e58d
   d5da4:	2003e590 	.word	0x2003e590
   d5da8:	2003e3cc 	.word	0x2003e3cc
   d5dac:	2003e40c 	.word	0x2003e40c
   d5db0:	2003e5c1 	.word	0x2003e5c1
   d5db4:	2003e5c0 	.word	0x2003e5c0
   d5db8:	2003e3a0 	.word	0x2003e3a0
   d5dbc:	2003e4cc 	.word	0x2003e4cc
   d5dc0:	2003e440 	.word	0x2003e440
   d5dc4:	2003df4e 	.word	0x2003df4e
   d5dc8:	2003e428 	.word	0x2003e428
   d5dcc:	2003e408 	.word	0x2003e408
   d5dd0:	2003df4f 	.word	0x2003df4f
   d5dd4:	2003e5c4 	.word	0x2003e5c4
   d5dd8:	000de518 	.word	0x000de518
   d5ddc:	2003df2d 	.word	0x2003df2d
   d5de0:	000ddc39 	.word	0x000ddc39
   d5de4:	2003e3d0 	.word	0x2003e3d0
   d5de8:	000ddc52 	.word	0x000ddc52
   d5dec:	000ddc66 	.word	0x000ddc66

000d5df0 <_Z16keepAliveMessagev>:
void keepAliveMessage() {
   d5df0:	b51f      	push	{r0, r1, r2, r3, r4, lr}
        val_(val) {
}

template<typename TagT, typename ValueT>
inline particle::Flags<TagT, ValueT> particle::Flags<TagT, ValueT>::operator|(Flags<TagT, ValueT> flags) const {
    return Flags<TagT, ValueT>(val_ | flags.val_);
   d5df2:	4b09      	ldr	r3, [pc, #36]	; (d5e18 <_Z16keepAliveMessagev+0x28>)
   d5df4:	4a09      	ldr	r2, [pc, #36]	; (d5e1c <_Z16keepAliveMessagev+0x2c>)
   d5df6:	781b      	ldrb	r3, [r3, #0]
   d5df8:	7812      	ldrb	r2, [r2, #0]
        return publish_event(eventName, eventData, ttl, flags1 | flags2);
   d5dfa:	4909      	ldr	r1, [pc, #36]	; (d5e20 <_Z16keepAliveMessagev+0x30>)
   d5dfc:	4313      	orrs	r3, r2
   d5dfe:	f88d 3000 	strb.w	r3, [sp]
   d5e02:	2200      	movs	r2, #0
   d5e04:	233c      	movs	r3, #60	; 0x3c
   d5e06:	a802      	add	r0, sp, #8
   d5e08:	f003 f856 	bl	d8eb8 <_ZN10CloudClass13publish_eventEPKcS1_iN8particle5FlagsI15PublishFlagTypehEE>
   d5e0c:	a803      	add	r0, sp, #12
   d5e0e:	f7ff fbd1 	bl	d55b4 <_ZNSt14__shared_countILN9__gnu_cxx12_Lock_policyE0EED1Ev>
}
   d5e12:	b005      	add	sp, #20
   d5e14:	f85d fb04 	ldr.w	pc, [sp], #4
   d5e18:	2003df2c 	.word	0x2003df2c
   d5e1c:	2003df2d 	.word	0x2003df2d
   d5e20:	000ddc6c 	.word	0x000ddc6c

000d5e24 <_ZN18CloudConfigStorage5parseEv>:
    virtual void parse() { jsonObj = JSONValue::parseCopy(getJsonData()); };
   d5e24:	b510      	push	{r4, lr}
   d5e26:	6803      	ldr	r3, [r0, #0]
   d5e28:	b088      	sub	sp, #32
   d5e2a:	685b      	ldr	r3, [r3, #4]
   d5e2c:	4604      	mov	r4, r0
   d5e2e:	4798      	blx	r3
   d5e30:	9001      	str	r0, [sp, #4]
    return parseCopy(json, strlen(json));
   d5e32:	f005 fc20 	bl	db676 <strlen>
   d5e36:	9901      	ldr	r1, [sp, #4]
   d5e38:	4602      	mov	r2, r0
   d5e3a:	a805      	add	r0, sp, #20
   d5e3c:	f003 fe10 	bl	d9a60 <_ZN5spark9JSONValue9parseCopyEPKcj>
	_Sp_counted_base<_Lp>* __tmp = __r._M_pi;
   d5e40:	e9dd 1205 	ldrd	r1, r2, [sp, #20]
	__r._M_pi = _M_pi;
   d5e44:	2300      	movs	r3, #0

      __shared_ptr(__shared_ptr&& __r) noexcept
      : _M_ptr(__r._M_ptr), _M_refcount()
      {
	_M_refcount._M_swap(__r._M_refcount);
	__r._M_ptr = 0;
   d5e46:	e9cd 3305 	strd	r3, r3, [sp, #20]
    {
      // concept requirements
      __glibcxx_function_requires(_SGIAssignableConcept<_Tp>)

      _Tp __tmp = _GLIBCXX_MOVE(__a);
      __a = _GLIBCXX_MOVE(__b);
   d5e4a:	6863      	ldr	r3, [r4, #4]
   d5e4c:	9303      	str	r3, [sp, #12]
      __b = _GLIBCXX_MOVE(__tmp);
   d5e4e:	6061      	str	r1, [r4, #4]
	_Sp_counted_base<_Lp>* __tmp = __r._M_pi;
   d5e50:	68a3      	ldr	r3, [r4, #8]
	__r._M_pi = _M_pi;
   d5e52:	60a2      	str	r2, [r4, #8]
      ~__shared_ptr() = default;
   d5e54:	a804      	add	r0, sp, #16
	_M_pi = __tmp;
   d5e56:	9304      	str	r3, [sp, #16]
      ~__shared_ptr() = default;
   d5e58:	f7ff fbac 	bl	d55b4 <_ZNSt14__shared_countILN9__gnu_cxx12_Lock_policyE0EED1Ev>
class JSONValue {
   d5e5c:	9b07      	ldr	r3, [sp, #28]
   d5e5e:	60e3      	str	r3, [r4, #12]
   d5e60:	a806      	add	r0, sp, #24
   d5e62:	f7ff fba7 	bl	d55b4 <_ZNSt14__shared_countILN9__gnu_cxx12_Lock_policyE0EED1Ev>
   d5e66:	b008      	add	sp, #32
   d5e68:	bd10      	pop	{r4, pc}
	...

000d5e6c <_ZN26CloudConfigStorageRetainedD1Ev>:
class CloudConfigStorageRetained : public CloudConfigStorageData {
   d5e6c:	b510      	push	{r4, lr}
    virtual ~CloudConfigStorage() {};
   d5e6e:	4b04      	ldr	r3, [pc, #16]	; (d5e80 <_ZN26CloudConfigStorageRetainedD1Ev+0x14>)
class CloudConfigStorageRetained : public CloudConfigStorageData {
   d5e70:	4604      	mov	r4, r0
    virtual ~CloudConfigStorage() {};
   d5e72:	f840 3b04 	str.w	r3, [r0], #4
   d5e76:	3004      	adds	r0, #4
   d5e78:	f7ff fb9c 	bl	d55b4 <_ZNSt14__shared_countILN9__gnu_cxx12_Lock_policyE0EED1Ev>
class CloudConfigStorageRetained : public CloudConfigStorageData {
   d5e7c:	4620      	mov	r0, r4
   d5e7e:	bd10      	pop	{r4, pc}
   d5e80:	000dde44 	.word	0x000dde44

000d5e84 <_ZN26CloudConfigStorageRetainedD0Ev>:
   d5e84:	b510      	push	{r4, lr}
   d5e86:	4604      	mov	r4, r0
   d5e88:	f7ff fff0 	bl	d5e6c <_ZN26CloudConfigStorageRetainedD1Ev>
   d5e8c:	4620      	mov	r0, r4
   d5e8e:	2118      	movs	r1, #24
   d5e90:	f004 fcf9 	bl	da886 <_ZdlPvj>
   d5e94:	4620      	mov	r0, r4
   d5e96:	bd10      	pop	{r4, pc}

000d5e98 <_ZSt4swapISt9_Any_dataENSt9enable_ifIXsrSt6__and_IJSt6__not_ISt15__is_tuple_likeIT_EESt21is_move_constructibleIS5_ESt18is_move_assignableIS5_EEE5valueEvE4typeERS5_SF_>:
    swap(_Tp& __a, _Tp& __b)
   d5e98:	b513      	push	{r0, r1, r4, lr}
   d5e9a:	460b      	mov	r3, r1
   d5e9c:	4602      	mov	r2, r0
      _Tp __tmp = _GLIBCXX_MOVE(__a);
   d5e9e:	e9d0 0100 	ldrd	r0, r1, [r0]
   d5ea2:	466c      	mov	r4, sp
   d5ea4:	e884 0003 	stmia.w	r4, {r0, r1}
      __a = _GLIBCXX_MOVE(__b);
   d5ea8:	e893 0003 	ldmia.w	r3, {r0, r1}
   d5eac:	e882 0003 	stmia.w	r2, {r0, r1}
      __b = _GLIBCXX_MOVE(__tmp);
   d5eb0:	e894 0003 	ldmia.w	r4, {r0, r1}
   d5eb4:	e883 0003 	stmia.w	r3, {r0, r1}
    }
   d5eb8:	b002      	add	sp, #8
   d5eba:	bd10      	pop	{r4, pc}

000d5ebc <setup>:
void setup() {
   d5ebc:	e92d 47f0 	stmdb	sp!, {r4, r5, r6, r7, r8, r9, sl, lr}
  pinMode(wakeUpPin,INPUT);                                                                 // This pin is active HIGH, 
   d5ec0:	2100      	movs	r1, #0
void setup() {
   d5ec2:	b09a      	sub	sp, #104	; 0x68
  pinMode(wakeUpPin,INPUT);                                                                 // This pin is active HIGH, 
   d5ec4:	2008      	movs	r0, #8
   d5ec6:	f004 fc57 	bl	da778 <pinMode>
  pinMode(donePin,OUTPUT);                                                                  // Allows us to pet the watchdog
   d5eca:	2101      	movs	r1, #1
   d5ecc:	2005      	movs	r0, #5
   d5ece:	f004 fc53 	bl	da778 <pinMode>
  petWatchdog();                                                                            // Pet the watchdog - This will reset the watchdog time period AND 
   d5ed2:	f7fe fd79 	bl	d49c8 <_Z11petWatchdogv>
  attachInterrupt(wakeUpPin, watchdogISR, RISING);                                          // The watchdog timer will signal us and we have to respond
   d5ed6:	2300      	movs	r3, #0
   d5ed8:	9300      	str	r3, [sp, #0]
   d5eda:	2201      	movs	r2, #1
   d5edc:	f04f 33ff 	mov.w	r3, #4294967295	; 0xffffffff
   d5ee0:	49b1      	ldr	r1, [pc, #708]	; (d61a8 <setup+0x2ec>)
   d5ee2:	2008      	movs	r0, #8
   d5ee4:	f003 fa28 	bl	d9338 <_Z15attachInterrupttPFvvE13InterruptModeah>
  char StartupMessage[64] = "Startup Successful";                                           // Messages from Initialization
   d5ee8:	4bb0      	ldr	r3, [pc, #704]	; (d61ac <setup+0x2f0>)
   d5eea:	aa0a      	add	r2, sp, #40	; 0x28
   d5eec:	f103 0510 	add.w	r5, r3, #16
   d5ef0:	4617      	mov	r7, r2
   d5ef2:	6818      	ldr	r0, [r3, #0]
   d5ef4:	6859      	ldr	r1, [r3, #4]
   d5ef6:	4614      	mov	r4, r2
   d5ef8:	c403      	stmia	r4!, {r0, r1}
   d5efa:	3308      	adds	r3, #8
   d5efc:	42ab      	cmp	r3, r5
   d5efe:	4622      	mov	r2, r4
   d5f00:	d1f7      	bne.n	d5ef2 <setup+0x36>
   d5f02:	8819      	ldrh	r1, [r3, #0]
   d5f04:	789b      	ldrb	r3, [r3, #2]
   d5f06:	70a3      	strb	r3, [r4, #2]
   d5f08:	222d      	movs	r2, #45	; 0x2d
   d5f0a:	8021      	strh	r1, [r4, #0]
   d5f0c:	f10d 003b 	add.w	r0, sp, #59	; 0x3b
   d5f10:	2100      	movs	r1, #0
  state = INITIALIZATION_STATE;
   d5f12:	4ca7      	ldr	r4, [pc, #668]	; (d61b0 <setup+0x2f4>)
   d5f14:	2600      	movs	r6, #0
  char StartupMessage[64] = "Startup Successful";                                           // Messages from Initialization
   d5f16:	f005 fb53 	bl	db5c0 <memset>
   d5f1a:	a802      	add	r0, sp, #8
  state = INITIALIZATION_STATE;
   d5f1c:	7026      	strb	r6, [r4, #0]
   d5f1e:	f002 fcdf 	bl	d88e0 <spark_deviceID>
};

class StringSumHelper : public String
{
public:
	StringSumHelper(const String &s) : String(s) {}
   d5f22:	a902      	add	r1, sp, #8
   d5f24:	a806      	add	r0, sp, #24
   d5f26:	f003 ff85 	bl	d9e34 <_ZN6StringC1ERKS_>
  Particle.subscribe(System.deviceID() + "/hook-response/powermonitoring_hook/", UbidotsHandler, MY_DEVICES);
   d5f2a:	49a2      	ldr	r1, [pc, #648]	; (d61b4 <setup+0x2f8>)
   d5f2c:	a806      	add	r0, sp, #24
   d5f2e:	f003 ffc8 	bl	d9ec2 <_ZplRK15StringSumHelperPKc>
        return spark_subscribe(eventName, handler, NULL, scope, NULL, NULL);
   d5f32:	e9cd 6600 	strd	r6, r6, [sp]
   d5f36:	4633      	mov	r3, r6
   d5f38:	4632      	mov	r2, r6
   d5f3a:	499f      	ldr	r1, [pc, #636]	; (d61b8 <setup+0x2fc>)
   d5f3c:	6800      	ldr	r0, [r0, #0]
   d5f3e:	f002 fcdf 	bl	d8900 <spark_subscribe>
class StringSumHelper : public String
   d5f42:	a806      	add	r0, sp, #24
   d5f44:	f003 ff08 	bl	d9d58 <_ZN6StringD1Ev>
   d5f48:	a802      	add	r0, sp, #8
   d5f4a:	f003 ff05 	bl	d9d58 <_ZN6StringD1Ev>
        return _variable(varKey, var, STRING);
   d5f4e:	499b      	ldr	r1, [pc, #620]	; (d61bc <setup+0x300>)
   d5f50:	489b      	ldr	r0, [pc, #620]	; (d61c0 <setup+0x304>)
   d5f52:	f7fe f9d9 	bl	d4308 <_ZN10CloudClass9_variableI17CloudVariableTypeIPKcvEEEbS3_NT_11PointerTypeERKS5_.isra.0>
   d5f56:	499b      	ldr	r1, [pc, #620]	; (d61c4 <setup+0x308>)
   d5f58:	489b      	ldr	r0, [pc, #620]	; (d61c8 <setup+0x30c>)
   d5f5a:	f7fe f9d5 	bl	d4308 <_ZN10CloudClass9_variableI17CloudVariableTypeIPKcvEEEbS3_NT_11PointerTypeERKS5_.isra.0>
   d5f5e:	499b      	ldr	r1, [pc, #620]	; (d61cc <setup+0x310>)
   d5f60:	489b      	ldr	r0, [pc, #620]	; (d61d0 <setup+0x314>)
   d5f62:	f7fe f9d1 	bl	d4308 <_ZN10CloudClass9_variableI17CloudVariableTypeIPKcvEEEbS3_NT_11PointerTypeERKS5_.isra.0>
        return spark_variable(varKey, (const void*)userVar, T::TYPE_ID, NULL);
   d5f66:	4633      	mov	r3, r6
   d5f68:	499a      	ldr	r1, [pc, #616]	; (d61d4 <setup+0x318>)
   d5f6a:	489b      	ldr	r0, [pc, #620]	; (d61d8 <setup+0x31c>)
   d5f6c:	2202      	movs	r2, #2
   d5f6e:	f002 fc8f 	bl	d8890 <spark_variable>
   d5f72:	4633      	mov	r3, r6
   d5f74:	2201      	movs	r2, #1
   d5f76:	4999      	ldr	r1, [pc, #612]	; (d61dc <setup+0x320>)
   d5f78:	4899      	ldr	r0, [pc, #612]	; (d61e0 <setup+0x324>)
   d5f7a:	f002 fc89 	bl	d8890 <spark_variable>
        return _variable(varKey, var, STRING);
   d5f7e:	4999      	ldr	r1, [pc, #612]	; (d61e4 <setup+0x328>)
   d5f80:	4899      	ldr	r0, [pc, #612]	; (d61e8 <setup+0x32c>)
   d5f82:	f7fe f9c1 	bl	d4308 <_ZN10CloudClass9_variableI17CloudVariableTypeIPKcvEEEbS3_NT_11PointerTypeERKS5_.isra.0>
   d5f86:	4999      	ldr	r1, [pc, #612]	; (d61ec <setup+0x330>)
   d5f88:	4899      	ldr	r0, [pc, #612]	; (d61f0 <setup+0x334>)
   d5f8a:	f7fe f9bd 	bl	d4308 <_ZN10CloudClass9_variableI17CloudVariableTypeIPKcvEEEbS3_NT_11PointerTypeERKS5_.isra.0>
   d5f8e:	4999      	ldr	r1, [pc, #612]	; (d61f4 <setup+0x338>)
   d5f90:	4899      	ldr	r0, [pc, #612]	; (d61f8 <setup+0x33c>)
   d5f92:	f7fe f9b9 	bl	d4308 <_ZN10CloudClass9_variableI17CloudVariableTypeIPKcvEEEbS3_NT_11PointerTypeERKS5_.isra.0>
   d5f96:	4999      	ldr	r1, [pc, #612]	; (d61fc <setup+0x340>)
   d5f98:	4899      	ldr	r0, [pc, #612]	; (d6200 <setup+0x344>)
   d5f9a:	f7fe f9b5 	bl	d4308 <_ZN10CloudClass9_variableI17CloudVariableTypeIPKcvEEEbS3_NT_11PointerTypeERKS5_.isra.0>
   d5f9e:	4999      	ldr	r1, [pc, #612]	; (d6204 <setup+0x348>)
   d5fa0:	4899      	ldr	r0, [pc, #612]	; (d6208 <setup+0x34c>)
   d5fa2:	f7fe f9b1 	bl	d4308 <_ZN10CloudClass9_variableI17CloudVariableTypeIPKcvEEEbS3_NT_11PointerTypeERKS5_.isra.0>
   d5fa6:	4999      	ldr	r1, [pc, #612]	; (d620c <setup+0x350>)
   d5fa8:	4899      	ldr	r0, [pc, #612]	; (d6210 <setup+0x354>)
   d5faa:	f7fe f9ad 	bl	d4308 <_ZN10CloudClass9_variableI17CloudVariableTypeIPKcvEEEbS3_NT_11PointerTypeERKS5_.isra.0>
        return spark_variable(varKey, (const void*)userVar, T::TYPE_ID, NULL);
   d5fae:	4633      	mov	r3, r6
   d5fb0:	4998      	ldr	r1, [pc, #608]	; (d6214 <setup+0x358>)
   d5fb2:	4899      	ldr	r0, [pc, #612]	; (d6218 <setup+0x35c>)
   d5fb4:	2202      	movs	r2, #2
   d5fb6:	f002 fc6b 	bl	d8890 <spark_variable>
   d5fba:	4633      	mov	r3, r6
   d5fbc:	2202      	movs	r2, #2
   d5fbe:	4997      	ldr	r1, [pc, #604]	; (d621c <setup+0x360>)
   d5fc0:	4897      	ldr	r0, [pc, #604]	; (d6220 <setup+0x364>)
   d5fc2:	f002 fc65 	bl	d8890 <spark_variable>
        return _function(name, args...);
   d5fc6:	4997      	ldr	r1, [pc, #604]	; (d6224 <setup+0x368>)
   d5fc8:	4897      	ldr	r0, [pc, #604]	; (d6228 <setup+0x36c>)
   d5fca:	f7fe f9df 	bl	d438c <_ZN10CloudClass9_functionEPKcPFi6StringE>
   d5fce:	4997      	ldr	r1, [pc, #604]	; (d622c <setup+0x370>)
   d5fd0:	4897      	ldr	r0, [pc, #604]	; (d6230 <setup+0x374>)
   d5fd2:	f7fe f9db 	bl	d438c <_ZN10CloudClass9_functionEPKcPFi6StringE>
   d5fd6:	4997      	ldr	r1, [pc, #604]	; (d6234 <setup+0x378>)
   d5fd8:	4897      	ldr	r0, [pc, #604]	; (d6238 <setup+0x37c>)
   d5fda:	f7fe f9d7 	bl	d438c <_ZN10CloudClass9_functionEPKcPFi6StringE>
   d5fde:	4997      	ldr	r1, [pc, #604]	; (d623c <setup+0x380>)
   d5fe0:	4897      	ldr	r0, [pc, #604]	; (d6240 <setup+0x384>)
   d5fe2:	f7fe f9d3 	bl	d438c <_ZN10CloudClass9_functionEPKcPFi6StringE>
   d5fe6:	4997      	ldr	r1, [pc, #604]	; (d6244 <setup+0x388>)
   d5fe8:	487d      	ldr	r0, [pc, #500]	; (d61e0 <setup+0x324>)
   d5fea:	f7fe f9cf 	bl	d438c <_ZN10CloudClass9_functionEPKcPFi6StringE>
   d5fee:	4996      	ldr	r1, [pc, #600]	; (d6248 <setup+0x38c>)
   d5ff0:	4896      	ldr	r0, [pc, #600]	; (d624c <setup+0x390>)
   d5ff2:	f7fe f9cb 	bl	d438c <_ZN10CloudClass9_functionEPKcPFi6StringE>
   d5ff6:	4996      	ldr	r1, [pc, #600]	; (d6250 <setup+0x394>)
   d5ff8:	4896      	ldr	r0, [pc, #600]	; (d6254 <setup+0x398>)
   d5ffa:	f7fe f9c7 	bl	d438c <_ZN10CloudClass9_functionEPKcPFi6StringE>
   d5ffe:	4996      	ldr	r1, [pc, #600]	; (d6258 <setup+0x39c>)
   d6000:	4896      	ldr	r0, [pc, #600]	; (d625c <setup+0x3a0>)
   d6002:	f7fe f9c3 	bl	d438c <_ZN10CloudClass9_functionEPKcPFi6StringE>
   d6006:	4996      	ldr	r1, [pc, #600]	; (d6260 <setup+0x3a4>)
   d6008:	4896      	ldr	r0, [pc, #600]	; (d6264 <setup+0x3a8>)
   d600a:	f7fe f9bf 	bl	d438c <_ZN10CloudClass9_functionEPKcPFi6StringE>
   d600e:	4996      	ldr	r1, [pc, #600]	; (d6268 <setup+0x3ac>)
   d6010:	4896      	ldr	r0, [pc, #600]	; (d626c <setup+0x3b0>)
   d6012:	f7fe f9bb 	bl	d438c <_ZN10CloudClass9_functionEPKcPFi6StringE>
   d6016:	4996      	ldr	r1, [pc, #600]	; (d6270 <setup+0x3b4>)
   d6018:	4896      	ldr	r0, [pc, #600]	; (d6274 <setup+0x3b8>)
   d601a:	f7fe f9b7 	bl	d438c <_ZN10CloudClass9_functionEPKcPFi6StringE>
   d601e:	4996      	ldr	r1, [pc, #600]	; (d6278 <setup+0x3bc>)
   d6020:	4896      	ldr	r0, [pc, #600]	; (d627c <setup+0x3c0>)
   d6022:	f7fe f9b3 	bl	d438c <_ZN10CloudClass9_functionEPKcPFi6StringE>
   d6026:	4996      	ldr	r1, [pc, #600]	; (d6280 <setup+0x3c4>)
   d6028:	4896      	ldr	r0, [pc, #600]	; (d6284 <setup+0x3c8>)
   d602a:	f7fe f9af 	bl	d438c <_ZN10CloudClass9_functionEPKcPFi6StringE>
   d602e:	4996      	ldr	r1, [pc, #600]	; (d6288 <setup+0x3cc>)
   d6030:	4896      	ldr	r0, [pc, #600]	; (d628c <setup+0x3d0>)
   d6032:	f7fe f9ab 	bl	d438c <_ZN10CloudClass9_functionEPKcPFi6StringE>
   d6036:	4996      	ldr	r1, [pc, #600]	; (d6290 <setup+0x3d4>)
   d6038:	4896      	ldr	r0, [pc, #600]	; (d6294 <setup+0x3d8>)
   d603a:	f7fe f9a7 	bl	d438c <_ZN10CloudClass9_functionEPKcPFi6StringE>
   d603e:	4996      	ldr	r1, [pc, #600]	; (d6298 <setup+0x3dc>)
   d6040:	4896      	ldr	r0, [pc, #600]	; (d629c <setup+0x3e0>)
   d6042:	f7fe f9a3 	bl	d438c <_ZN10CloudClass9_functionEPKcPFi6StringE>
  rtc.setup();                                                        // Start the real time clock
   d6046:	4896      	ldr	r0, [pc, #600]	; (d62a0 <setup+0x3e4>)
   d6048:	f000 feca 	bl	d6de0 <_ZN8MCP794105setupEv>
  rtc.clearAlarm();                                                   // Ensures alarm is still not set from last cycle
   d604c:	4631      	mov	r1, r6
   d604e:	4894      	ldr	r0, [pc, #592]	; (d62a0 <setup+0x3e4>)
   d6050:	f001 f803 	bl	d705a <_ZN8MCP7941010clearAlarmEi>
    CloudConfig::instance()
   d6054:	f001 fc62 	bl	d791c <_ZN11CloudConfig8instanceEv>
	    _M_invoker = &_My_handler::_M_invoke;
   d6058:	4b92      	ldr	r3, [pc, #584]	; (d62a4 <setup+0x3e8>)
   d605a:	9305      	str	r3, [sp, #20]
   d605c:	4605      	mov	r5, r0
	    _M_manager = &_My_handler::_M_manager;
   d605e:	4b92      	ldr	r3, [pc, #584]	; (d62a8 <setup+0x3ec>)
   d6060:	9304      	str	r3, [sp, #16]
	  __x._M_manager(_M_functor, __x._M_functor, __clone_functor);
   d6062:	2202      	movs	r2, #2
   d6064:	a902      	add	r1, sp, #8
   d6066:	a806      	add	r0, sp, #24
    _Function_base() : _M_manager(nullptr) { }
   d6068:	9608      	str	r6, [sp, #32]
	  __x._M_manager(_M_functor, __x._M_functor, __clone_functor);
   d606a:	f7fe f84c 	bl	d4106 <_ZNSt14_Function_base13_Base_managerIZ5setupEUlvE_E10_M_managerERSt9_Any_dataRKS3_St18_Manager_operation>
	  _M_invoker = __x._M_invoker;
   d606e:	9b05      	ldr	r3, [sp, #20]
   d6070:	9309      	str	r3, [sp, #36]	; 0x24
	std::swap(_M_functor, __x._M_functor);
   d6072:	f105 010c 	add.w	r1, r5, #12
	  _M_manager = __x._M_manager;
   d6076:	9b04      	ldr	r3, [sp, #16]
   d6078:	9308      	str	r3, [sp, #32]
	std::swap(_M_functor, __x._M_functor);
   d607a:	a806      	add	r0, sp, #24
   d607c:	f7ff ff0c 	bl	d5e98 <_ZSt4swapISt9_Any_dataENSt9enable_ifIXsrSt6__and_IJSt6__not_ISt15__is_tuple_likeIT_EESt21is_move_constructibleIS5_ESt18is_move_assignableIS5_EEE5valueEvE4typeERS5_SF_>
      _Tp __tmp = _GLIBCXX_MOVE(__a);
   d6080:	9b08      	ldr	r3, [sp, #32]
      __a = _GLIBCXX_MOVE(__b);
   d6082:	696a      	ldr	r2, [r5, #20]
   d6084:	9208      	str	r2, [sp, #32]
      __b = _GLIBCXX_MOVE(__tmp);
   d6086:	616b      	str	r3, [r5, #20]
      _Tp __tmp = _GLIBCXX_MOVE(__a);
   d6088:	9b09      	ldr	r3, [sp, #36]	; 0x24
      __a = _GLIBCXX_MOVE(__b);
   d608a:	69aa      	ldr	r2, [r5, #24]
   d608c:	9209      	str	r2, [sp, #36]	; 0x24
    class function<_Res(_ArgTypes...)>
   d608e:	a806      	add	r0, sp, #24
      __b = _GLIBCXX_MOVE(__tmp);
   d6090:	61ab      	str	r3, [r5, #24]
   d6092:	f7fe f93d 	bl	d4310 <_ZNSt14_Function_baseD1Ev>
    CloudConfig &withUpdateFrequency(std::chrono::seconds chronoLiteral) { this->updateFrequency = chronoLiteral.count(); return *this; };
   d6096:	4b85      	ldr	r3, [pc, #532]	; (d62ac <setup+0x3f0>)
   d6098:	61eb      	str	r3, [r5, #28]
        .withUpdateMethod(new CloudConfigUpdateWebhook("CloudConfigDeviceNotes"))
   d609a:	202c      	movs	r0, #44	; 0x2c
   d609c:	f7fd fffb 	bl	d4096 <_Znwj>
   d60a0:	4606      	mov	r6, r0
   d60a2:	b110      	cbz	r0, d60aa <setup+0x1ee>
   d60a4:	4982      	ldr	r1, [pc, #520]	; (d62b0 <setup+0x3f4>)
   d60a6:	f001 fc87 	bl	d79b8 <_ZN24CloudConfigUpdateWebhookC1EPKc>
    CloudConfig &withUpdateMethod(CloudConfigUpdate *updateMethod) { this->updateMethod = updateMethod; return *this; };
   d60aa:	60ae      	str	r6, [r5, #8]
        .withStorageMethod(new CloudConfigStorageRetained(&retainedConfig, sizeof(retainedConfig)))
   d60ac:	2018      	movs	r0, #24
   d60ae:	f7fd fff2 	bl	d4096 <_Znwj>
   d60b2:	4606      	mov	r6, r0
   d60b4:	b130      	cbz	r0, d60c4 <setup+0x208>
    CloudConfigStorageRetained(void *retainedData, size_t totalSize) : CloudConfigStorageData((CloudConfigDataHeader *)retainedData, totalSize - sizeof(CloudConfigDataHeader)) {};
   d60b6:	497f      	ldr	r1, [pc, #508]	; (d62b4 <setup+0x3f8>)
   d60b8:	f44f 7280 	mov.w	r2, #256	; 0x100
   d60bc:	f001 fbec 	bl	d7898 <_ZN22CloudConfigStorageDataC1EP21CloudConfigDataHeaderj>
   d60c0:	4b7d      	ldr	r3, [pc, #500]	; (d62b8 <setup+0x3fc>)
   d60c2:	6033      	str	r3, [r6, #0]
        .setup();
   d60c4:	4628      	mov	r0, r5
    CloudConfig &withStorageMethod(CloudConfigStorage *storageMethod) { this->storageMethod = storageMethod; return *this; };
   d60c6:	606e      	str	r6, [r5, #4]
   d60c8:	f001 fdb6 	bl	d7c38 <_ZN11CloudConfig5setupEv>
   d60cc:	a802      	add	r0, sp, #8
   d60ce:	f7fe f91f 	bl	d4310 <_ZNSt14_Function_baseD1Ev>
  DeviceNameHelperRetained::instance().withNameCallback([](const char *name) {});
   d60d2:	f001 ff81 	bl	d7fd8 <_ZN24DeviceNameHelperRetained8instanceEv>
	    _M_invoker = &_My_handler::_M_invoke;
   d60d6:	4b79      	ldr	r3, [pc, #484]	; (d62bc <setup+0x400>)
   d60d8:	9309      	str	r3, [sp, #36]	; 0x24
   d60da:	a906      	add	r1, sp, #24
	    _M_manager = &_My_handler::_M_manager;
   d60dc:	4b78      	ldr	r3, [pc, #480]	; (d62c0 <setup+0x404>)
   d60de:	9308      	str	r3, [sp, #32]
   d60e0:	f001 ff96 	bl	d8010 <_ZN16DeviceNameHelper16withNameCallbackESt8functionIFvPKcEE>
    class function<_Res(_ArgTypes...)>
   d60e4:	a806      	add	r0, sp, #24
   d60e6:	f7fe f913 	bl	d4310 <_ZNSt14_Function_baseD1Ev>
  DeviceNameHelperRetained::instance().setup(&deviceNameHelperRetained);
   d60ea:	f001 ff75 	bl	d7fd8 <_ZN24DeviceNameHelperRetained8instanceEv>
   d60ee:	4975      	ldr	r1, [pc, #468]	; (d62c4 <setup+0x408>)
   d60f0:	f001 fff8 	bl	d80e4 <_ZN24DeviceNameHelperRetained5setupEP20DeviceNameHelperData>
  fram.begin();                                                                             // Initialize the FRAM module
   d60f4:	4874      	ldr	r0, [pc, #464]	; (d62c8 <setup+0x40c>)
   d60f6:	f000 fb0f 	bl	d6718 <_ZN6MB85RC5beginEv>
        readData(framAddr, (uint8_t *)&t, sizeof(T));
   d60fa:	2301      	movs	r3, #1
   d60fc:	4872      	ldr	r0, [pc, #456]	; (d62c8 <setup+0x40c>)
   d60fe:	aa06      	add	r2, sp, #24
   d6100:	2100      	movs	r1, #0
   d6102:	f000 fb4b 	bl	d679c <_ZN6MB85RC8readDataEjPhj>
  if (tempVersion != FRAMversionNumber) {                                                   // Check to see if the memory map in the sketch matches the data on the chip
   d6106:	f89d 3018 	ldrb.w	r3, [sp, #24]
   d610a:	2b16      	cmp	r3, #22
   d610c:	f000 80ea 	beq.w	d62e4 <setup+0x428>
    fram.erase();                                                                           // Reset the FRAM to correct the issue
   d6110:	486d      	ldr	r0, [pc, #436]	; (d62c8 <setup+0x40c>)
   d6112:	f000 fb0b 	bl	d672c <_ZN6MB85RC5eraseEv>
        writeData(framAddr, (const uint8_t *)&t, sizeof(T));
   d6116:	4a6d      	ldr	r2, [pc, #436]	; (d62cc <setup+0x410>)
   d6118:	486b      	ldr	r0, [pc, #428]	; (d62c8 <setup+0x40c>)
   d611a:	2304      	movs	r3, #4
   d611c:	2100      	movs	r1, #0
   d611e:	f000 fb88 	bl	d6832 <_ZN6MB85RC9writeDataEjPKhj>
        readData(framAddr, (uint8_t *)&t, sizeof(T));
   d6122:	2301      	movs	r3, #1
   d6124:	4868      	ldr	r0, [pc, #416]	; (d62c8 <setup+0x40c>)
   d6126:	aa06      	add	r2, sp, #24
   d6128:	2100      	movs	r1, #0
   d612a:	f000 fb37 	bl	d679c <_ZN6MB85RC8readDataEjPhj>
    if (tempVersion != FRAMversionNumber) state = ERROR_STATE;                              // Device will not work without FRAM
   d612e:	f89d 3018 	ldrb.w	r3, [sp, #24]
   d6132:	2b16      	cmp	r3, #22
   d6134:	d029      	beq.n	d618a <setup+0x2ce>
   d6136:	2301      	movs	r3, #1
   d6138:	7023      	strb	r3, [r4, #0]
  if (sysStatus.thirdPartySim) {
   d613a:	4d65      	ldr	r5, [pc, #404]	; (d62d0 <setup+0x414>)
  checkConstantValues();
   d613c:	f7fe fbd4 	bl	d48e8 <_Z19checkConstantValuesv>
  checkSystemValues();                                                                      // Make sure System values are all in valid range
   d6140:	f7fe fba2 	bl	d4888 <_Z17checkSystemValuesv>
  loadEmonlib();                                                                            // Initialize the emon library modules.
   d6144:	f7fe fea6 	bl	d4e94 <_Z11loadEmonlibv>
  if (sysStatus.thirdPartySim) {
   d6148:	786b      	ldrb	r3, [r5, #1]
   d614a:	2b00      	cmp	r3, #0
   d614c:	f000 80e5 	beq.w	d631a <setup+0x45e>
        HAL_Core_Button_Mirror_Pin_Disable((uint8_t)bootloader, 0, nullptr);
    }

    // This function is similar to the global millis() but returns a 64-bit value
    static uint64_t millis() {
        return hal_timer_millis(nullptr);
   d6150:	2000      	movs	r0, #0
   d6152:	f002 f9cf 	bl	d84f4 <hal_timer_millis>
   d6156:	f04f 0a00 	mov.w	sl, #0
   d615a:	4606      	mov	r6, r0
   d615c:	2000      	movs	r0, #0
   d615e:	f002 f9c9 	bl	d84f4 <hal_timer_millis>
        return waitConditionWhile(_condition, [=]{ return (millis()-start)<timeout; });
   d6162:	ebb0 0806 	subs.w	r8, r0, r6
   d6166:	eb61 090a 	sbc.w	r9, r1, sl
        while (_while() && !_condition()) {
   d616a:	2300      	movs	r3, #0
   d616c:	f247 522f 	movw	r2, #29999	; 0x752f
   d6170:	454b      	cmp	r3, r9
   d6172:	bf08      	it	eq
   d6174:	4542      	cmpeq	r2, r8
   d6176:	f0c0 80c2 	bcc.w	d62fe <setup+0x442>
    static bool connected(void) { return spark_cloud_flag_connected(); }
   d617a:	f002 fba9 	bl	d88d0 <spark_cloud_flag_connected>
   d617e:	2800      	cmp	r0, #0
   d6180:	f040 80bd 	bne.w	d62fe <setup+0x442>
            spark_process();
   d6184:	f002 fb94 	bl	d88b0 <spark_process>
        while (_while() && !_condition()) {
   d6188:	e7e8      	b.n	d615c <setup+0x2a0>
        val_(0) {
   d618a:	2300      	movs	r3, #0
      publishQueue.publish("Loading Defaults","Setup Loop",PRIVATE);
   d618c:	f88d 3000 	strb.w	r3, [sp]
   d6190:	4b50      	ldr	r3, [pc, #320]	; (d62d4 <setup+0x418>)
   d6192:	4a51      	ldr	r2, [pc, #324]	; (d62d8 <setup+0x41c>)
   d6194:	781b      	ldrb	r3, [r3, #0]
   d6196:	4951      	ldr	r1, [pc, #324]	; (d62dc <setup+0x420>)
   d6198:	4851      	ldr	r0, [pc, #324]	; (d62e0 <setup+0x424>)
   d619a:	f7fe f954 	bl	d4446 <_ZN21PublishQueueAsyncBase7publishEPKcS1_N8particle5FlagsI15PublishFlagTypehEES5_>
      loadSystemDefaults();                                                                 // Out of the box, we need the device to be awake and connected
   d619e:	f7fe fb17 	bl	d47d0 <_Z18loadSystemDefaultsv>
      loadConstantDefaults();
   d61a2:	f7fe fb45 	bl	d4830 <_Z20loadConstantDefaultsv>
   d61a6:	e7c8      	b.n	d613a <setup+0x27e>
   d61a8:	000d40e1 	.word	0x000d40e1
   d61ac:	000ddeac 	.word	0x000ddeac
   d61b0:	2003e58d 	.word	0x2003e58d
   d61b4:	000ddc6e 	.word	0x000ddc6e
   d61b8:	000d4275 	.word	0x000d4275
   d61bc:	000ddeec 	.word	0x000ddeec
   d61c0:	000dd7e5 	.word	0x000dd7e5
   d61c4:	2003df3e 	.word	0x2003df3e
   d61c8:	000ddc93 	.word	0x000ddc93
   d61cc:	2003df2e 	.word	0x2003df2e
   d61d0:	000ddc9b 	.word	0x000ddc9b
   d61d4:	2003e594 	.word	0x2003e594
   d61d8:	000ddcaa 	.word	0x000ddcaa
   d61dc:	2003e591 	.word	0x2003e591
   d61e0:	000dd519 	.word	0x000dd519
   d61e4:	2003e50d 	.word	0x2003e50d
   d61e8:	000ddcf9 	.word	0x000ddcf9
   d61ec:	2003e56d 	.word	0x2003e56d
   d61f0:	000ddd0a 	.word	0x000ddd0a
   d61f4:	2003e54d 	.word	0x2003e54d
   d61f8:	000ddd1b 	.word	0x000ddd1b
   d61fc:	2003e4ed 	.word	0x2003e4ed
   d6200:	000ddd2e 	.word	0x000ddd2e
   d6204:	2003e4cd 	.word	0x2003e4cd
   d6208:	000ddd40 	.word	0x000ddd40
   d620c:	2003e52d 	.word	0x2003e52d
   d6210:	000ddd52 	.word	0x000ddd52
   d6214:	2003e5b4 	.word	0x2003e5b4
   d6218:	000dd904 	.word	0x000dd904
   d621c:	2003e5b8 	.word	0x2003e5b8
   d6220:	000ddcb9 	.word	0x000ddcb9
   d6224:	000d4121 	.word	0x000d4121
   d6228:	000ddcc8 	.word	0x000ddcc8
   d622c:	000d559d 	.word	0x000d559d
   d6230:	000ddcd4 	.word	0x000ddcd4
   d6234:	000d45d1 	.word	0x000d45d1
   d6238:	000ddce8 	.word	0x000ddce8
   d623c:	000d44fd 	.word	0x000d44fd
   d6240:	000dd554 	.word	0x000dd554
   d6244:	000d4461 	.word	0x000d4461
   d6248:	000d5015 	.word	0x000d5015
   d624c:	000ddcf5 	.word	0x000ddcf5
   d6250:	000d5065 	.word	0x000d5065
   d6254:	000ddd06 	.word	0x000ddd06
   d6258:	000d50b5 	.word	0x000d50b5
   d625c:	000ddd17 	.word	0x000ddd17
   d6260:	000d5105 	.word	0x000d5105
   d6264:	000ddd2a 	.word	0x000ddd2a
   d6268:	000d5155 	.word	0x000d5155
   d626c:	000ddd3c 	.word	0x000ddd3c
   d6270:	000d51a5 	.word	0x000d51a5
   d6274:	000ddd4e 	.word	0x000ddd4e
   d6278:	000d413d 	.word	0x000d413d
   d627c:	000ddd5f 	.word	0x000ddd5f
   d6280:	000d4651 	.word	0x000d4651
   d6284:	000ddd6d 	.word	0x000ddd6d
   d6288:	000d4721 	.word	0x000d4721
   d628c:	000dd7ed 	.word	0x000dd7ed
   d6290:	000d4579 	.word	0x000d4579
   d6294:	000ddd7c 	.word	0x000ddd7c
   d6298:	000d4781 	.word	0x000d4781
   d629c:	000ddd98 	.word	0x000ddd98
   d62a0:	2003e40c 	.word	0x2003e40c
   d62a4:	000d5645 	.word	0x000d5645
   d62a8:	000d4107 	.word	0x000d4107
   d62ac:	00015180 	.word	0x00015180
   d62b0:	000ddda6 	.word	0x000ddda6
   d62b4:	2003f400 	.word	0x2003f400
   d62b8:	000dde6c 	.word	0x000dde6c
   d62bc:	000d4111 	.word	0x000d4111
   d62c0:	000d4113 	.word	0x000d4113
   d62c4:	2003f514 	.word	0x2003f514
   d62c8:	2003e3a0 	.word	0x2003e3a0
   d62cc:	000ddef4 	.word	0x000ddef4
   d62d0:	2003e590 	.word	0x2003e590
   d62d4:	2003df2d 	.word	0x2003df2d
   d62d8:	000dddbd 	.word	0x000dddbd
   d62dc:	000dddc8 	.word	0x000dddc8
   d62e0:	2003e3d0 	.word	0x2003e3d0
   d62e4:	4a1d      	ldr	r2, [pc, #116]	; (d635c <setup+0x4a0>)
   d62e6:	481e      	ldr	r0, [pc, #120]	; (d6360 <setup+0x4a4>)
   d62e8:	2318      	movs	r3, #24
   d62ea:	21a0      	movs	r1, #160	; 0xa0
   d62ec:	f000 fa56 	bl	d679c <_ZN6MB85RC8readDataEjPhj>
   d62f0:	4a1c      	ldr	r2, [pc, #112]	; (d6364 <setup+0x4a8>)
   d62f2:	481b      	ldr	r0, [pc, #108]	; (d6360 <setup+0x4a4>)
   d62f4:	2330      	movs	r3, #48	; 0x30
   d62f6:	2101      	movs	r1, #1
   d62f8:	f000 fa50 	bl	d679c <_ZN6MB85RC8readDataEjPhj>
        return t;
   d62fc:	e71d      	b.n	d613a <setup+0x27e>
   d62fe:	f002 fae7 	bl	d88d0 <spark_cloud_flag_connected>
    Particle.keepAlive(sysStatus.keepAlive);                                              // Set the keep alive value
   d6302:	6868      	ldr	r0, [r5, #4]
   d6304:	f7fe f848 	bl	d4398 <_ZN10CloudClass9keepAliveEj>
    keepAliveTimer.changePeriod(sysStatus.keepAlive*1000);                                  // Will start the repeating timer
   d6308:	686b      	ldr	r3, [r5, #4]
   d630a:	4817      	ldr	r0, [pc, #92]	; (d6368 <setup+0x4ac>)
   d630c:	f44f 717a 	mov.w	r1, #1000	; 0x3e8
   d6310:	f06f 4200 	mvn.w	r2, #2147483648	; 0x80000000
   d6314:	4359      	muls	r1, r3
   d6316:	f7fe f852 	bl	d43be <_ZN5Timer12changePeriodEjj>
  updateConstantValues();
   d631a:	f7fe fe19 	bl	d4f50 <_Z20updateConstantValuesv>
  takeMeasurements();                                                                       // For the benefit of monitoring the device
   d631e:	f7fe fc21 	bl	d4b64 <_Z16takeMeasurementsv>
  if(sysStatus.verboseMode) publishQueue.publish("Startup",StartupMessage,PRIVATE);                       // Let Particle know how the startup process went
   d6322:	7a6b      	ldrb	r3, [r5, #9]
   d6324:	b14b      	cbz	r3, d633a <setup+0x47e>
   d6326:	2300      	movs	r3, #0
   d6328:	f88d 3000 	strb.w	r3, [sp]
   d632c:	4b0f      	ldr	r3, [pc, #60]	; (d636c <setup+0x4b0>)
   d632e:	4910      	ldr	r1, [pc, #64]	; (d6370 <setup+0x4b4>)
   d6330:	781b      	ldrb	r3, [r3, #0]
   d6332:	4810      	ldr	r0, [pc, #64]	; (d6374 <setup+0x4b8>)
   d6334:	463a      	mov	r2, r7
   d6336:	f7fe f886 	bl	d4446 <_ZN21PublishQueueAsyncBase7publishEPKcS1_N8particle5FlagsI15PublishFlagTypehEES5_>
   d633a:	f002 fac9 	bl	d88d0 <spark_cloud_flag_connected>
   d633e:	b910      	cbnz	r0, d6346 <setup+0x48a>
            spark_process();
   d6340:	f002 fab6 	bl	d88b0 <spark_process>
        while (_while() && !_condition()) {
   d6344:	e7f9      	b.n	d633a <setup+0x47e>
   d6346:	f002 fac3 	bl	d88d0 <spark_cloud_flag_connected>
  sendConfiguration();
   d634a:	f7fe ff53 	bl	d51f4 <_Z17sendConfigurationv>
  if (state == INITIALIZATION_STATE) state = IDLE_STATE;                                    // We made it throughgo let's go to idle
   d634e:	7823      	ldrb	r3, [r4, #0]
   d6350:	b90b      	cbnz	r3, d6356 <setup+0x49a>
   d6352:	2302      	movs	r3, #2
   d6354:	7023      	strb	r3, [r4, #0]
}
   d6356:	b01a      	add	sp, #104	; 0x68
   d6358:	e8bd 87f0 	ldmia.w	sp!, {r4, r5, r6, r7, r8, r9, sl, pc}
   d635c:	2003e428 	.word	0x2003e428
   d6360:	2003e3a0 	.word	0x2003e3a0
   d6364:	2003e590 	.word	0x2003e590
   d6368:	2003e3b0 	.word	0x2003e3b0
   d636c:	2003df2d 	.word	0x2003df2d
   d6370:	000dddd9 	.word	0x000dddd9
   d6374:	2003e3d0 	.word	0x2003e3d0

000d6378 <_GLOBAL__sub_I___appProductID>:
   d6378:	b5f0      	push	{r4, r5, r6, r7, lr}
        val_(val) {
   d637a:	4b4f      	ldr	r3, [pc, #316]	; (d64b8 <_GLOBAL__sub_I___appProductID+0x140>)
              error_(SYSTEM_ERROR_NONE) {
   d637c:	4d4f      	ldr	r5, [pc, #316]	; (d64bc <_GLOBAL__sub_I___appProductID+0x144>)
SYSTEM_MODE(AUTOMATIC);                                                                     // This will enable user code to start executing automatically.
   d637e:	4e50      	ldr	r6, [pc, #320]	; (d64c0 <_GLOBAL__sub_I___appProductID+0x148>)
   d6380:	2701      	movs	r7, #1
   d6382:	701f      	strb	r7, [r3, #0]
   d6384:	4b4f      	ldr	r3, [pc, #316]	; (d64c4 <_GLOBAL__sub_I___appProductID+0x14c>)
   d6386:	2202      	movs	r2, #2
   d6388:	b087      	sub	sp, #28
   d638a:	701a      	strb	r2, [r3, #0]
#include "spark_protocol_functions.h"


struct __ApplicationProductID {
    __ApplicationProductID(product_id_t id) {
        spark_protocol_set_product_id(spark_protocol_instance(), id);
   d638c:	f004 f99e 	bl	da6cc <spark_protocol_instance>
   d6390:	2300      	movs	r3, #0
   d6392:	461a      	mov	r2, r3
   d6394:	f642 51d6 	movw	r1, #11734	; 0x2dd6
   d6398:	f004 f9a0 	bl	da6dc <spark_protocol_set_product_id>
    }
};

struct __ApplicationProductVersion {
    __ApplicationProductVersion(product_firmware_version_t version) {
        spark_protocol_set_product_firmware_version(spark_protocol_instance(), version);
   d639c:	f004 f996 	bl	da6cc <spark_protocol_instance>
   d63a0:	2300      	movs	r3, #0
   d63a2:	461a      	mov	r2, r3
   d63a4:	210c      	movs	r1, #12
   d63a6:	2400      	movs	r4, #0
   d63a8:	f004 f9a0 	bl	da6ec <spark_protocol_set_product_firmware_version>
    SleepResult() {}
   d63ac:	4b46      	ldr	r3, [pc, #280]	; (d64c8 <_GLOBAL__sub_I___appProductID+0x150>)
   d63ae:	60ab      	str	r3, [r5, #8]
              error_(SYSTEM_ERROR_NONE) {
   d63b0:	602c      	str	r4, [r5, #0]
   d63b2:	80ac      	strh	r4, [r5, #4]
    SleepResult() {}
   d63b4:	71ac      	strb	r4, [r5, #6]
        set_system_mode(mode);
   d63b6:	4638      	mov	r0, r7
   d63b8:	f002 fa14 	bl	d87e4 <set_system_mode>
SYSTEM_MODE(AUTOMATIC);                                                                     // This will enable user code to start executing automatically.
   d63bc:	4632      	mov	r2, r6
   d63be:	4943      	ldr	r1, [pc, #268]	; (d64cc <_GLOBAL__sub_I___appProductID+0x154>)
   d63c0:	4628      	mov	r0, r5
   d63c2:	f004 fa5b 	bl	da87c <__aeabi_atexit>
SYSTEM_THREAD(ENABLED);                                                                     // Means my code will not be held up by Particle processes.
   d63c6:	4621      	mov	r1, r4
   d63c8:	4638      	mov	r0, r7
   d63ca:	f002 fa1b 	bl	d8804 <system_thread_set_state>
        return HAL_Feature_Set(feature, true);
   d63ce:	4639      	mov	r1, r7
   d63d0:	2004      	movs	r0, #4
   d63d2:	f002 f85f 	bl	d8494 <HAL_Feature_Set>
MB85RC64 fram(Wire, 0);                                                                     // Rickkas' FRAM library
   d63d6:	f004 fa29 	bl	da82c <_Z19__fetch_global_Wirev>
	 *
	 * @param addr The address 0-7 based on the setting of A0, A1 and A2.
	 *
	 * You typically create one of these objects as a global variable.
	 */
	MB85RC64(TwoWire &wire, int addr = 0) : MB85RC(wire, 8192, addr) {};
   d63da:	4d3d      	ldr	r5, [pc, #244]	; (d64d0 <_GLOBAL__sub_I___appProductID+0x158>)
   d63dc:	4601      	mov	r1, r0
   d63de:	4623      	mov	r3, r4
   d63e0:	f44f 5200 	mov.w	r2, #8192	; 0x2000
   d63e4:	4628      	mov	r0, r5
   d63e6:	f000 f98d 	bl	d6704 <_ZN6MB85RCC1ER7TwoWireji>
   d63ea:	4b3a      	ldr	r3, [pc, #232]	; (d64d4 <_GLOBAL__sub_I___appProductID+0x15c>)
   d63ec:	602b      	str	r3, [r5, #0]
   d63ee:	4632      	mov	r2, r6
   d63f0:	4939      	ldr	r1, [pc, #228]	; (d64d8 <_GLOBAL__sub_I___appProductID+0x160>)
   d63f2:	4628      	mov	r0, r5
   d63f4:	f004 fa42 	bl	da87c <__aeabi_atexit>
MCP79410 rtc;                                                                               // Rickkas MCP79410 libarary
   d63f8:	f004 fa18 	bl	da82c <_Z19__fetch_global_Wirev>
   d63fc:	4d37      	ldr	r5, [pc, #220]	; (d64dc <_GLOBAL__sub_I___appProductID+0x164>)
   d63fe:	4601      	mov	r1, r0
   d6400:	4628      	mov	r0, r5
   d6402:	f000 fbf5 	bl	d6bf0 <_ZN8MCP79410C1ER7TwoWire>
   d6406:	4628      	mov	r0, r5
	PublishQueueAsync(uint8_t *retainedBuffer, uint16_t retainedBufferSize) : PublishQueueAsyncRetained(retainedBuffer, retainedBufferSize) {};
   d6408:	4d35      	ldr	r5, [pc, #212]	; (d64e0 <_GLOBAL__sub_I___appProductID+0x168>)
   d640a:	4936      	ldr	r1, [pc, #216]	; (d64e4 <_GLOBAL__sub_I___appProductID+0x16c>)
   d640c:	4632      	mov	r2, r6
   d640e:	f004 fa35 	bl	da87c <__aeabi_atexit>
   d6412:	4935      	ldr	r1, [pc, #212]	; (d64e8 <_GLOBAL__sub_I___appProductID+0x170>)
   d6414:	f44f 6200 	mov.w	r2, #2048	; 0x800
   d6418:	4628      	mov	r0, r5
   d641a:	f001 f85f 	bl	d74dc <_ZN25PublishQueueAsyncRetainedC1EPht>
   d641e:	4b33      	ldr	r3, [pc, #204]	; (d64ec <_GLOBAL__sub_I___appProductID+0x174>)
   d6420:	602b      	str	r3, [r5, #0]
PublishQueueAsync publishQueue(publishQueueRetainedBuffer, sizeof(publishQueueRetainedBuffer));
   d6422:	4632      	mov	r2, r6
   d6424:	4932      	ldr	r1, [pc, #200]	; (d64f0 <_GLOBAL__sub_I___appProductID+0x178>)
   d6426:	4628      	mov	r0, r5
   d6428:	f004 fa28 	bl	da87c <__aeabi_atexit>
	{ ::new (__functor._M_access()) _Functor(std::move(__f)); }
   d642c:	4b31      	ldr	r3, [pc, #196]	; (d64f4 <_GLOBAL__sub_I___appProductID+0x17c>)
   d642e:	9302      	str	r3, [sp, #8]
	    _M_invoker = &_My_handler::_M_invoke;
   d6430:	4b31      	ldr	r3, [pc, #196]	; (d64f8 <_GLOBAL__sub_I___appProductID+0x180>)
    Timer(unsigned period, timer_callback_fn callback_, bool one_shot=false) : running(false), handle(nullptr), callback(std::move(callback_)) {
   d6432:	4d32      	ldr	r5, [pc, #200]	; (d64fc <_GLOBAL__sub_I___appProductID+0x184>)
   d6434:	9305      	str	r3, [sp, #20]
	    _M_manager = &_My_handler::_M_manager;
   d6436:	4b32      	ldr	r3, [pc, #200]	; (d6500 <_GLOBAL__sub_I___appProductID+0x188>)
   d6438:	9304      	str	r3, [sp, #16]
   d643a:	4b32      	ldr	r3, [pc, #200]	; (d6504 <_GLOBAL__sub_I___appProductID+0x18c>)
   d643c:	602b      	str	r3, [r5, #0]
   d643e:	712c      	strb	r4, [r5, #4]
   d6440:	60ac      	str	r4, [r5, #8]
    _Function_base() : _M_manager(nullptr) { }
   d6442:	616c      	str	r4, [r5, #20]
	std::swap(_M_functor, __x._M_functor);
   d6444:	f105 010c 	add.w	r1, r5, #12
   d6448:	a802      	add	r0, sp, #8
   d644a:	f7ff fd25 	bl	d5e98 <_ZSt4swapISt9_Any_dataENSt9enable_ifIXsrSt6__and_IJSt6__not_ISt15__is_tuple_likeIT_EESt21is_move_constructibleIS5_ESt18is_move_assignableIS5_EEE5valueEvE4typeERS5_SF_>
      __a = _GLIBCXX_MOVE(__b);
   d644e:	696a      	ldr	r2, [r5, #20]
      _Tp __tmp = _GLIBCXX_MOVE(__a);
   d6450:	9b04      	ldr	r3, [sp, #16]
      __b = _GLIBCXX_MOVE(__tmp);
   d6452:	616b      	str	r3, [r5, #20]
      __a = _GLIBCXX_MOVE(__b);
   d6454:	9204      	str	r2, [sp, #16]
      _Tp __tmp = _GLIBCXX_MOVE(__a);
   d6456:	9b05      	ldr	r3, [sp, #20]
      __a = _GLIBCXX_MOVE(__b);
   d6458:	69aa      	ldr	r2, [r5, #24]
   d645a:	9205      	str	r2, [sp, #20]
      __b = _GLIBCXX_MOVE(__tmp);
   d645c:	61ab      	str	r3, [r5, #24]
        os_timer_create(&handle, period, invoke_timer, this, one_shot, nullptr);
   d645e:	4a2a      	ldr	r2, [pc, #168]	; (d6508 <_GLOBAL__sub_I___appProductID+0x190>)
   d6460:	462b      	mov	r3, r5
   d6462:	f44f 717a 	mov.w	r1, #1000	; 0x3e8
   d6466:	e9cd 4400 	strd	r4, r4, [sp]
   d646a:	f105 0008 	add.w	r0, r5, #8
   d646e:	f001 ffb9 	bl	d83e4 <os_timer_create>
    class function<_Res(_ArgTypes...)>
   d6472:	a802      	add	r0, sp, #8
   d6474:	f7fd ff4c 	bl	d4310 <_ZNSt14_Function_baseD1Ev>
Timer keepAliveTimer(1000, keepAliveMessage);
   d6478:	4628      	mov	r0, r5
struct sensor_data_struct {                                                               // Here we define the structure for collecting and storing data from the sensors
   d647a:	4d24      	ldr	r5, [pc, #144]	; (d650c <_GLOBAL__sub_I___appProductID+0x194>)
Timer keepAliveTimer(1000, keepAliveMessage);
   d647c:	4924      	ldr	r1, [pc, #144]	; (d6510 <_GLOBAL__sub_I___appProductID+0x198>)
   d647e:	4632      	mov	r2, r6
   d6480:	f004 f9fc 	bl	da87c <__aeabi_atexit>
struct sensor_data_struct {                                                               // Here we define the structure for collecting and storing data from the sensors
   d6484:	4621      	mov	r1, r4
   d6486:	e9c5 440c 	strd	r4, r4, [r5, #48]	; 0x30
   d648a:	e9c5 440f 	strd	r4, r4, [r5, #60]	; 0x3c
   d648e:	e9c5 4412 	strd	r4, r4, [r5, #72]	; 0x48
   d6492:	e9c5 4415 	strd	r4, r4, [r5, #84]	; 0x54
   d6496:	63ac      	str	r4, [r5, #56]	; 0x38
   d6498:	646c      	str	r4, [r5, #68]	; 0x44
   d649a:	652c      	str	r4, [r5, #80]	; 0x50
   d649c:	65ec      	str	r4, [r5, #92]	; 0x5c
   d649e:	2210      	movs	r2, #16
   d64a0:	f105 0060 	add.w	r0, r5, #96	; 0x60
   d64a4:	f005 f88c 	bl	db5c0 <memset>
   d64a8:	2210      	movs	r2, #16
   d64aa:	4621      	mov	r1, r4
   d64ac:	f105 0070 	add.w	r0, r5, #112	; 0x70
   d64b0:	f005 f886 	bl	db5c0 <memset>
   d64b4:	b007      	add	sp, #28
   d64b6:	bdf0      	pop	{r4, r5, r6, r7, pc}
   d64b8:	2003df2d 	.word	0x2003df2d
   d64bc:	2003df20 	.word	0x2003df20
   d64c0:	2003dee0 	.word	0x2003dee0
   d64c4:	2003df2c 	.word	0x2003df2c
   d64c8:	ffff0000 	.word	0xffff0000
   d64cc:	000d42f9 	.word	0x000d42f9
   d64d0:	2003e3a0 	.word	0x2003e3a0
   d64d4:	000dde28 	.word	0x000dde28
   d64d8:	000d4211 	.word	0x000d4211
   d64dc:	2003e40c 	.word	0x2003e40c
   d64e0:	2003e3d0 	.word	0x2003e3d0
   d64e4:	000d697b 	.word	0x000d697b
   d64e8:	2003f540 	.word	0x2003f540
   d64ec:	000dde00 	.word	0x000dde00
   d64f0:	000d41e9 	.word	0x000d41e9
   d64f4:	000d5df1 	.word	0x000d5df1
   d64f8:	000d40ed 	.word	0x000d40ed
   d64fc:	2003e3b0 	.word	0x2003e3b0
   d6500:	000d40f1 	.word	0x000d40f1
   d6504:	000dddec 	.word	0x000dddec
   d6508:	000d4239 	.word	0x000d4239
   d650c:	2003e440 	.word	0x2003e440
   d6510:	000d4325 	.word	0x000d4325
   d6514:	00000000 	.word	0x00000000

000d6518 <_ZN12Load_Monitor8calcIrmsENS_7CT_DataE>:
#include "WProgram.h"
#endif


//--------------------------------------------------------------------------------------
double Load_Monitor::calcIrms(CT_Property_Struct data){
   d6518:	b082      	sub	sp, #8
   d651a:	e92d 4ff8 	stmdb	sp!, {r3, r4, r5, r6, r7, r8, r9, sl, fp, lr}
   d651e:	a90a      	add	r1, sp, #40	; 0x28
   d6520:	e881 000c 	stmia.w	r1, {r2, r3}
    
    double Irms=0;
    
    offsetI = ADC_COUNTS>>1;
   d6524:	4b34      	ldr	r3, [pc, #208]	; (d65f8 <_ZN12Load_Monitor8calcIrmsENS_7CT_DataE+0xe0>)
  {
    sampleI = analogRead(data.CT_PIN);

    // Digital low pass filter extracts the 2.5 V or 1.65 V dc offset,
    //  then subtract this - signal is now centered on 0 counts.
    offsetI = (offsetI + (sampleI-offsetI)/4096);
   d6526:	f8df b0d4 	ldr.w	fp, [pc, #212]	; d65fc <_ZN12Load_Monitor8calcIrmsENS_7CT_DataE+0xe4>
    offsetI = ADC_COUNTS>>1;
   d652a:	2200      	movs	r2, #0
   d652c:	e9c0 2304 	strd	r2, r3, [r0, #16]
double Load_Monitor::calcIrms(CT_Property_Struct data){
   d6530:	4604      	mov	r4, r0
    offsetI = ADC_COUNTS>>1;
   d6532:	f240 657e 	movw	r5, #1662	; 0x67e
    offsetI = (offsetI + (sampleI-offsetI)/4096);
   d6536:	f04f 0a00 	mov.w	sl, #0
    sampleI = analogRead(data.CT_PIN);
   d653a:	f8bd 0028 	ldrh.w	r0, [sp, #40]	; 0x28
   d653e:	f004 f945 	bl	da7cc <analogRead>
    offsetI = (offsetI + (sampleI-offsetI)/4096);
   d6542:	e9d4 8904 	ldrd	r8, r9, [r4, #16]
    sampleI = analogRead(data.CT_PIN);
   d6546:	6020      	str	r0, [r4, #0]
    offsetI = (offsetI + (sampleI-offsetI)/4096);
   d6548:	f004 fc1c 	bl	dad84 <__aeabi_i2d>
   d654c:	4642      	mov	r2, r8
   d654e:	464b      	mov	r3, r9
   d6550:	4606      	mov	r6, r0
   d6552:	460f      	mov	r7, r1
   d6554:	f004 fac8 	bl	daae8 <__aeabi_dsub>
   d6558:	4652      	mov	r2, sl
   d655a:	465b      	mov	r3, fp
   d655c:	f004 fc7c 	bl	dae58 <__aeabi_dmul>
   d6560:	4642      	mov	r2, r8
   d6562:	464b      	mov	r3, r9
   d6564:	f004 fac2 	bl	daaec <__adddf3>
   d6568:	4602      	mov	r2, r0
   d656a:	460b      	mov	r3, r1
   d656c:	e9c4 2304 	strd	r2, r3, [r4, #16]
    filteredI = sampleI - offsetI;
   d6570:	4630      	mov	r0, r6
   d6572:	4639      	mov	r1, r7
   d6574:	f004 fab8 	bl	daae8 <__aeabi_dsub>
   d6578:	4602      	mov	r2, r0
   d657a:	460b      	mov	r3, r1
   d657c:	e9c4 2302 	strd	r2, r3, [r4, #8]

    // Root-mean-square method current
    // 1) square current values
    sqI = filteredI * filteredI;
   d6580:	f004 fc6a 	bl	dae58 <__aeabi_dmul>
   d6584:	4602      	mov	r2, r0
   d6586:	460b      	mov	r3, r1
   d6588:	e9c4 2306 	strd	r2, r3, [r4, #24]
    // 2) sum
    sumI += sqI;
   d658c:	e9d4 2308 	ldrd	r2, r3, [r4, #32]
   d6590:	f004 faac 	bl	daaec <__adddf3>
  for (unsigned int n = 0; n < 1662 /*Number_of_Samples*/; n++)
   d6594:	3d01      	subs	r5, #1
    sumI += sqI;
   d6596:	4606      	mov	r6, r0
   d6598:	460f      	mov	r7, r1
   d659a:	e9c4 6708 	strd	r6, r7, [r4, #32]
  for (unsigned int n = 0; n < 1662 /*Number_of_Samples*/; n++)
   d659e:	d1cc      	bne.n	d653a <_ZN12Load_Monitor8calcIrmsENS_7CT_DataE+0x22>
  }

  double I_RATIO = data.ICAL*((SupplyVoltage/1000.0) / (ADC_COUNTS));
   d65a0:	e9dd 010c 	ldrd	r0, r1, [sp, #48]	; 0x30
   d65a4:	a310      	add	r3, pc, #64	; (adr r3, d65e8 <_ZN12Load_Monitor8calcIrmsENS_7CT_DataE+0xd0>)
   d65a6:	e9d3 2300 	ldrd	r2, r3, [r3]
   d65aa:	f004 fc55 	bl	dae58 <__aeabi_dmul>
  Irms = I_RATIO * sqrt(sumI /1662 /*Number_of_Samples*/);
   d65ae:	a310      	add	r3, pc, #64	; (adr r3, d65f0 <_ZN12Load_Monitor8calcIrmsENS_7CT_DataE+0xd8>)
   d65b0:	e9d3 2300 	ldrd	r2, r3, [r3]
  double I_RATIO = data.ICAL*((SupplyVoltage/1000.0) / (ADC_COUNTS));
   d65b4:	4680      	mov	r8, r0
   d65b6:	4689      	mov	r9, r1
  Irms = I_RATIO * sqrt(sumI /1662 /*Number_of_Samples*/);
   d65b8:	4630      	mov	r0, r6
   d65ba:	4639      	mov	r1, r7
   d65bc:	f004 fd76 	bl	db0ac <__aeabi_ddiv>
   d65c0:	ec41 0b10 	vmov	d0, r0, r1
   d65c4:	f004 f968 	bl	da898 <sqrt>

  //Reset accumulators
  sumI = 0;
   d65c8:	2200      	movs	r2, #0
   d65ca:	2300      	movs	r3, #0
   d65cc:	e9c4 2308 	strd	r2, r3, [r4, #32]
  Irms = I_RATIO * sqrt(sumI /1662 /*Number_of_Samples*/);
   d65d0:	ec51 0b10 	vmov	r0, r1, d0
   d65d4:	4642      	mov	r2, r8
   d65d6:	464b      	mov	r3, r9
   d65d8:	f004 fc3e 	bl	dae58 <__aeabi_dmul>
  //--------------------------------------------------------------------------------------

  return Irms;
}
   d65dc:	e8bd 4ff8 	ldmia.w	sp!, {r3, r4, r5, r6, r7, r8, r9, sl, fp, lr}
   d65e0:	ec41 0b10 	vmov	d0, r0, r1
   d65e4:	b002      	add	sp, #8
   d65e6:	4770      	bx	lr
   d65e8:	66666666 	.word	0x66666666
   d65ec:	3f4a6666 	.word	0x3f4a6666
   d65f0:	00000000 	.word	0x00000000
   d65f4:	4099f800 	.word	0x4099f800
   d65f8:	40a00000 	.word	0x40a00000
   d65fc:	3f300000 	.word	0x3f300000

000d6600 <_ZN13EnergyMonitor7currentEjd>:

void EnergyMonitor::current(unsigned int _inPinI, double _ICAL)
{
   inPinI = _inPinI;
   ICAL = _ICAL;
   offsetI = ADC_COUNTS>>1;
   d6600:	4b03      	ldr	r3, [pc, #12]	; (d6610 <_ZN13EnergyMonitor7currentEjd+0x10>)
   inPinI = _inPinI;
   d6602:	62c1      	str	r1, [r0, #44]	; 0x2c
   offsetI = ADC_COUNTS>>1;
   d6604:	2200      	movs	r2, #0
   ICAL = _ICAL;
   d6606:	ed80 0b0e 	vstr	d0, [r0, #56]	; 0x38
   offsetI = ADC_COUNTS>>1;
   d660a:	e9c0 231c 	strd	r2, r3, [r0, #112]	; 0x70
}
   d660e:	4770      	bx	lr
   d6610:	40a00000 	.word	0x40a00000
   d6614:	00000000 	.word	0x00000000

000d6618 <_ZN13EnergyMonitor8calcIrmsEj>:
//--------------------------------------------------------------------------------------       
}

//--------------------------------------------------------------------------------------
double EnergyMonitor::calcIrms(unsigned int Number_of_Samples)
{
   d6618:	e92d 4ff7 	stmdb	sp!, {r0, r1, r2, r4, r5, r6, r7, r8, r9, sl, fp, lr}
  {
    sampleI = analogRead(inPinI);

    // Digital low pass filter extracts the 2.5 V or 1.65 V dc offset, 
  //  then subtract this - signal is now centered on 0 counts.
    offsetI = (offsetI + (sampleI-offsetI)/1024);
   d661c:	f8df b0c8 	ldr.w	fp, [pc, #200]	; d66e8 <_ZN13EnergyMonitor8calcIrmsEj+0xd0>
{
   d6620:	9101      	str	r1, [sp, #4]
   d6622:	4604      	mov	r4, r0
  for (unsigned int n = 0; n < Number_of_Samples; n++)
   d6624:	2500      	movs	r5, #0
    offsetI = (offsetI + (sampleI-offsetI)/1024);
   d6626:	f04f 0a00 	mov.w	sl, #0
  for (unsigned int n = 0; n < Number_of_Samples; n++)
   d662a:	9b01      	ldr	r3, [sp, #4]
   d662c:	429d      	cmp	r5, r3
   d662e:	d02f      	beq.n	d6690 <_ZN13EnergyMonitor8calcIrmsEj+0x78>
    sampleI = analogRead(inPinI);
   d6630:	8da0      	ldrh	r0, [r4, #44]	; 0x2c
   d6632:	f004 f8cb 	bl	da7cc <analogRead>
    offsetI = (offsetI + (sampleI-offsetI)/1024);
   d6636:	e9d4 891c 	ldrd	r8, r9, [r4, #112]	; 0x70
    sampleI = analogRead(inPinI);
   d663a:	64e0      	str	r0, [r4, #76]	; 0x4c
    offsetI = (offsetI + (sampleI-offsetI)/1024);
   d663c:	f004 fba2 	bl	dad84 <__aeabi_i2d>
   d6640:	4642      	mov	r2, r8
   d6642:	464b      	mov	r3, r9
   d6644:	4606      	mov	r6, r0
   d6646:	460f      	mov	r7, r1
   d6648:	f004 fa4e 	bl	daae8 <__aeabi_dsub>
   d664c:	4652      	mov	r2, sl
   d664e:	465b      	mov	r3, fp
   d6650:	f004 fc02 	bl	dae58 <__aeabi_dmul>
   d6654:	4642      	mov	r2, r8
   d6656:	464b      	mov	r3, r9
   d6658:	f004 fa48 	bl	daaec <__adddf3>
   d665c:	4602      	mov	r2, r0
   d665e:	460b      	mov	r3, r1
   d6660:	e9c4 231c 	strd	r2, r3, [r4, #112]	; 0x70
  filteredI = sampleI - offsetI;
   d6664:	4630      	mov	r0, r6
   d6666:	4639      	mov	r1, r7
   d6668:	f004 fa3e 	bl	daae8 <__aeabi_dsub>
   d666c:	4602      	mov	r2, r0
   d666e:	460b      	mov	r3, r1
   d6670:	e9c4 2318 	strd	r2, r3, [r4, #96]	; 0x60

    // Root-mean-square method current
    // 1) square current values
    sqI = filteredI * filteredI;
   d6674:	f004 fbf0 	bl	dae58 <__aeabi_dmul>
   d6678:	4602      	mov	r2, r0
   d667a:	460b      	mov	r3, r1
   d667c:	e9c4 2324 	strd	r2, r3, [r4, #144]	; 0x90
    // 2) sum 
    sumI += sqI;
   d6680:	e9d4 0126 	ldrd	r0, r1, [r4, #152]	; 0x98
   d6684:	f004 fa32 	bl	daaec <__adddf3>
  for (unsigned int n = 0; n < Number_of_Samples; n++)
   d6688:	3501      	adds	r5, #1
    sumI += sqI;
   d668a:	e9c4 0126 	strd	r0, r1, [r4, #152]	; 0x98
  for (unsigned int n = 0; n < Number_of_Samples; n++)
   d668e:	e7cc      	b.n	d662a <_ZN13EnergyMonitor8calcIrmsEj+0x12>
  }

  double I_RATIO = ICAL *((SupplyVoltage/1000.0) / (ADC_COUNTS));
   d6690:	a313      	add	r3, pc, #76	; (adr r3, d66e0 <_ZN13EnergyMonitor8calcIrmsEj+0xc8>)
   d6692:	e9d3 2300 	ldrd	r2, r3, [r3]
   d6696:	e9d4 010e 	ldrd	r0, r1, [r4, #56]	; 0x38
   d669a:	f004 fbdd 	bl	dae58 <__aeabi_dmul>
   d669e:	4606      	mov	r6, r0
  Irms = I_RATIO * sqrt(sumI / Number_of_Samples); 
   d66a0:	4628      	mov	r0, r5
  double I_RATIO = ICAL *((SupplyVoltage/1000.0) / (ADC_COUNTS));
   d66a2:	460f      	mov	r7, r1
  Irms = I_RATIO * sqrt(sumI / Number_of_Samples); 
   d66a4:	f004 fb5e 	bl	dad64 <__aeabi_ui2d>
   d66a8:	4602      	mov	r2, r0
   d66aa:	460b      	mov	r3, r1
   d66ac:	e9d4 0126 	ldrd	r0, r1, [r4, #152]	; 0x98
   d66b0:	f004 fcfc 	bl	db0ac <__aeabi_ddiv>
   d66b4:	ec41 0b10 	vmov	d0, r0, r1
   d66b8:	f004 f8ee 	bl	da898 <sqrt>
   d66bc:	4632      	mov	r2, r6
   d66be:	463b      	mov	r3, r7
   d66c0:	ec51 0b10 	vmov	r0, r1, d0
   d66c4:	f004 fbc8 	bl	dae58 <__aeabi_dmul>
   d66c8:	ec41 0b10 	vmov	d0, r0, r1

  //Reset accumulators
  sumI = 0;
   d66cc:	2200      	movs	r2, #0
   d66ce:	2300      	movs	r3, #0
  Irms = I_RATIO * sqrt(sumI / Number_of_Samples); 
   d66d0:	e9c4 0108 	strd	r0, r1, [r4, #32]
  sumI = 0;
   d66d4:	e9c4 2326 	strd	r2, r3, [r4, #152]	; 0x98
//--------------------------------------------------------------------------------------             
 
  return Irms;
}
   d66d8:	b003      	add	sp, #12
   d66da:	e8bd 8ff0 	ldmia.w	sp!, {r4, r5, r6, r7, r8, r9, sl, fp, pc}
   d66de:	bf00      	nop
   d66e0:	66666666 	.word	0x66666666
   d66e4:	3f4a6666 	.word	0x3f4a6666
   d66e8:	3f500000 	.word	0x3f500000

000d66ec <_ZN6MB85RCD1Ev>:
MB85RC::MB85RC(TwoWire &wire, size_t memorySize, int addr) :
	wire(wire), memorySize(memorySize), addr(addr) {
}

MB85RC::~MB85RC() {
}
   d66ec:	4770      	bx	lr

000d66ee <_ZN6MB85RCD0Ev>:
MB85RC::~MB85RC() {
   d66ee:	b510      	push	{r4, lr}
}
   d66f0:	2110      	movs	r1, #16
MB85RC::~MB85RC() {
   d66f2:	4604      	mov	r4, r0
}
   d66f4:	f004 f8c7 	bl	da886 <_ZdlPvj>
   d66f8:	4620      	mov	r0, r4
   d66fa:	bd10      	pop	{r4, pc}

000d66fc <_ZN7TwoWire5writeEj>:
  bool lock();
  bool unlock();

  inline size_t write(unsigned long n) { return write((uint8_t)n); }
  inline size_t write(long n) { return write((uint8_t)n); }
  inline size_t write(unsigned int n) { return write((uint8_t)n); }
   d66fc:	6803      	ldr	r3, [r0, #0]
   d66fe:	b2c9      	uxtb	r1, r1
   d6700:	689b      	ldr	r3, [r3, #8]
   d6702:	4718      	bx	r3

000d6704 <_ZN6MB85RCC1ER7TwoWireji>:
MB85RC::MB85RC(TwoWire &wire, size_t memorySize, int addr) :
   d6704:	b530      	push	{r4, r5, lr}
	wire(wire), memorySize(memorySize), addr(addr) {
   d6706:	4d03      	ldr	r5, [pc, #12]	; (d6714 <_ZN6MB85RCC1ER7TwoWireji+0x10>)
   d6708:	e9c0 2302 	strd	r2, r3, [r0, #8]
   d670c:	e9c0 5100 	strd	r5, r1, [r0]
}
   d6710:	bd30      	pop	{r4, r5, pc}
   d6712:	bf00      	nop
   d6714:	000ddf2c 	.word	0x000ddf2c

000d6718 <_ZN6MB85RC5beginEv>:

void MB85RC::begin() {
	wire.begin();
   d6718:	6840      	ldr	r0, [r0, #4]
   d671a:	f002 bdbf 	b.w	d929c <_ZN7TwoWire5beginEv>

000d671e <_ZNSt10lock_guardIR7TwoWireED1Ev>:
      { _M_device.lock(); }

      lock_guard(mutex_type& __m, adopt_lock_t) noexcept : _M_device(__m)
      { } // calling thread owns mutex

      ~lock_guard()
   d671e:	b510      	push	{r4, lr}
   d6720:	4604      	mov	r4, r0
      { _M_device.unlock(); }
   d6722:	6800      	ldr	r0, [r0, #0]
   d6724:	f002 fdfd 	bl	d9322 <_ZN7TwoWire6unlockEv>
   d6728:	4620      	mov	r0, r4
   d672a:	bd10      	pop	{r4, pc}

000d672c <_ZN6MB85RC5eraseEv>:
}

bool MB85RC::erase() {
   d672c:	e92d 41f0 	stmdb	sp!, {r4, r5, r6, r7, r8, lr}
   d6730:	b08a      	sub	sp, #40	; 0x28
   d6732:	4604      	mov	r4, r0

	WITH_LOCK(wire) {
   d6734:	6840      	ldr	r0, [r0, #4]
      explicit lock_guard(mutex_type& __m) : _M_device(__m)
   d6736:	9001      	str	r0, [sp, #4]
      { _M_device.lock(); }
   d6738:	f002 fdea 	bl	d9310 <_ZN7TwoWire4lockEv>
		size_t framAddr = 0;
		size_t totalLen = memorySize;

		uint8_t zero[30];
		memset(zero, 0, sizeof(zero));
   d673c:	221e      	movs	r2, #30
   d673e:	2100      	movs	r1, #0
   d6740:	a802      	add	r0, sp, #8
		size_t totalLen = memorySize;
   d6742:	68a7      	ldr	r7, [r4, #8]
		memset(zero, 0, sizeof(zero));
   d6744:	f004 ff3c 	bl	db5c0 <memset>
		size_t framAddr = 0;
   d6748:	2600      	movs	r6, #0

		while(totalLen > 0) {
   d674a:	b1ef      	cbz	r7, d6788 <_ZN6MB85RC5eraseEv+0x5c>
			size_t count = totalLen;
			if (count > sizeof(zero)) {
				count = sizeof(zero);
			}

			bool result = writeData(framAddr, zero, count);
   d674c:	6823      	ldr	r3, [r4, #0]
   d674e:	2f1e      	cmp	r7, #30
   d6750:	46b8      	mov	r8, r7
   d6752:	bf28      	it	cs
   d6754:	f04f 081e 	movcs.w	r8, #30
   d6758:	68dd      	ldr	r5, [r3, #12]
   d675a:	aa02      	add	r2, sp, #8
   d675c:	4643      	mov	r3, r8
   d675e:	4631      	mov	r1, r6
   d6760:	4620      	mov	r0, r4
   d6762:	47a8      	blx	r5
			if (!result) {
   d6764:	4605      	mov	r5, r0
   d6766:	b958      	cbnz	r0, d6780 <_ZN6MB85RC5eraseEv+0x54>
				Log.info("writeData failed during erase framAddr=%u", framAddr);
   d6768:	480a      	ldr	r0, [pc, #40]	; (d6794 <_ZN6MB85RC5eraseEv+0x68>)
   d676a:	490b      	ldr	r1, [pc, #44]	; (d6798 <_ZN6MB85RC5eraseEv+0x6c>)
   d676c:	4632      	mov	r2, r6
   d676e:	f7fd fe53 	bl	d4418 <_ZNK5spark6Logger4infoEPKcz>
	WITH_LOCK(wire) {
   d6772:	a801      	add	r0, sp, #4
   d6774:	f7ff ffd3 	bl	d671e <_ZNSt10lock_guardIR7TwoWireED1Ev>
			framAddr += count;
		}
	}

	return true;
}
   d6778:	4628      	mov	r0, r5
   d677a:	b00a      	add	sp, #40	; 0x28
   d677c:	e8bd 81f0 	ldmia.w	sp!, {r4, r5, r6, r7, r8, pc}
			totalLen -= count;
   d6780:	eba7 0708 	sub.w	r7, r7, r8
			framAddr += count;
   d6784:	4446      	add	r6, r8
		while(totalLen > 0) {
   d6786:	e7e0      	b.n	d674a <_ZN6MB85RC5eraseEv+0x1e>
	WITH_LOCK(wire) {
   d6788:	a801      	add	r0, sp, #4
   d678a:	f7ff ffc8 	bl	d671e <_ZNSt10lock_guardIR7TwoWireED1Ev>
	return true;
   d678e:	2501      	movs	r5, #1
   d6790:	e7f2      	b.n	d6778 <_ZN6MB85RC5eraseEv+0x4c>
   d6792:	bf00      	nop
   d6794:	2003e61c 	.word	0x2003e61c
   d6798:	000ddef8 	.word	0x000ddef8

000d679c <_ZN6MB85RC8readDataEjPhj>:


bool MB85RC::readData(size_t framAddr, uint8_t *data, size_t dataLen) {
   d679c:	e92d 43f7 	stmdb	sp!, {r0, r1, r2, r4, r5, r6, r7, r8, r9, lr}
   d67a0:	4604      	mov	r4, r0
	bool result = true;

	WITH_LOCK(wire) {
   d67a2:	6840      	ldr	r0, [r0, #4]
      explicit lock_guard(mutex_type& __m) : _M_device(__m)
   d67a4:	9001      	str	r0, [sp, #4]
bool MB85RC::readData(size_t framAddr, uint8_t *data, size_t dataLen) {
   d67a6:	460d      	mov	r5, r1
   d67a8:	4616      	mov	r6, r2
   d67aa:	461f      	mov	r7, r3
      { _M_device.lock(); }
   d67ac:	f002 fdb0 	bl	d9310 <_ZN7TwoWire4lockEv>

		while(dataLen > 0) {
   d67b0:	b1a7      	cbz	r7, d67dc <_ZN6MB85RC8readDataEjPhj+0x40>
			wire.beginTransmission(addr | DEVICE_ADDR);
   d67b2:	68e1      	ldr	r1, [r4, #12]
   d67b4:	6860      	ldr	r0, [r4, #4]
   d67b6:	f041 0150 	orr.w	r1, r1, #80	; 0x50
   d67ba:	f002 fda2 	bl	d9302 <_ZN7TwoWire17beginTransmissionEi>
			wire.write(framAddr >> 8);
   d67be:	0a29      	lsrs	r1, r5, #8
   d67c0:	6860      	ldr	r0, [r4, #4]
   d67c2:	f7ff ff9b 	bl	d66fc <_ZN7TwoWire5writeEj>
			wire.write(framAddr);
   d67c6:	4629      	mov	r1, r5
   d67c8:	6860      	ldr	r0, [r4, #4]
   d67ca:	f7ff ff97 	bl	d66fc <_ZN7TwoWire5writeEj>
			int stat = wire.endTransmission(false);
   d67ce:	6860      	ldr	r0, [r4, #4]
   d67d0:	2100      	movs	r1, #0
   d67d2:	f002 fd99 	bl	d9308 <_ZN7TwoWire15endTransmissionEh>
			if (stat != 0) {
   d67d6:	b148      	cbz	r0, d67ec <_ZN6MB85RC8readDataEjPhj+0x50>
				//Serial.printlnf("read set address failed %d", stat);
				result = false;
   d67d8:	2400      	movs	r4, #0
   d67da:	e000      	b.n	d67de <_ZN6MB85RC8readDataEjPhj+0x42>
   d67dc:	2401      	movs	r4, #1
	WITH_LOCK(wire) {
   d67de:	a801      	add	r0, sp, #4
   d67e0:	f7ff ff9d 	bl	d671e <_ZNSt10lock_guardIR7TwoWireED1Ev>
				dataLen--;
			}
		}
	}
	return result;
}
   d67e4:	4620      	mov	r0, r4
   d67e6:	b003      	add	sp, #12
   d67e8:	e8bd 83f0 	ldmia.w	sp!, {r4, r5, r6, r7, r8, r9, pc}
			if (bytesToRead > 32) {
   d67ec:	2f20      	cmp	r7, #32
			wire.requestFrom((uint8_t)(addr | DEVICE_ADDR), bytesToRead, (uint8_t) true);
   d67ee:	7b21      	ldrb	r1, [r4, #12]
   d67f0:	6860      	ldr	r0, [r4, #4]
   d67f2:	46b8      	mov	r8, r7
   d67f4:	bf28      	it	cs
   d67f6:	f04f 0820 	movcs.w	r8, #32
   d67fa:	2301      	movs	r3, #1
   d67fc:	4642      	mov	r2, r8
   d67fe:	f041 0150 	orr.w	r1, r1, #80	; 0x50
   d6802:	f002 fd68 	bl	d92d6 <_ZN7TwoWire11requestFromEhjh>
			if (Wire.available() < (int) bytesToRead) {
   d6806:	f004 f811 	bl	da82c <_Z19__fetch_global_Wirev>
   d680a:	6803      	ldr	r3, [r0, #0]
   d680c:	691b      	ldr	r3, [r3, #16]
   d680e:	4798      	blx	r3
   d6810:	4540      	cmp	r0, r8
   d6812:	dbe1      	blt.n	d67d8 <_ZN6MB85RC8readDataEjPhj+0x3c>
   d6814:	eb06 0908 	add.w	r9, r6, r8
				*data++ = Wire.read();    // receive a byte as character
   d6818:	f004 f808 	bl	da82c <_Z19__fetch_global_Wirev>
   d681c:	6803      	ldr	r3, [r0, #0]
   d681e:	695b      	ldr	r3, [r3, #20]
   d6820:	4798      	blx	r3
   d6822:	f806 0b01 	strb.w	r0, [r6], #1
			for(size_t ii = 0; ii < bytesToRead; ii++) {
   d6826:	454e      	cmp	r6, r9
   d6828:	d1f6      	bne.n	d6818 <_ZN6MB85RC8readDataEjPhj+0x7c>
   d682a:	4445      	add	r5, r8
   d682c:	eba7 0708 	sub.w	r7, r7, r8
   d6830:	e7be      	b.n	d67b0 <_ZN6MB85RC8readDataEjPhj+0x14>

000d6832 <_ZN6MB85RC9writeDataEjPKhj>:


bool MB85RC::writeData(size_t framAddr, const uint8_t *data, size_t dataLen) {
   d6832:	e92d 4ff7 	stmdb	sp!, {r0, r1, r2, r4, r5, r6, r7, r8, r9, sl, fp, lr}
   d6836:	4604      	mov	r4, r0
	bool result = true;

	WITH_LOCK(wire) {
   d6838:	6840      	ldr	r0, [r0, #4]
      explicit lock_guard(mutex_type& __m) : _M_device(__m)
   d683a:	9001      	str	r0, [sp, #4]
bool MB85RC::writeData(size_t framAddr, const uint8_t *data, size_t dataLen) {
   d683c:	460e      	mov	r6, r1
   d683e:	4690      	mov	r8, r2
   d6840:	461d      	mov	r5, r3
      { _M_device.lock(); }
   d6842:	f002 fd65 	bl	d9310 <_ZN7TwoWire4lockEv>
   d6846:	f04f 0901 	mov.w	r9, #1
	WITH_LOCK(wire) {
   d684a:	f1b9 0f00 	cmp.w	r9, #0
   d684e:	d02a      	beq.n	d68a6 <_ZN6MB85RC9writeDataEjPKhj+0x74>
		while(dataLen > 0) {
   d6850:	b34d      	cbz	r5, d68a6 <_ZN6MB85RC9writeDataEjPKhj+0x74>
			wire.beginTransmission(addr | DEVICE_ADDR);
   d6852:	68e1      	ldr	r1, [r4, #12]
   d6854:	6860      	ldr	r0, [r4, #4]
   d6856:	f041 0150 	orr.w	r1, r1, #80	; 0x50
   d685a:	f002 fd52 	bl	d9302 <_ZN7TwoWire17beginTransmissionEi>
			wire.write(framAddr >> 8);
   d685e:	0a31      	lsrs	r1, r6, #8
   d6860:	6860      	ldr	r0, [r4, #4]
   d6862:	f7ff ff4b 	bl	d66fc <_ZN7TwoWire5writeEj>
			wire.write(framAddr);
   d6866:	6860      	ldr	r0, [r4, #4]
   d6868:	4631      	mov	r1, r6
   d686a:	f7ff ff47 	bl	d66fc <_ZN7TwoWire5writeEj>

			for(size_t ii = 0; ii < 30 && dataLen > 0; ii++) {
   d686e:	f1a5 0a1e 	sub.w	sl, r5, #30
			wire.write(framAddr);
   d6872:	4647      	mov	r7, r8
   d6874:	eba6 0b08 	sub.w	fp, r6, r8
				wire.write(*data);
   d6878:	6860      	ldr	r0, [r4, #4]
   d687a:	f817 1b01 	ldrb.w	r1, [r7], #1
   d687e:	6803      	ldr	r3, [r0, #0]
				framAddr++;
				data++;
				dataLen--;
   d6880:	3d01      	subs	r5, #1
				wire.write(*data);
   d6882:	689b      	ldr	r3, [r3, #8]
   d6884:	4798      	blx	r3
			for(size_t ii = 0; ii < 30 && dataLen > 0; ii++) {
   d6886:	4555      	cmp	r5, sl
   d6888:	eb0b 0607 	add.w	r6, fp, r7
				data++;
   d688c:	46b8      	mov	r8, r7
			for(size_t ii = 0; ii < 30 && dataLen > 0; ii++) {
   d688e:	d001      	beq.n	d6894 <_ZN6MB85RC9writeDataEjPKhj+0x62>
   d6890:	2d00      	cmp	r5, #0
   d6892:	d1f1      	bne.n	d6878 <_ZN6MB85RC9writeDataEjPKhj+0x46>
			}

			int stat = wire.endTransmission(true);
   d6894:	6860      	ldr	r0, [r4, #4]
   d6896:	2101      	movs	r1, #1
   d6898:	f002 fd36 	bl	d9308 <_ZN7TwoWire15endTransmissionEh>
			if (stat != 0) {
   d689c:	2800      	cmp	r0, #0
   d689e:	d0d7      	beq.n	d6850 <_ZN6MB85RC9writeDataEjPKhj+0x1e>
				//Serial.printlnf("write failed %d", stat);
				result = false;
   d68a0:	f04f 0900 	mov.w	r9, #0
   d68a4:	e7d1      	b.n	d684a <_ZN6MB85RC9writeDataEjPKhj+0x18>
	WITH_LOCK(wire) {
   d68a6:	a801      	add	r0, sp, #4
   d68a8:	f7ff ff39 	bl	d671e <_ZNSt10lock_guardIR7TwoWireED1Ev>
				break;
			}
		}
	}
	return result;
}
   d68ac:	4648      	mov	r0, r9
   d68ae:	b003      	add	sp, #12
   d68b0:	e8bd 8ff0 	ldmia.w	sp!, {r4, r5, r6, r7, r8, r9, sl, fp, pc}

000d68b4 <_ZN6MB85RC8moveDataEjjj>:


bool MB85RC::moveData(size_t framAddrFrom, size_t framAddrTo, size_t numBytes) {
   d68b4:	e92d 43f0 	stmdb	sp!, {r4, r5, r6, r7, r8, r9, lr}
   d68b8:	b08b      	sub	sp, #44	; 0x2c
   d68ba:	460e      	mov	r6, r1
   d68bc:	4615      	mov	r5, r2
   d68be:	4680      	mov	r8, r0
	bool result = true;

	// Maximum number of bytes we can write is 30
	uint8_t buf[30];

	WITH_LOCK(wire) {
   d68c0:	6840      	ldr	r0, [r0, #4]
      explicit lock_guard(mutex_type& __m) : _M_device(__m)
   d68c2:	9001      	str	r0, [sp, #4]
bool MB85RC::moveData(size_t framAddrFrom, size_t framAddrTo, size_t numBytes) {
   d68c4:	461c      	mov	r4, r3
      { _M_device.lock(); }
   d68c6:	f002 fd23 	bl	d9310 <_ZN7TwoWire4lockEv>
		if (framAddrFrom < framAddrTo) {
   d68ca:	42ae      	cmp	r6, r5
   d68cc:	d229      	bcs.n	d6922 <_ZN6MB85RC8moveDataEjjj+0x6e>
			// Moving to a higher address - copy from the end of the from buffer
			framAddrFrom += numBytes;
   d68ce:	4426      	add	r6, r4
			framAddrTo += numBytes;
   d68d0:	4425      	add	r5, r4
			while(numBytes > 0) {
   d68d2:	b18c      	cbz	r4, d68f8 <_ZN6MB85RC8moveDataEjjj+0x44>
				size_t count = numBytes;
				if (count > sizeof(buf)) {
   d68d4:	2c1e      	cmp	r4, #30
   d68d6:	4627      	mov	r7, r4
					count = sizeof(buf);
				}
				framAddrFrom -= count;
				framAddrTo -= count;

				result = readData(framAddrFrom, buf, count);
   d68d8:	f8d8 3000 	ldr.w	r3, [r8]
   d68dc:	bf28      	it	cs
   d68de:	271e      	movcs	r7, #30
				framAddrFrom -= count;
   d68e0:	1bf6      	subs	r6, r6, r7
				result = readData(framAddrFrom, buf, count);
   d68e2:	f8d3 9008 	ldr.w	r9, [r3, #8]
   d68e6:	aa02      	add	r2, sp, #8
   d68e8:	463b      	mov	r3, r7
   d68ea:	4631      	mov	r1, r6
   d68ec:	4640      	mov	r0, r8
				framAddrTo -= count;
   d68ee:	1bed      	subs	r5, r5, r7
				result = readData(framAddrFrom, buf, count);
   d68f0:	47c8      	blx	r9
				if (!result) {
   d68f2:	b948      	cbnz	r0, d6908 <_ZN6MB85RC8moveDataEjjj+0x54>
bool MB85RC::moveData(size_t framAddrFrom, size_t framAddrTo, size_t numBytes) {
   d68f4:	2400      	movs	r4, #0
   d68f6:	e000      	b.n	d68fa <_ZN6MB85RC8moveDataEjjj+0x46>
   d68f8:	2401      	movs	r4, #1
	WITH_LOCK(wire) {
   d68fa:	a801      	add	r0, sp, #4
   d68fc:	f7ff ff0f 	bl	d671e <_ZNSt10lock_guardIR7TwoWireED1Ev>
				numBytes -= count;
			}
		}
	}
	return result;
}
   d6900:	4620      	mov	r0, r4
   d6902:	b00b      	add	sp, #44	; 0x2c
   d6904:	e8bd 83f0 	ldmia.w	sp!, {r4, r5, r6, r7, r8, r9, pc}
				result = writeData(framAddrTo, buf, count);
   d6908:	f8d8 3000 	ldr.w	r3, [r8]
   d690c:	aa02      	add	r2, sp, #8
   d690e:	f8d3 900c 	ldr.w	r9, [r3, #12]
   d6912:	4629      	mov	r1, r5
   d6914:	463b      	mov	r3, r7
   d6916:	4640      	mov	r0, r8
   d6918:	47c8      	blx	r9
				if (!result) {
   d691a:	2800      	cmp	r0, #0
   d691c:	d0ea      	beq.n	d68f4 <_ZN6MB85RC8moveDataEjjj+0x40>
				numBytes -= count;
   d691e:	1be4      	subs	r4, r4, r7
			while(numBytes > 0) {
   d6920:	e7d7      	b.n	d68d2 <_ZN6MB85RC8moveDataEjjj+0x1e>
		if (framAddrFrom > framAddrTo) {
   d6922:	d9e9      	bls.n	d68f8 <_ZN6MB85RC8moveDataEjjj+0x44>
			while(numBytes > 0) {
   d6924:	2c00      	cmp	r4, #0
   d6926:	d0e7      	beq.n	d68f8 <_ZN6MB85RC8moveDataEjjj+0x44>
				result = readData(framAddrFrom, buf, count);
   d6928:	f8d8 3000 	ldr.w	r3, [r8]
   d692c:	2c1e      	cmp	r4, #30
   d692e:	4627      	mov	r7, r4
   d6930:	bf28      	it	cs
   d6932:	271e      	movcs	r7, #30
   d6934:	f8d3 9008 	ldr.w	r9, [r3, #8]
   d6938:	aa02      	add	r2, sp, #8
   d693a:	463b      	mov	r3, r7
   d693c:	4631      	mov	r1, r6
   d693e:	4640      	mov	r0, r8
   d6940:	47c8      	blx	r9
				if (!result) {
   d6942:	2800      	cmp	r0, #0
   d6944:	d0d6      	beq.n	d68f4 <_ZN6MB85RC8moveDataEjjj+0x40>
				result = writeData(framAddrTo, buf, count);
   d6946:	f8d8 3000 	ldr.w	r3, [r8]
   d694a:	aa02      	add	r2, sp, #8
   d694c:	f8d3 900c 	ldr.w	r9, [r3, #12]
   d6950:	4629      	mov	r1, r5
   d6952:	463b      	mov	r3, r7
   d6954:	4640      	mov	r0, r8
   d6956:	47c8      	blx	r9
				if (!result) {
   d6958:	2800      	cmp	r0, #0
   d695a:	d0cb      	beq.n	d68f4 <_ZN6MB85RC8moveDataEjjj+0x40>
				framAddrFrom += count;
   d695c:	443e      	add	r6, r7
				framAddrTo += count;
   d695e:	443d      	add	r5, r7
				numBytes -= count;
   d6960:	1be4      	subs	r4, r4, r7
			while(numBytes > 0) {
   d6962:	e7df      	b.n	d6924 <_ZN6MB85RC8moveDataEjjj+0x70>

000d6964 <_ZNK12MCP79410SRAM6lengthEv>:
	virtual ~MCP79410SRAM();

	/**
	 * @brief Returns the length (64)
	 */
	virtual size_t length() const { return 64; };
   d6964:	2040      	movs	r0, #64	; 0x40
   d6966:	4770      	bx	lr

000d6968 <_ZNK12MCP79410SRAM10eraseValueEv>:
	/**
	 * @brief Erase erases to 0
	 *
	 * Note that on cold power up, the values are random, not zero!
	 */
	virtual uint8_t eraseValue() const { return 0; };
   d6968:	2000      	movs	r0, #0
   d696a:	4770      	bx	lr

000d696c <_ZNK14MCP79410EEPROM6lengthEv>:
	bool protectedBlockRead(uint8_t *buf);

	/**
	 * @brief Returns the length (128)
	 */
	virtual size_t length() const { return 128; };
   d696c:	2080      	movs	r0, #128	; 0x80
   d696e:	4770      	bx	lr

000d6970 <_ZNK14MCP79410EEPROM10eraseValueEv>:

	/**
	 * @brief Erased value is 0xff.
	 */
	virtual uint8_t eraseValue() const { return 0xff; };
   d6970:	20ff      	movs	r0, #255	; 0xff
   d6972:	4770      	bx	lr

000d6974 <_ZN12MCP79410SRAMD1Ev>:

}

MCP79410SRAM::~MCP79410SRAM() {

}
   d6974:	4770      	bx	lr

000d6976 <_ZN14MCP79410EEPROMD1Ev>:

}

MCP79410EEPROM::~MCP79410EEPROM() {

}
   d6976:	4770      	bx	lr

000d6978 <_ZN12MCP79410TimeD1Ev>:
	clear();
}

MCP79410Time::~MCP79410Time() {

}
   d6978:	4770      	bx	lr

000d697a <_ZN8MCP79410D1Ev>:
}


MCP79410::~MCP79410() {

}
   d697a:	4770      	bx	lr

000d697c <_ZN12MCP79410TimeD0Ev>:
MCP79410Time::~MCP79410Time() {
   d697c:	b510      	push	{r4, lr}
}
   d697e:	2114      	movs	r1, #20
MCP79410Time::~MCP79410Time() {
   d6980:	4604      	mov	r4, r0
}
   d6982:	f003 ff80 	bl	da886 <_ZdlPvj>
   d6986:	4620      	mov	r0, r4
   d6988:	bd10      	pop	{r4, pc}

000d698a <_ZN12MCP79410SRAMD0Ev>:
MCP79410SRAM::~MCP79410SRAM() {
   d698a:	b510      	push	{r4, lr}
}
   d698c:	2108      	movs	r1, #8
MCP79410SRAM::~MCP79410SRAM() {
   d698e:	4604      	mov	r4, r0
}
   d6990:	f003 ff79 	bl	da886 <_ZdlPvj>
   d6994:	4620      	mov	r0, r4
   d6996:	bd10      	pop	{r4, pc}

000d6998 <_ZN14MCP79410EEPROMD0Ev>:
MCP79410EEPROM::~MCP79410EEPROM() {
   d6998:	b510      	push	{r4, lr}
}
   d699a:	2108      	movs	r1, #8
MCP79410EEPROM::~MCP79410EEPROM() {
   d699c:	4604      	mov	r4, r0
}
   d699e:	f003 ff72 	bl	da886 <_ZdlPvj>
   d69a2:	4620      	mov	r0, r4
   d69a4:	bd10      	pop	{r4, pc}

000d69a6 <_ZN8MCP79410D0Ev>:
MCP79410::~MCP79410() {
   d69a6:	b510      	push	{r4, lr}
}
   d69a8:	211c      	movs	r1, #28
MCP79410::~MCP79410() {
   d69aa:	4604      	mov	r4, r0
}
   d69ac:	f003 ff6b 	bl	da886 <_ZdlPvj>
   d69b0:	4620      	mov	r0, r4
   d69b2:	bd10      	pop	{r4, pc}

000d69b4 <_ZN18MCP79410MemoryBase5eraseEv>:
bool MCP79410MemoryBase::erase() {
   d69b4:	e92d 41ff 	stmdb	sp!, {r0, r1, r2, r3, r4, r5, r6, r7, r8, lr}
	memset(buf, eraseValue(), sizeof(buf));
   d69b8:	6803      	ldr	r3, [r0, #0]
   d69ba:	68db      	ldr	r3, [r3, #12]
bool MCP79410MemoryBase::erase() {
   d69bc:	4604      	mov	r4, r0
	memset(buf, eraseValue(), sizeof(buf));
   d69be:	4798      	blx	r3
   d69c0:	2210      	movs	r2, #16
   d69c2:	4601      	mov	r1, r0
   d69c4:	4668      	mov	r0, sp
   d69c6:	f004 fdfb 	bl	db5c0 <memset>
	size_t len = length();
   d69ca:	6823      	ldr	r3, [r4, #0]
   d69cc:	4620      	mov	r0, r4
   d69ce:	689b      	ldr	r3, [r3, #8]
   d69d0:	4798      	blx	r3
	size_t offset = 0;
   d69d2:	2500      	movs	r5, #0
	size_t len = length();
   d69d4:	4607      	mov	r7, r0
	bool bResult = false;
   d69d6:	4628      	mov	r0, r5
	while(offset < len) {
   d69d8:	42bd      	cmp	r5, r7
   d69da:	d20e      	bcs.n	d69fa <_ZN18MCP79410MemoryBase5eraseEv+0x46>
		if (count > (len - offset)) {
   d69dc:	1b7e      	subs	r6, r7, r5
		bResult = writeData(offset, buf, count);
   d69de:	6823      	ldr	r3, [r4, #0]
		size_t count = sizeof(buf);
   d69e0:	2e10      	cmp	r6, #16
   d69e2:	bf28      	it	cs
   d69e4:	2610      	movcs	r6, #16
		bResult = writeData(offset, buf, count);
   d69e6:	f8d3 8018 	ldr.w	r8, [r3, #24]
   d69ea:	466a      	mov	r2, sp
   d69ec:	4633      	mov	r3, r6
   d69ee:	4629      	mov	r1, r5
   d69f0:	4620      	mov	r0, r4
   d69f2:	47c0      	blx	r8
		if (!bResult) {
   d69f4:	b108      	cbz	r0, d69fa <_ZN18MCP79410MemoryBase5eraseEv+0x46>
		offset += count;
   d69f6:	4435      	add	r5, r6
	while(offset < len) {
   d69f8:	e7ee      	b.n	d69d8 <_ZN18MCP79410MemoryBase5eraseEv+0x24>
}
   d69fa:	b004      	add	sp, #16
   d69fc:	e8bd 81f0 	ldmia.w	sp!, {r4, r5, r6, r7, r8, pc}

000d6a00 <_ZN12MCP79410Time5clearEv>:
	rawYear = 0;
   d6a00:	f44f 7380 	mov.w	r3, #256	; 0x100
   d6a04:	8143      	strh	r3, [r0, #10]
	rawDayOfMonth = 1;
   d6a06:	f240 1301 	movw	r3, #257	; 0x101
   d6a0a:	60c3      	str	r3, [r0, #12]
	rawSecond = 0;
   d6a0c:	2300      	movs	r3, #0
   d6a0e:	8203      	strh	r3, [r0, #16]
}
   d6a10:	4770      	bx	lr
	...

000d6a14 <_ZN12MCP79410TimeC1Ev>:
MCP79410Time::MCP79410Time() {
   d6a14:	b508      	push	{r3, lr}
   d6a16:	4b06      	ldr	r3, [pc, #24]	; (d6a30 <_ZN12MCP79410TimeC1Ev+0x1c>)
   d6a18:	6003      	str	r3, [r0, #0]
   d6a1a:	4b06      	ldr	r3, [pc, #24]	; (d6a34 <_ZN12MCP79410TimeC1Ev+0x20>)
   d6a1c:	6043      	str	r3, [r0, #4]
   d6a1e:	f240 7304 	movw	r3, #1796	; 0x704
   d6a22:	8103      	strh	r3, [r0, #8]
   d6a24:	2300      	movs	r3, #0
   d6a26:	7443      	strb	r3, [r0, #17]
	clear();
   d6a28:	f7ff ffea 	bl	d6a00 <_ZN12MCP79410Time5clearEv>
}
   d6a2c:	bd08      	pop	{r3, pc}
   d6a2e:	bf00      	nop
   d6a30:	000de00c 	.word	0x000de00c
   d6a34:	03020100 	.word	0x03020100

000d6a38 <_ZN12MCP79410Time8bcdToIntEh>:
	return ((value >> 4) & 0xf) * 10 + (value & 0xf);
   d6a38:	0903      	lsrs	r3, r0, #4
}
   d6a3a:	220a      	movs	r2, #10
	return ((value >> 4) & 0xf) * 10 + (value & 0xf);
   d6a3c:	f000 000f 	and.w	r0, r0, #15
}
   d6a40:	fb02 0003 	mla	r0, r2, r3, r0
   d6a44:	4770      	bx	lr

000d6a46 <_ZNK12MCP79410Time7getYearEv>:
int MCP79410Time::getYear() const {
   d6a46:	b508      	push	{r3, lr}
	return bcdToInt(rawYear) + 2000;
   d6a48:	7a80      	ldrb	r0, [r0, #10]
   d6a4a:	f7ff fff5 	bl	d6a38 <_ZN12MCP79410Time8bcdToIntEh>
}
   d6a4e:	f500 60fa 	add.w	r0, r0, #2000	; 0x7d0
   d6a52:	bd08      	pop	{r3, pc}

000d6a54 <_ZNK12MCP79410Time8getMonthEv>:
	return bcdToInt(rawMonth & 0x1f);
   d6a54:	7ac0      	ldrb	r0, [r0, #11]
   d6a56:	f000 001f 	and.w	r0, r0, #31
   d6a5a:	f7ff bfed 	b.w	d6a38 <_ZN12MCP79410Time8bcdToIntEh>

000d6a5e <_ZNK12MCP79410Time13getDayOfMonthEv>:
	return bcdToInt(rawDayOfMonth & 0x3f);
   d6a5e:	7b00      	ldrb	r0, [r0, #12]
   d6a60:	f000 003f 	and.w	r0, r0, #63	; 0x3f
   d6a64:	f7ff bfe8 	b.w	d6a38 <_ZN12MCP79410Time8bcdToIntEh>

000d6a68 <_ZNK12MCP79410Time7getHourEv>:
int MCP79410Time::getHour() const {
   d6a68:	b508      	push	{r3, lr}
	if (rawHour & 0x40) {
   d6a6a:	7b81      	ldrb	r1, [r0, #14]
   d6a6c:	064a      	lsls	r2, r1, #25
   d6a6e:	d50d      	bpl.n	d6a8c <_ZNK12MCP79410Time7getHourEv+0x24>
		int hour12 = bcdToInt(rawHour & 0x1f);
   d6a70:	f001 001f 	and.w	r0, r1, #31
   d6a74:	f7ff ffe0 	bl	d6a38 <_ZN12MCP79410Time8bcdToIntEh>
		if (rawHour & 0x20) {
   d6a78:	068b      	lsls	r3, r1, #26
   d6a7a:	d503      	bpl.n	d6a84 <_ZNK12MCP79410Time7getHourEv+0x1c>
			if (hour12 == 12) {
   d6a7c:	280c      	cmp	r0, #12
   d6a7e:	d000      	beq.n	d6a82 <_ZNK12MCP79410Time7getHourEv+0x1a>
				return hour12 + 12;
   d6a80:	300c      	adds	r0, #12
}
   d6a82:	bd08      	pop	{r3, pc}
				return 0;
   d6a84:	280c      	cmp	r0, #12
   d6a86:	bf08      	it	eq
   d6a88:	2000      	moveq	r0, #0
   d6a8a:	e7fa      	b.n	d6a82 <_ZNK12MCP79410Time7getHourEv+0x1a>
}
   d6a8c:	e8bd 4008 	ldmia.w	sp!, {r3, lr}
		return bcdToInt(rawHour & 0x3f);
   d6a90:	f001 003f 	and.w	r0, r1, #63	; 0x3f
   d6a94:	f7ff bfd0 	b.w	d6a38 <_ZN12MCP79410Time8bcdToIntEh>

000d6a98 <_ZNK12MCP79410Time9getMinuteEv>:
	return bcdToInt(rawMinute & 0x7f);
   d6a98:	7bc0      	ldrb	r0, [r0, #15]
   d6a9a:	f000 007f 	and.w	r0, r0, #127	; 0x7f
   d6a9e:	f7ff bfcb 	b.w	d6a38 <_ZN12MCP79410Time8bcdToIntEh>

000d6aa2 <_ZNK12MCP79410Time9getSecondEv>:
	return bcdToInt(rawSecond & 0x7f);
   d6aa2:	7c00      	ldrb	r0, [r0, #16]
   d6aa4:	f000 007f 	and.w	r0, r0, #127	; 0x7f
   d6aa8:	f7ff bfc6 	b.w	d6a38 <_ZN12MCP79410Time8bcdToIntEh>

000d6aac <_ZNK12MCP79410Time10toUnixTimeEv>:
time_t MCP79410Time::toUnixTime() const {
   d6aac:	b510      	push	{r4, lr}
   d6aae:	b08a      	sub	sp, #40	; 0x28
	memset(&tm, 0, sizeof(struct tm));
   d6ab0:	2224      	movs	r2, #36	; 0x24
time_t MCP79410Time::toUnixTime() const {
   d6ab2:	4604      	mov	r4, r0
	memset(&tm, 0, sizeof(struct tm));
   d6ab4:	2100      	movs	r1, #0
   d6ab6:	a801      	add	r0, sp, #4
   d6ab8:	f004 fd82 	bl	db5c0 <memset>
	tm.tm_year = getYear() - 1900; // tm_year is years since 1900
   d6abc:	4620      	mov	r0, r4
   d6abe:	f7ff ffc2 	bl	d6a46 <_ZNK12MCP79410Time7getYearEv>
   d6ac2:	f2a0 706c 	subw	r0, r0, #1900	; 0x76c
   d6ac6:	9006      	str	r0, [sp, #24]
	tm.tm_mon = getMonth() - 1; // tm_mon is 0-11!
   d6ac8:	4620      	mov	r0, r4
   d6aca:	f7ff ffc3 	bl	d6a54 <_ZNK12MCP79410Time8getMonthEv>
   d6ace:	3801      	subs	r0, #1
   d6ad0:	9005      	str	r0, [sp, #20]
	tm.tm_mday = getDayOfMonth(); // 1-31
   d6ad2:	4620      	mov	r0, r4
   d6ad4:	f7ff ffc3 	bl	d6a5e <_ZNK12MCP79410Time13getDayOfMonthEv>
   d6ad8:	9004      	str	r0, [sp, #16]
	tm.tm_hour = getHour();
   d6ada:	4620      	mov	r0, r4
   d6adc:	f7ff ffc4 	bl	d6a68 <_ZNK12MCP79410Time7getHourEv>
   d6ae0:	9003      	str	r0, [sp, #12]
	tm.tm_min = getMinute();
   d6ae2:	4620      	mov	r0, r4
   d6ae4:	f7ff ffd8 	bl	d6a98 <_ZNK12MCP79410Time9getMinuteEv>
   d6ae8:	9002      	str	r0, [sp, #8]
	tm.tm_sec = getSecond();
   d6aea:	4620      	mov	r0, r4
   d6aec:	f7ff ffd9 	bl	d6aa2 <_ZNK12MCP79410Time9getSecondEv>
   d6af0:	9001      	str	r0, [sp, #4]
	return mktime(&tm);
   d6af2:	a801      	add	r0, sp, #4
   d6af4:	f001 fffc 	bl	d8af0 <mktime>
}
   d6af8:	b00a      	add	sp, #40	; 0x28
   d6afa:	bd10      	pop	{r4, pc}

000d6afc <_ZN12MCP79410Time8intToBcdEi>:
	result = (uint8_t) (((value / 10) % 10) << 4);
   d6afc:	210a      	movs	r1, #10
   d6afe:	fb90 f2f1 	sdiv	r2, r0, r1
   d6b02:	fb92 f3f1 	sdiv	r3, r2, r1
   d6b06:	fb01 2313 	mls	r3, r1, r3, r2
   d6b0a:	011b      	lsls	r3, r3, #4
   d6b0c:	b2db      	uxtb	r3, r3
	result |= (uint8_t) (value % 10);
   d6b0e:	fb01 0012 	mls	r0, r1, r2, r0
   d6b12:	4318      	orrs	r0, r3
}
   d6b14:	b2c0      	uxtb	r0, r0
   d6b16:	4770      	bx	lr

000d6b18 <_ZN12MCP79410Time7setYearEi>:
	rawYear = intToBcd(value % 100);
   d6b18:	2364      	movs	r3, #100	; 0x64
void MCP79410Time::setYear(int value) {
   d6b1a:	b510      	push	{r4, lr}
   d6b1c:	4604      	mov	r4, r0
	rawYear = intToBcd(value % 100);
   d6b1e:	fb91 f0f3 	sdiv	r0, r1, r3
   d6b22:	fb00 1013 	mls	r0, r0, r3, r1
   d6b26:	f7ff ffe9 	bl	d6afc <_ZN12MCP79410Time8intToBcdEi>
   d6b2a:	72a0      	strb	r0, [r4, #10]
}
   d6b2c:	bd10      	pop	{r4, pc}

000d6b2e <_ZN12MCP79410Time8setMonthEi>:
void MCP79410Time::setMonth(int value) {
   d6b2e:	b510      	push	{r4, lr}
   d6b30:	4604      	mov	r4, r0
	rawMonth = intToBcd(value);
   d6b32:	4608      	mov	r0, r1
   d6b34:	f7ff ffe2 	bl	d6afc <_ZN12MCP79410Time8intToBcdEi>
   d6b38:	72e0      	strb	r0, [r4, #11]
}
   d6b3a:	bd10      	pop	{r4, pc}

000d6b3c <_ZN12MCP79410Time13setDayOfMonthEi>:
void MCP79410Time::setDayOfMonth(int value) {
   d6b3c:	b510      	push	{r4, lr}
   d6b3e:	4604      	mov	r4, r0
	rawDayOfMonth |= intToBcd(value);
   d6b40:	4608      	mov	r0, r1
   d6b42:	f7ff ffdb 	bl	d6afc <_ZN12MCP79410Time8intToBcdEi>
	rawDayOfMonth &= ~0x3f;
   d6b46:	7b23      	ldrb	r3, [r4, #12]
   d6b48:	f023 033f 	bic.w	r3, r3, #63	; 0x3f
	rawDayOfMonth |= intToBcd(value);
   d6b4c:	4318      	orrs	r0, r3
   d6b4e:	7320      	strb	r0, [r4, #12]
}
   d6b50:	bd10      	pop	{r4, pc}

000d6b52 <_ZN12MCP79410Time12setDayOfWeekEi>:
void MCP79410Time::setDayOfWeek(int value) {
   d6b52:	b510      	push	{r4, lr}
   d6b54:	4604      	mov	r4, r0
	rawDayOfWeek |= intToBcd(value + 1);
   d6b56:	1c48      	adds	r0, r1, #1
   d6b58:	f7ff ffd0 	bl	d6afc <_ZN12MCP79410Time8intToBcdEi>
	rawDayOfWeek &= ~0x7;
   d6b5c:	7b63      	ldrb	r3, [r4, #13]
   d6b5e:	f023 0307 	bic.w	r3, r3, #7
	rawDayOfWeek |= intToBcd(value + 1);
   d6b62:	4318      	orrs	r0, r3
   d6b64:	7360      	strb	r0, [r4, #13]
}
   d6b66:	bd10      	pop	{r4, pc}

000d6b68 <_ZN12MCP79410Time7setHourEi>:
void MCP79410Time::setHour(int value) {
   d6b68:	b510      	push	{r4, lr}
   d6b6a:	4604      	mov	r4, r0
	rawHour = intToBcd(value);
   d6b6c:	4608      	mov	r0, r1
   d6b6e:	f7ff ffc5 	bl	d6afc <_ZN12MCP79410Time8intToBcdEi>
   d6b72:	73a0      	strb	r0, [r4, #14]
}
   d6b74:	bd10      	pop	{r4, pc}

000d6b76 <_ZN12MCP79410Time9setMinuteEi>:
void MCP79410Time::setMinute(int value) {
   d6b76:	b510      	push	{r4, lr}
   d6b78:	4604      	mov	r4, r0
	rawMinute = intToBcd(value);
   d6b7a:	4608      	mov	r0, r1
   d6b7c:	f7ff ffbe 	bl	d6afc <_ZN12MCP79410Time8intToBcdEi>
   d6b80:	73e0      	strb	r0, [r4, #15]
}
   d6b82:	bd10      	pop	{r4, pc}

000d6b84 <_ZN12MCP79410Time9setSecondEi>:
void MCP79410Time::setSecond(int value) {
   d6b84:	b510      	push	{r4, lr}
   d6b86:	4604      	mov	r4, r0
	rawSecond |= intToBcd(value);
   d6b88:	4608      	mov	r0, r1
   d6b8a:	f7ff ffb7 	bl	d6afc <_ZN12MCP79410Time8intToBcdEi>
	rawSecond &= ~0x7f;
   d6b8e:	7c23      	ldrb	r3, [r4, #16]
   d6b90:	f023 037f 	bic.w	r3, r3, #127	; 0x7f
	rawSecond |= intToBcd(value);
   d6b94:	4318      	orrs	r0, r3
   d6b96:	7420      	strb	r0, [r4, #16]
}
   d6b98:	bd10      	pop	{r4, pc}

000d6b9a <_ZN12MCP79410Time12fromUnixTimeEx>:
void MCP79410Time::fromUnixTime(time_t time) {
   d6b9a:	b537      	push	{r0, r1, r2, r4, r5, lr}
   d6b9c:	4604      	mov	r4, r0
	struct tm *tm = gmtime(&time);
   d6b9e:	4668      	mov	r0, sp
void MCP79410Time::fromUnixTime(time_t time) {
   d6ba0:	e9cd 2300 	strd	r2, r3, [sp]
	struct tm *tm = gmtime(&time);
   d6ba4:	f004 fcd2 	bl	db54c <gmtime>
   d6ba8:	4605      	mov	r5, r0
	setYear(tm->tm_year);
   d6baa:	6941      	ldr	r1, [r0, #20]
   d6bac:	4620      	mov	r0, r4
   d6bae:	f7ff ffb3 	bl	d6b18 <_ZN12MCP79410Time7setYearEi>
	setMonth(tm->tm_mon + 1);
   d6bb2:	6929      	ldr	r1, [r5, #16]
   d6bb4:	4620      	mov	r0, r4
   d6bb6:	3101      	adds	r1, #1
   d6bb8:	f7ff ffb9 	bl	d6b2e <_ZN12MCP79410Time8setMonthEi>
	setDayOfMonth(tm->tm_mday);
   d6bbc:	68e9      	ldr	r1, [r5, #12]
   d6bbe:	4620      	mov	r0, r4
   d6bc0:	f7ff ffbc 	bl	d6b3c <_ZN12MCP79410Time13setDayOfMonthEi>
	setDayOfWeek(tm->tm_wday);
   d6bc4:	69a9      	ldr	r1, [r5, #24]
   d6bc6:	4620      	mov	r0, r4
   d6bc8:	f7ff ffc3 	bl	d6b52 <_ZN12MCP79410Time12setDayOfWeekEi>
	setHour(tm->tm_hour); // tm_hour is 0-23
   d6bcc:	68a9      	ldr	r1, [r5, #8]
   d6bce:	4620      	mov	r0, r4
   d6bd0:	f7ff ffca 	bl	d6b68 <_ZN12MCP79410Time7setHourEi>
	setMinute(tm->tm_min); // tm_min is 0-59
   d6bd4:	6869      	ldr	r1, [r5, #4]
   d6bd6:	4620      	mov	r0, r4
   d6bd8:	f7ff ffcd 	bl	d6b76 <_ZN12MCP79410Time9setMinuteEi>
	setSecond(tm->tm_sec < 60 ? tm->tm_sec : 59); // tm_sec is 0-61, inclusive, because of leap seconds.
   d6bdc:	6829      	ldr	r1, [r5, #0]
   d6bde:	293b      	cmp	r1, #59	; 0x3b
   d6be0:	bfa8      	it	ge
   d6be2:	213b      	movge	r1, #59	; 0x3b
   d6be4:	4620      	mov	r0, r4
   d6be6:	f7ff ffcd 	bl	d6b84 <_ZN12MCP79410Time9setSecondEi>
}
   d6bea:	b003      	add	sp, #12
   d6bec:	bd30      	pop	{r4, r5, pc}
	...

000d6bf0 <_ZN8MCP79410C1ER7TwoWire>:
MCP79410::MCP79410(TwoWire &wire) : wire(wire), sramObj(this), eepromObj(this) {
   d6bf0:	4a05      	ldr	r2, [pc, #20]	; (d6c08 <_ZN8MCP79410C1ER7TwoWire+0x18>)
MCP79410MemoryBase::MCP79410MemoryBase(MCP79410 *parent) : parent(parent) {
   d6bf2:	6100      	str	r0, [r0, #16]
MCP79410::MCP79410(TwoWire &wire) : wire(wire), sramObj(this), eepromObj(this) {
   d6bf4:	e9c0 2100 	strd	r2, r1, [r0]
   d6bf8:	4a04      	ldr	r2, [pc, #16]	; (d6c0c <_ZN8MCP79410C1ER7TwoWire+0x1c>)
   d6bfa:	6082      	str	r2, [r0, #8]
MCP79410SRAM::MCP79410SRAM(MCP79410 *parent) : MCP79410MemoryBase(parent) {
   d6bfc:	4a04      	ldr	r2, [pc, #16]	; (d6c10 <_ZN8MCP79410C1ER7TwoWire+0x20>)
   d6bfe:	60c2      	str	r2, [r0, #12]
MCP79410EEPROM::MCP79410EEPROM(MCP79410 *parent) : MCP79410MemoryBase(parent) {
   d6c00:	4a04      	ldr	r2, [pc, #16]	; (d6c14 <_ZN8MCP79410C1ER7TwoWire+0x24>)
MCP79410MemoryBase::MCP79410MemoryBase(MCP79410 *parent) : parent(parent) {
   d6c02:	6180      	str	r0, [r0, #24]
MCP79410EEPROM::MCP79410EEPROM(MCP79410 *parent) : MCP79410MemoryBase(parent) {
   d6c04:	6142      	str	r2, [r0, #20]
}
   d6c06:	4770      	bx	lr
   d6c08:	000de040 	.word	0x000de040
   d6c0c:	03010000 	.word	0x03010000
   d6c10:	000ddfe8 	.word	0x000ddfe8
   d6c14:	000de01c 	.word	0x000de01c

000d6c18 <_ZNK8MCP7941010deviceReadEhhPhj>:
	return deviceWriteRegisterByte(addr, value);
}



int MCP79410::deviceRead(uint8_t i2cAddr, uint8_t addr, uint8_t *buf, size_t bufLen) const {
   d6c18:	e92d 4ff8 	stmdb	sp!, {r3, r4, r5, r6, r7, r8, r9, sl, fp, lr}
   d6c1c:	4604      	mov	r4, r0
   d6c1e:	460f      	mov	r7, r1
   d6c20:	4690      	mov	r8, r2
   d6c22:	4699      	mov	r9, r3
	// log.trace("deviceRead i2cAddr=%02x addr=%02x bufLen=%u", i2cAddr, addr, bufLen);

	int stat = 0;
	size_t offset = 0;
   d6c24:	2600      	movs	r6, #0

	while(offset < bufLen) {
   d6c26:	9b0a      	ldr	r3, [sp, #40]	; 0x28
   d6c28:	429e      	cmp	r6, r3
   d6c2a:	d231      	bcs.n	d6c90 <_ZNK8MCP7941010deviceReadEhhPhj+0x78>
		wire.beginTransmission(i2cAddr);
   d6c2c:	6860      	ldr	r0, [r4, #4]
   d6c2e:	4639      	mov	r1, r7
   d6c30:	f002 fb63 	bl	d92fa <_ZN7TwoWire17beginTransmissionEh>
		wire.write(addr + offset);
   d6c34:	eb08 0106 	add.w	r1, r8, r6
   d6c38:	6860      	ldr	r0, [r4, #4]
   d6c3a:	f7ff fd5f 	bl	d66fc <_ZN7TwoWire5writeEj>
		stat = wire.endTransmission(false);
   d6c3e:	6860      	ldr	r0, [r4, #4]
   d6c40:	2100      	movs	r1, #0
   d6c42:	f002 fb61 	bl	d9308 <_ZN7TwoWire15endTransmissionEh>
		if (stat == 0) {
   d6c46:	4605      	mov	r5, r0
   d6c48:	b9d0      	cbnz	r0, d6c80 <_ZNK8MCP7941010deviceReadEhhPhj+0x68>
			// Maximum read is 32 because of the limitation of the Wire implementation
			size_t count = bufLen - offset;
   d6c4a:	9b0a      	ldr	r3, [sp, #40]	; 0x28
				count = 32;
			}

			// log.trace("deviceRead addr=%u count=%u", addr + offset, count);

			count = wire.requestFrom(i2cAddr, count, (uint8_t) true);
   d6c4c:	6860      	ldr	r0, [r4, #4]
			size_t count = bufLen - offset;
   d6c4e:	1b9a      	subs	r2, r3, r6
			count = wire.requestFrom(i2cAddr, count, (uint8_t) true);
   d6c50:	2a20      	cmp	r2, #32
   d6c52:	f04f 0301 	mov.w	r3, #1
   d6c56:	bf28      	it	cs
   d6c58:	2220      	movcs	r2, #32
   d6c5a:	4639      	mov	r1, r7
   d6c5c:	f002 fb3b 	bl	d92d6 <_ZN7TwoWire11requestFromEhjh>
   d6c60:	eb09 0b06 	add.w	fp, r9, r6
   d6c64:	4605      	mov	r5, r0
			for(size_t ii = 0; ii < count; ii++) {
   d6c66:	eb0b 0a00 	add.w	sl, fp, r0
   d6c6a:	45da      	cmp	sl, fp
   d6c6c:	d006      	beq.n	d6c7c <_ZNK8MCP7941010deviceReadEhhPhj+0x64>
				buf[ii + offset] = wire.read();
   d6c6e:	6860      	ldr	r0, [r4, #4]
   d6c70:	6803      	ldr	r3, [r0, #0]
   d6c72:	695b      	ldr	r3, [r3, #20]
   d6c74:	4798      	blx	r3
   d6c76:	f80b 0b01 	strb.w	r0, [fp], #1
			for(size_t ii = 0; ii < count; ii++) {
   d6c7a:	e7f6      	b.n	d6c6a <_ZNK8MCP7941010deviceReadEhhPhj+0x52>
			}
			offset += count;
   d6c7c:	442e      	add	r6, r5
	while(offset < bufLen) {
   d6c7e:	e7d2      	b.n	d6c26 <_ZNK8MCP7941010deviceReadEhhPhj+0xe>
		}
		else {
			log.info("deviceRead failed stat=%d", stat);
   d6c80:	4602      	mov	r2, r0
   d6c82:	4904      	ldr	r1, [pc, #16]	; (d6c94 <_ZNK8MCP7941010deviceReadEhhPhj+0x7c>)
   d6c84:	4804      	ldr	r0, [pc, #16]	; (d6c98 <_ZNK8MCP7941010deviceReadEhhPhj+0x80>)
   d6c86:	f7fd fbc7 	bl	d4418 <_ZNK5spark6Logger4infoEPKcz>
			break;
		}
	}
	return stat;
}
   d6c8a:	4628      	mov	r0, r5
   d6c8c:	e8bd 8ff8 	ldmia.w	sp!, {r3, r4, r5, r6, r7, r8, r9, sl, fp, pc}
   d6c90:	2500      	movs	r5, #0
	return stat;
   d6c92:	e7fa      	b.n	d6c8a <_ZNK8MCP7941010deviceReadEhhPhj+0x72>
   d6c94:	000ddf40 	.word	0x000ddf40
   d6c98:	2003e5c8 	.word	0x2003e5c8

000d6c9c <_ZN12MCP79410SRAM8readDataEjPhj>:
bool MCP79410SRAM::readData(size_t addr, uint8_t *data, size_t dataLen) {
   d6c9c:	e92d 41f3 	stmdb	sp!, {r0, r1, r4, r5, r6, r7, r8, lr}
	if ((addr + dataLen) > length()) {
   d6ca0:	eb01 0803 	add.w	r8, r1, r3
bool MCP79410SRAM::readData(size_t addr, uint8_t *data, size_t dataLen) {
   d6ca4:	461e      	mov	r6, r3
	if ((addr + dataLen) > length()) {
   d6ca6:	6803      	ldr	r3, [r0, #0]
   d6ca8:	689b      	ldr	r3, [r3, #8]
bool MCP79410SRAM::readData(size_t addr, uint8_t *data, size_t dataLen) {
   d6caa:	4605      	mov	r5, r0
   d6cac:	460c      	mov	r4, r1
   d6cae:	4617      	mov	r7, r2
	if ((addr + dataLen) > length()) {
   d6cb0:	4798      	blx	r3
   d6cb2:	4580      	cmp	r8, r0
   d6cb4:	d80d      	bhi.n	d6cd2 <_ZN12MCP79410SRAM8readDataEjPhj+0x36>
	int stat = parent->deviceRead(MCP79410::REG_I2C_ADDR, MCP79410::REG_SRAM + addr, data, dataLen);
   d6cb6:	3420      	adds	r4, #32
   d6cb8:	6868      	ldr	r0, [r5, #4]
   d6cba:	9600      	str	r6, [sp, #0]
   d6cbc:	463b      	mov	r3, r7
   d6cbe:	b2e2      	uxtb	r2, r4
   d6cc0:	216f      	movs	r1, #111	; 0x6f
   d6cc2:	f7ff ffa9 	bl	d6c18 <_ZNK8MCP7941010deviceReadEhhPhj>
	return (stat == 0);
   d6cc6:	fab0 f080 	clz	r0, r0
   d6cca:	0940      	lsrs	r0, r0, #5
}
   d6ccc:	b002      	add	sp, #8
   d6cce:	e8bd 81f0 	ldmia.w	sp!, {r4, r5, r6, r7, r8, pc}
		return false;
   d6cd2:	2000      	movs	r0, #0
   d6cd4:	e7fa      	b.n	d6ccc <_ZN12MCP79410SRAM8readDataEjPhj+0x30>

000d6cd6 <_ZN14MCP79410EEPROM8readDataEjPhj>:
bool MCP79410EEPROM::readData(size_t addr, uint8_t *data, size_t dataLen) {
   d6cd6:	e92d 41f3 	stmdb	sp!, {r0, r1, r4, r5, r6, r7, r8, lr}
	if ((addr + dataLen) > length()) {
   d6cda:	eb01 0803 	add.w	r8, r1, r3
bool MCP79410EEPROM::readData(size_t addr, uint8_t *data, size_t dataLen) {
   d6cde:	461e      	mov	r6, r3
	if ((addr + dataLen) > length()) {
   d6ce0:	6803      	ldr	r3, [r0, #0]
   d6ce2:	689b      	ldr	r3, [r3, #8]
bool MCP79410EEPROM::readData(size_t addr, uint8_t *data, size_t dataLen) {
   d6ce4:	4604      	mov	r4, r0
   d6ce6:	460d      	mov	r5, r1
   d6ce8:	4617      	mov	r7, r2
	if ((addr + dataLen) > length()) {
   d6cea:	4798      	blx	r3
   d6cec:	4580      	cmp	r8, r0
   d6cee:	d80c      	bhi.n	d6d0a <_ZN14MCP79410EEPROM8readDataEjPhj+0x34>
	int stat = parent->deviceRead(MCP79410::EEPROM_I2C_ADDR, addr, data, dataLen);
   d6cf0:	6860      	ldr	r0, [r4, #4]
   d6cf2:	9600      	str	r6, [sp, #0]
   d6cf4:	463b      	mov	r3, r7
   d6cf6:	b2ea      	uxtb	r2, r5
   d6cf8:	2157      	movs	r1, #87	; 0x57
   d6cfa:	f7ff ff8d 	bl	d6c18 <_ZNK8MCP7941010deviceReadEhhPhj>
	return (stat == 0);
   d6cfe:	fab0 f080 	clz	r0, r0
   d6d02:	0940      	lsrs	r0, r0, #5
}
   d6d04:	b002      	add	sp, #8
   d6d06:	e8bd 81f0 	ldmia.w	sp!, {r4, r5, r6, r7, r8, pc}
		return false;
   d6d0a:	2000      	movs	r0, #0
   d6d0c:	e7fa      	b.n	d6d04 <_ZN14MCP79410EEPROM8readDataEjPhj+0x2e>

000d6d0e <_ZNK8MCP7941014deviceReadTimeEhR12MCP79410Timei.part.0>:
int MCP79410::deviceReadTime(uint8_t addr, MCP79410Time &time, int timeMode) const {
   d6d0e:	b57f      	push	{r0, r1, r2, r3, r4, r5, r6, lr}
		size_t numBytes = (timeMode == TIME_MODE_RTC) ? 7 : 6;
   d6d10:	1e1e      	subs	r6, r3, #0
   d6d12:	bf0c      	ite	eq
   d6d14:	2307      	moveq	r3, #7
   d6d16:	2306      	movne	r3, #6
		stat = deviceRead(REG_I2C_ADDR, addr, buf, numBytes);
   d6d18:	9300      	str	r3, [sp, #0]
int MCP79410::deviceReadTime(uint8_t addr, MCP79410Time &time, int timeMode) const {
   d6d1a:	4614      	mov	r4, r2
		stat = deviceRead(REG_I2C_ADDR, addr, buf, numBytes);
   d6d1c:	ab02      	add	r3, sp, #8
   d6d1e:	460a      	mov	r2, r1
   d6d20:	216f      	movs	r1, #111	; 0x6f
   d6d22:	f7ff ff79 	bl	d6c18 <_ZNK8MCP7941010deviceReadEhhPhj>
		if (stat == 0) {
   d6d26:	4605      	mov	r5, r0
   d6d28:	b9a8      	cbnz	r0, d6d56 <_ZNK8MCP7941014deviceReadTimeEhR12MCP79410Timei.part.0+0x48>
			time.rawSecond = buf[0];
   d6d2a:	f89d 3008 	ldrb.w	r3, [sp, #8]
   d6d2e:	7423      	strb	r3, [r4, #16]
			time.rawMinute = buf[1];
   d6d30:	f89d 3009 	ldrb.w	r3, [sp, #9]
   d6d34:	73e3      	strb	r3, [r4, #15]
			time.rawHour = buf[2];
   d6d36:	f89d 300a 	ldrb.w	r3, [sp, #10]
   d6d3a:	73a3      	strb	r3, [r4, #14]
			time.rawDayOfWeek = buf[3];
   d6d3c:	f89d 300b 	ldrb.w	r3, [sp, #11]
   d6d40:	7363      	strb	r3, [r4, #13]
			time.rawDayOfMonth = buf[4];
   d6d42:	f89d 300c 	ldrb.w	r3, [sp, #12]
   d6d46:	7323      	strb	r3, [r4, #12]
			time.rawMonth = buf[5];
   d6d48:	f89d 300d 	ldrb.w	r3, [sp, #13]
   d6d4c:	72e3      	strb	r3, [r4, #11]
			if (timeMode == TIME_MODE_RTC) {
   d6d4e:	b92e      	cbnz	r6, d6d5c <_ZNK8MCP7941014deviceReadTimeEhR12MCP79410Timei.part.0+0x4e>
				time.rawYear = buf[6];
   d6d50:	f89d 300e 	ldrb.w	r3, [sp, #14]
   d6d54:	72a3      	strb	r3, [r4, #10]
}
   d6d56:	4628      	mov	r0, r5
   d6d58:	b004      	add	sp, #16
   d6d5a:	bd70      	pop	{r4, r5, r6, pc}
				time.rawYear = MCP79410Time::intToBcd(Time.year());
   d6d5c:	f003 faba 	bl	da2d4 <_ZN9TimeClass4yearEv>
   d6d60:	f7ff fecc 	bl	d6afc <_ZN12MCP79410Time8intToBcdEi>
   d6d64:	72a0      	strb	r0, [r4, #10]
	return stat;
   d6d66:	e7f6      	b.n	d6d56 <_ZNK8MCP7941014deviceReadTimeEhR12MCP79410Timei.part.0+0x48>

000d6d68 <_ZNK8MCP7941022deviceReadRegisterByteEh>:
uint8_t MCP79410::deviceReadRegisterByte(uint8_t addr) const {
   d6d68:	b51f      	push	{r0, r1, r2, r3, r4, lr}
	if (deviceRead(REG_I2C_ADDR, addr, buf, 1) == 0) {
   d6d6a:	2301      	movs	r3, #1
uint8_t MCP79410::deviceReadRegisterByte(uint8_t addr) const {
   d6d6c:	460a      	mov	r2, r1
	if (deviceRead(REG_I2C_ADDR, addr, buf, 1) == 0) {
   d6d6e:	9300      	str	r3, [sp, #0]
   d6d70:	216f      	movs	r1, #111	; 0x6f
   d6d72:	ab03      	add	r3, sp, #12
   d6d74:	f7ff ff50 	bl	d6c18 <_ZNK8MCP7941010deviceReadEhhPhj>
   d6d78:	b920      	cbnz	r0, d6d84 <_ZNK8MCP7941022deviceReadRegisterByteEh+0x1c>
		return buf[0];
   d6d7a:	f89d 000c 	ldrb.w	r0, [sp, #12]
}
   d6d7e:	b005      	add	sp, #20
   d6d80:	f85d fb04 	ldr.w	pc, [sp], #4
		return 0;
   d6d84:	2000      	movs	r0, #0
   d6d86:	e7fa      	b.n	d6d7e <_ZNK8MCP7941022deviceReadRegisterByteEh+0x16>

000d6d88 <_ZNK8MCP7941020getOscillatorRunningEv>:
bool MCP79410::getOscillatorRunning() const {
   d6d88:	b508      	push	{r3, lr}
	return (deviceReadRegisterByte(REG_RTCWKDAY) & REG_RTCWKDAY_OSCRUN) != 0;
   d6d8a:	2103      	movs	r1, #3
   d6d8c:	f7ff ffec 	bl	d6d68 <_ZNK8MCP7941022deviceReadRegisterByteEh>
}
   d6d90:	f3c0 1040 	ubfx	r0, r0, #5, #1
   d6d94:	bd08      	pop	{r3, pc}

000d6d96 <_ZNK8MCP7941010getRTCTimeER12MCP79410Time>:
bool MCP79410::getRTCTime(MCP79410Time &time) const {
   d6d96:	b538      	push	{r3, r4, r5, lr}
   d6d98:	2300      	movs	r3, #0
   d6d9a:	460c      	mov	r4, r1
   d6d9c:	460a      	mov	r2, r1
   d6d9e:	4619      	mov	r1, r3
   d6da0:	4605      	mov	r5, r0
	if (timeMode == TIME_MODE_RTC || timeMode == TIME_MODE_ALARM) {
   d6da2:	f7ff ffb4 	bl	d6d0e <_ZNK8MCP7941014deviceReadTimeEhR12MCP79410Timei.part.0>
	if (stat == 0) {
   d6da6:	b930      	cbnz	r0, d6db6 <_ZNK8MCP7941010getRTCTimeER12MCP79410Time+0x20>
		if (time.rawYear > 0 && getOscillatorRunning()) {
   d6da8:	7aa3      	ldrb	r3, [r4, #10]
   d6daa:	b123      	cbz	r3, d6db6 <_ZNK8MCP7941010getRTCTimeER12MCP79410Time+0x20>
   d6dac:	4628      	mov	r0, r5
}
   d6dae:	e8bd 4038 	ldmia.w	sp!, {r3, r4, r5, lr}
		if (time.rawYear > 0 && getOscillatorRunning()) {
   d6db2:	f7ff bfe9 	b.w	d6d88 <_ZNK8MCP7941020getOscillatorRunningEv>
}
   d6db6:	2000      	movs	r0, #0
   d6db8:	bd38      	pop	{r3, r4, r5, pc}

000d6dba <_ZNK8MCP7941010getRTCTimeEv>:
time_t MCP79410::getRTCTime() const {
   d6dba:	b57f      	push	{r0, r1, r2, r3, r4, r5, r6, lr}
   d6dbc:	4602      	mov	r2, r0
	MCP79410Time time;
   d6dbe:	a801      	add	r0, sp, #4
   d6dc0:	f7ff fe28 	bl	d6a14 <_ZN12MCP79410TimeC1Ev>
	bool bResult = getRTCTime(time);
   d6dc4:	a901      	add	r1, sp, #4
   d6dc6:	4610      	mov	r0, r2
   d6dc8:	f7ff ffe5 	bl	d6d96 <_ZNK8MCP7941010getRTCTimeER12MCP79410Time>
	if (bResult) {
   d6dcc:	b128      	cbz	r0, d6dda <_ZNK8MCP7941010getRTCTimeEv+0x20>
		return time.toUnixTime();
   d6dce:	a801      	add	r0, sp, #4
   d6dd0:	f7ff fe6c 	bl	d6aac <_ZNK12MCP79410Time10toUnixTimeEv>
}
   d6dd4:	b007      	add	sp, #28
   d6dd6:	f85d fb04 	ldr.w	pc, [sp], #4
		return 0;
   d6dda:	2000      	movs	r0, #0
   d6ddc:	4601      	mov	r1, r0
   d6dde:	e7f9      	b.n	d6dd4 <_ZNK8MCP7941010getRTCTimeEv+0x1a>

000d6de0 <_ZN8MCP794105setupEv>:
void MCP79410::setup() {
   d6de0:	b5d0      	push	{r4, r6, r7, lr}
   d6de2:	4604      	mov	r4, r0
   d6de4:	b086      	sub	sp, #24
	wire.begin();
   d6de6:	6840      	ldr	r0, [r0, #4]
   d6de8:	f002 fa58 	bl	d929c <_ZN7TwoWire5beginEv>
	if (!Time.isValid()) {
   d6dec:	f003 fa38 	bl	da260 <_ZN9TimeClass7isValidEv>
   d6df0:	b9e8      	cbnz	r0, d6e2e <_ZN8MCP794105setupEv+0x4e>
		if ((timeSyncMode & TIME_SYNC_RTC_TO_TIME) != 0) {
   d6df2:	7ae3      	ldrb	r3, [r4, #11]
   d6df4:	079b      	lsls	r3, r3, #30
   d6df6:	d51a      	bpl.n	d6e2e <_ZN8MCP794105setupEv+0x4e>
			time_t rtcTime = getRTCTime();
   d6df8:	4620      	mov	r0, r4
   d6dfa:	f7ff ffde 	bl	d6dba <_ZNK8MCP7941010getRTCTimeEv>
   d6dfe:	4606      	mov	r6, r0
   d6e00:	460f      	mov	r7, r1
			if (rtcTime != 0) {
   d6e02:	ea56 0307 	orrs.w	r3, r6, r7
   d6e06:	d012      	beq.n	d6e2e <_ZN8MCP794105setupEv+0x4e>
				Time.setTime(rtcTime);
   d6e08:	f003 f931 	bl	da06e <_ZN9TimeClass7setTimeEx>
				log.info("set Time from RTC %s", Time.format(rtcTime, TIME_FORMAT_DEFAULT).c_str());
   d6e0c:	4b0a      	ldr	r3, [pc, #40]	; (d6e38 <_ZN8MCP794105setupEv+0x58>)
   d6e0e:	490b      	ldr	r1, [pc, #44]	; (d6e3c <_ZN8MCP794105setupEv+0x5c>)
   d6e10:	681b      	ldr	r3, [r3, #0]
   d6e12:	9300      	str	r3, [sp, #0]
   d6e14:	4632      	mov	r2, r6
   d6e16:	463b      	mov	r3, r7
   d6e18:	a802      	add	r0, sp, #8
   d6e1a:	f003 f9df 	bl	da1dc <_ZN9TimeClass6formatExPKc>
   d6e1e:	4808      	ldr	r0, [pc, #32]	; (d6e40 <_ZN8MCP794105setupEv+0x60>)
   d6e20:	9a02      	ldr	r2, [sp, #8]
   d6e22:	4908      	ldr	r1, [pc, #32]	; (d6e44 <_ZN8MCP794105setupEv+0x64>)
   d6e24:	f7fd faf8 	bl	d4418 <_ZNK5spark6Logger4infoEPKcz>
   d6e28:	a802      	add	r0, sp, #8
   d6e2a:	f002 ff95 	bl	d9d58 <_ZN6StringD1Ev>
	setupDone = true;
   d6e2e:	2301      	movs	r3, #1
   d6e30:	7223      	strb	r3, [r4, #8]
}
   d6e32:	b006      	add	sp, #24
   d6e34:	bdd0      	pop	{r4, r6, r7, pc}
   d6e36:	bf00      	nop
   d6e38:	2003dd00 	.word	0x2003dd00
   d6e3c:	2003e648 	.word	0x2003e648
   d6e40:	2003e5c8 	.word	0x2003e5c8
   d6e44:	000ddf5a 	.word	0x000ddf5a

000d6e48 <_ZN8MCP7941011deviceWriteEhhPKhj>:

int MCP79410::deviceWrite(uint8_t i2cAddr, uint8_t addr, const uint8_t *buf, size_t bufLen) {
   d6e48:	e92d 4ff8 	stmdb	sp!, {r3, r4, r5, r6, r7, r8, r9, sl, fp, lr}
   d6e4c:	4606      	mov	r6, r0
   d6e4e:	4688      	mov	r8, r1
   d6e50:	4691      	mov	r9, r2
   d6e52:	469a      	mov	sl, r3
	// log.trace("deviceWrite i2cAddr=%02x addr=%02x bufLen=%u", i2cAddr, addr, bufLen);

	int stat = 0;
	size_t offset = 0;
   d6e54:	2500      	movs	r5, #0

	while(offset < bufLen) {
   d6e56:	9b0a      	ldr	r3, [sp, #40]	; 0x28
   d6e58:	429d      	cmp	r5, r3
   d6e5a:	d229      	bcs.n	d6eb0 <_ZN8MCP7941011deviceWriteEhhPKhj+0x68>
		wire.beginTransmission(i2cAddr);
   d6e5c:	6870      	ldr	r0, [r6, #4]
   d6e5e:	4641      	mov	r1, r8
   d6e60:	f002 fa4b 	bl	d92fa <_ZN7TwoWire17beginTransmissionEh>
		wire.write(addr + offset);
   d6e64:	6870      	ldr	r0, [r6, #4]
   d6e66:	eb09 0105 	add.w	r1, r9, r5
   d6e6a:	f7ff fc47 	bl	d66fc <_ZN7TwoWire5writeEj>

		// Maximum write is 31, not 32, because of the address byte
		size_t count = bufLen - offset;
   d6e6e:	9b0a      	ldr	r3, [sp, #40]	; 0x28
   d6e70:	1b5f      	subs	r7, r3, r5
		if (count > 31) {
   d6e72:	2f1f      	cmp	r7, #31
   d6e74:	bf28      	it	cs
   d6e76:	271f      	movcs	r7, #31
			count = 31;
		}

		// log.trace("deviceWrite addr=%u count=%u", addr + offset, count);

		for(size_t ii = 0; ii < count; ii++) {
   d6e78:	eb0a 0405 	add.w	r4, sl, r5
   d6e7c:	eb07 0b04 	add.w	fp, r7, r4
			wire.write(buf[ii + offset]);
   d6e80:	6870      	ldr	r0, [r6, #4]
   d6e82:	f814 1b01 	ldrb.w	r1, [r4], #1
   d6e86:	6802      	ldr	r2, [r0, #0]
   d6e88:	6892      	ldr	r2, [r2, #8]
   d6e8a:	4790      	blx	r2
		for(size_t ii = 0; ii < count; ii++) {
   d6e8c:	45a3      	cmp	fp, r4
   d6e8e:	d1f7      	bne.n	d6e80 <_ZN8MCP7941011deviceWriteEhhPKhj+0x38>
		}

		stat = wire.endTransmission(true);
   d6e90:	6870      	ldr	r0, [r6, #4]
   d6e92:	2101      	movs	r1, #1
   d6e94:	f002 fa38 	bl	d9308 <_ZN7TwoWire15endTransmissionEh>
		if (stat != 0) {
   d6e98:	4604      	mov	r4, r0
   d6e9a:	b138      	cbz	r0, d6eac <_ZN8MCP7941011deviceWriteEhhPKhj+0x64>
			log.info("deviceWrite failed stat=%d", stat);
   d6e9c:	4602      	mov	r2, r0
   d6e9e:	4905      	ldr	r1, [pc, #20]	; (d6eb4 <_ZN8MCP7941011deviceWriteEhhPKhj+0x6c>)
   d6ea0:	4805      	ldr	r0, [pc, #20]	; (d6eb8 <_ZN8MCP7941011deviceWriteEhhPKhj+0x70>)
   d6ea2:	f7fd fab9 	bl	d4418 <_ZNK5spark6Logger4infoEPKcz>

		offset += count;
	}

	return stat;
}
   d6ea6:	4620      	mov	r0, r4
   d6ea8:	e8bd 8ff8 	ldmia.w	sp!, {r3, r4, r5, r6, r7, r8, r9, sl, fp, pc}
		offset += count;
   d6eac:	443d      	add	r5, r7
	while(offset < bufLen) {
   d6eae:	e7d2      	b.n	d6e56 <_ZN8MCP7941011deviceWriteEhhPKhj+0xe>
   d6eb0:	2400      	movs	r4, #0
	return stat;
   d6eb2:	e7f8      	b.n	d6ea6 <_ZN8MCP7941011deviceWriteEhhPKhj+0x5e>
   d6eb4:	000ddf6f 	.word	0x000ddf6f
   d6eb8:	2003e5c8 	.word	0x2003e5c8

000d6ebc <_ZN12MCP79410SRAM9writeDataEjPKhj>:
bool MCP79410SRAM::writeData(size_t addr, const uint8_t *data, size_t dataLen) {
   d6ebc:	e92d 41f3 	stmdb	sp!, {r0, r1, r4, r5, r6, r7, r8, lr}
	if ((addr + dataLen) > length()) {
   d6ec0:	eb01 0803 	add.w	r8, r1, r3
bool MCP79410SRAM::writeData(size_t addr, const uint8_t *data, size_t dataLen) {
   d6ec4:	461e      	mov	r6, r3
	if ((addr + dataLen) > length()) {
   d6ec6:	6803      	ldr	r3, [r0, #0]
   d6ec8:	689b      	ldr	r3, [r3, #8]
bool MCP79410SRAM::writeData(size_t addr, const uint8_t *data, size_t dataLen) {
   d6eca:	4605      	mov	r5, r0
   d6ecc:	460c      	mov	r4, r1
   d6ece:	4617      	mov	r7, r2
	if ((addr + dataLen) > length()) {
   d6ed0:	4798      	blx	r3
   d6ed2:	4580      	cmp	r8, r0
   d6ed4:	d80d      	bhi.n	d6ef2 <_ZN12MCP79410SRAM9writeDataEjPKhj+0x36>
	int stat = parent->deviceWrite(MCP79410::REG_I2C_ADDR, MCP79410::REG_SRAM + addr, data, dataLen);
   d6ed6:	3420      	adds	r4, #32
   d6ed8:	6868      	ldr	r0, [r5, #4]
   d6eda:	9600      	str	r6, [sp, #0]
   d6edc:	463b      	mov	r3, r7
   d6ede:	b2e2      	uxtb	r2, r4
   d6ee0:	216f      	movs	r1, #111	; 0x6f
   d6ee2:	f7ff ffb1 	bl	d6e48 <_ZN8MCP7941011deviceWriteEhhPKhj>
	return (stat == 0);
   d6ee6:	fab0 f080 	clz	r0, r0
   d6eea:	0940      	lsrs	r0, r0, #5
}
   d6eec:	b002      	add	sp, #8
   d6eee:	e8bd 81f0 	ldmia.w	sp!, {r4, r5, r6, r7, r8, pc}
		return false;
   d6ef2:	2000      	movs	r0, #0
   d6ef4:	e7fa      	b.n	d6eec <_ZN12MCP79410SRAM9writeDataEjPKhj+0x30>

000d6ef6 <_ZN8MCP7941018deviceWriteRTCTimeEhRK12MCP79410Time>:
int MCP79410::deviceWriteRTCTime(uint8_t addr, const MCP79410Time &time) {
   d6ef6:	b51f      	push	{r0, r1, r2, r3, r4, lr}
	buf[0] = time.rawSecond;
   d6ef8:	7c13      	ldrb	r3, [r2, #16]
   d6efa:	f88d 3008 	strb.w	r3, [sp, #8]
	buf[1] = time.rawMinute;
   d6efe:	7bd3      	ldrb	r3, [r2, #15]
   d6f00:	f88d 3009 	strb.w	r3, [sp, #9]
	buf[2] = time.rawHour;
   d6f04:	7b93      	ldrb	r3, [r2, #14]
   d6f06:	f88d 300a 	strb.w	r3, [sp, #10]
	buf[3] = time.rawDayOfWeek;
   d6f0a:	7b53      	ldrb	r3, [r2, #13]
   d6f0c:	f88d 300b 	strb.w	r3, [sp, #11]
	buf[4] = time.rawDayOfMonth;
   d6f10:	7b13      	ldrb	r3, [r2, #12]
   d6f12:	f88d 300c 	strb.w	r3, [sp, #12]
	buf[5] = time.rawMonth;
   d6f16:	7ad3      	ldrb	r3, [r2, #11]
   d6f18:	f88d 300d 	strb.w	r3, [sp, #13]
	buf[6] = time.rawYear;
   d6f1c:	7a93      	ldrb	r3, [r2, #10]
   d6f1e:	f88d 300e 	strb.w	r3, [sp, #14]
	return deviceWrite(REG_I2C_ADDR, addr, buf, sizeof(buf));
   d6f22:	2307      	movs	r3, #7
   d6f24:	9300      	str	r3, [sp, #0]
   d6f26:	460a      	mov	r2, r1
   d6f28:	ab02      	add	r3, sp, #8
   d6f2a:	216f      	movs	r1, #111	; 0x6f
   d6f2c:	f7ff ff8c 	bl	d6e48 <_ZN8MCP7941011deviceWriteEhhPKhj>
}
   d6f30:	b005      	add	sp, #20
   d6f32:	f85d fb04 	ldr.w	pc, [sp], #4

000d6f36 <_ZN8MCP7941010setRTCTimeEx>:
bool MCP79410::setRTCTime(time_t unixTime) {
   d6f36:	b510      	push	{r4, lr}
   d6f38:	b088      	sub	sp, #32
   d6f3a:	4604      	mov	r4, r0
	MCP79410Time time;
   d6f3c:	a803      	add	r0, sp, #12
bool MCP79410::setRTCTime(time_t unixTime) {
   d6f3e:	9301      	str	r3, [sp, #4]
	MCP79410Time time;
   d6f40:	f7ff fd68 	bl	d6a14 <_ZN12MCP79410TimeC1Ev>
	time.fromUnixTime(unixTime);
   d6f44:	9b01      	ldr	r3, [sp, #4]
   d6f46:	a803      	add	r0, sp, #12
   d6f48:	f7ff fe27 	bl	d6b9a <_ZN12MCP79410Time12fromUnixTimeEx>
	time.rawSecond |= REG_DATE_RTCSEC_ST;
   d6f4c:	f89d 301c 	ldrb.w	r3, [sp, #28]
	if (batteryEnable) {
   d6f50:	7aa2      	ldrb	r2, [r4, #10]
	time.rawSecond |= REG_DATE_RTCSEC_ST;
   d6f52:	f063 037f 	orn	r3, r3, #127	; 0x7f
   d6f56:	f88d 301c 	strb.w	r3, [sp, #28]
	if (batteryEnable) {
   d6f5a:	f89d 3019 	ldrb.w	r3, [sp, #25]
   d6f5e:	b16a      	cbz	r2, d6f7c <_ZN8MCP7941010setRTCTimeEx+0x46>
		time.rawDayOfWeek |= REG_RTCWKDAY_VBATEN;
   d6f60:	f043 0308 	orr.w	r3, r3, #8
	return deviceWriteRTCTime(REG_DATE_TIME, time) == 0;
   d6f64:	aa03      	add	r2, sp, #12
   d6f66:	2100      	movs	r1, #0
   d6f68:	4620      	mov	r0, r4
   d6f6a:	f88d 3019 	strb.w	r3, [sp, #25]
   d6f6e:	f7ff ffc2 	bl	d6ef6 <_ZN8MCP7941018deviceWriteRTCTimeEhRK12MCP79410Time>
}
   d6f72:	fab0 f080 	clz	r0, r0
   d6f76:	0940      	lsrs	r0, r0, #5
   d6f78:	b008      	add	sp, #32
   d6f7a:	bd10      	pop	{r4, pc}
		time.rawDayOfWeek &= ~REG_RTCWKDAY_VBATEN;
   d6f7c:	f003 03f7 	and.w	r3, r3, #247	; 0xf7
   d6f80:	e7f0      	b.n	d6f64 <_ZN8MCP7941010setRTCTimeEx+0x2e>
	...

000d6f84 <_ZN8MCP7941015setRTCFromCloudEv>:
bool MCP79410::setRTCFromCloud() {
   d6f84:	b5f0      	push	{r4, r5, r6, r7, lr}
   d6f86:	b087      	sub	sp, #28
   d6f88:	4605      	mov	r5, r0
	if (Time.isValid()) {
   d6f8a:	f003 f969 	bl	da260 <_ZN9TimeClass7isValidEv>
   d6f8e:	4604      	mov	r4, r0
   d6f90:	b1e8      	cbz	r0, d6fce <_ZN8MCP7941015setRTCFromCloudEv+0x4a>
		time_t now = Time.now();
   d6f92:	f003 f982 	bl	da29a <_ZN9TimeClass3nowEv>
   d6f96:	17c7      	asrs	r7, r0, #31
		bResult = setRTCTime(now);
   d6f98:	4602      	mov	r2, r0
		time_t now = Time.now();
   d6f9a:	4606      	mov	r6, r0
		bResult = setRTCTime(now);
   d6f9c:	463b      	mov	r3, r7
   d6f9e:	4628      	mov	r0, r5
   d6fa0:	f7ff ffc9 	bl	d6f36 <_ZN8MCP7941010setRTCTimeEx>
		log.info("set RTC from cloud %s", Time.format(now, TIME_FORMAT_DEFAULT).c_str());
   d6fa4:	4b0c      	ldr	r3, [pc, #48]	; (d6fd8 <_ZN8MCP7941015setRTCFromCloudEv+0x54>)
   d6fa6:	490d      	ldr	r1, [pc, #52]	; (d6fdc <_ZN8MCP7941015setRTCFromCloudEv+0x58>)
   d6fa8:	681b      	ldr	r3, [r3, #0]
   d6faa:	9300      	str	r3, [sp, #0]
   d6fac:	4632      	mov	r2, r6
   d6fae:	463b      	mov	r3, r7
		bResult = setRTCTime(now);
   d6fb0:	4604      	mov	r4, r0
		log.info("set RTC from cloud %s", Time.format(now, TIME_FORMAT_DEFAULT).c_str());
   d6fb2:	a802      	add	r0, sp, #8
   d6fb4:	f003 f912 	bl	da1dc <_ZN9TimeClass6formatExPKc>
   d6fb8:	4809      	ldr	r0, [pc, #36]	; (d6fe0 <_ZN8MCP7941015setRTCFromCloudEv+0x5c>)
   d6fba:	9a02      	ldr	r2, [sp, #8]
   d6fbc:	4909      	ldr	r1, [pc, #36]	; (d6fe4 <_ZN8MCP7941015setRTCFromCloudEv+0x60>)
   d6fbe:	f7fd fa2b 	bl	d4418 <_ZNK5spark6Logger4infoEPKcz>
   d6fc2:	a802      	add	r0, sp, #8
   d6fc4:	f002 fec8 	bl	d9d58 <_ZN6StringD1Ev>
}
   d6fc8:	4620      	mov	r0, r4
   d6fca:	b007      	add	sp, #28
   d6fcc:	bdf0      	pop	{r4, r5, r6, r7, pc}
		log.info("cloud time not valid");
   d6fce:	4906      	ldr	r1, [pc, #24]	; (d6fe8 <_ZN8MCP7941015setRTCFromCloudEv+0x64>)
   d6fd0:	4803      	ldr	r0, [pc, #12]	; (d6fe0 <_ZN8MCP7941015setRTCFromCloudEv+0x5c>)
   d6fd2:	f7fd fa21 	bl	d4418 <_ZNK5spark6Logger4infoEPKcz>
   d6fd6:	e7f7      	b.n	d6fc8 <_ZN8MCP7941015setRTCFromCloudEv+0x44>
   d6fd8:	2003dd00 	.word	0x2003dd00
   d6fdc:	2003e648 	.word	0x2003e648
   d6fe0:	2003e5c8 	.word	0x2003e5c8
   d6fe4:	000ddf8a 	.word	0x000ddf8a
   d6fe8:	000ddfa0 	.word	0x000ddfa0

000d6fec <_ZN8MCP794104loopEv>:
void MCP79410::loop() {
   d6fec:	b537      	push	{r0, r1, r2, r4, r5, lr}
	if (!timeSet) {
   d6fee:	7a45      	ldrb	r5, [r0, #9]
void MCP79410::loop() {
   d6ff0:	4604      	mov	r4, r0
	if (!timeSet) {
   d6ff2:	b99d      	cbnz	r5, d701c <_ZN8MCP794104loopEv+0x30>
		if (Time.isValid()) {
   d6ff4:	f003 f934 	bl	da260 <_ZN9TimeClass7isValidEv>
   d6ff8:	b180      	cbz	r0, d701c <_ZN8MCP794104loopEv+0x30>
        tm = 0;
   d6ffa:	2200      	movs	r2, #0
   d6ffc:	2300      	movs	r3, #0
        return spark_sync_time_last(nullptr, &tm);
   d6ffe:	4669      	mov	r1, sp
   d7000:	4628      	mov	r0, r5
        tm = 0;
   d7002:	e9cd 2300 	strd	r2, r3, [sp]
        return spark_sync_time_last(nullptr, &tm);
   d7006:	f001 fc93 	bl	d8930 <spark_sync_time_last>
			if (lastSync != 0) {
   d700a:	b138      	cbz	r0, d701c <_ZN8MCP794104loopEv+0x30>
				if ((timeSyncMode & TIME_SYNC_CLOUD_TO_RTC) != 0) {
   d700c:	7ae3      	ldrb	r3, [r4, #11]
   d700e:	07db      	lsls	r3, r3, #31
   d7010:	d502      	bpl.n	d7018 <_ZN8MCP794104loopEv+0x2c>
					setRTCFromCloud();
   d7012:	4620      	mov	r0, r4
   d7014:	f7ff ffb6 	bl	d6f84 <_ZN8MCP7941015setRTCFromCloudEv>
				timeSet = true;
   d7018:	2301      	movs	r3, #1
   d701a:	7263      	strb	r3, [r4, #9]
}
   d701c:	b003      	add	sp, #12
   d701e:	bd30      	pop	{r4, r5, pc}

000d7020 <_ZN8MCP7941023deviceWriteRegisterByteEhh>:
int MCP79410::deviceWriteRegisterByte(uint8_t addr, uint8_t value) {
   d7020:	b51f      	push	{r0, r1, r2, r3, r4, lr}
	return deviceWrite(REG_I2C_ADDR, addr, buf, 1);
   d7022:	2301      	movs	r3, #1
	buf[0] = value;
   d7024:	f88d 200c 	strb.w	r2, [sp, #12]
	return deviceWrite(REG_I2C_ADDR, addr, buf, 1);
   d7028:	9300      	str	r3, [sp, #0]
   d702a:	460a      	mov	r2, r1
   d702c:	ab03      	add	r3, sp, #12
   d702e:	216f      	movs	r1, #111	; 0x6f
   d7030:	f7ff ff0a 	bl	d6e48 <_ZN8MCP7941011deviceWriteEhhPKhj>
}
   d7034:	b005      	add	sp, #20
   d7036:	f85d fb04 	ldr.w	pc, [sp], #4

000d703a <_ZN8MCP7941027deviceWriteRegisterByteMaskEhhh>:
int MCP79410::deviceWriteRegisterByteMask(uint8_t addr, uint8_t andMask, uint8_t orMask) {
   d703a:	b5f8      	push	{r3, r4, r5, r6, r7, lr}
   d703c:	4604      	mov	r4, r0
   d703e:	460d      	mov	r5, r1
   d7040:	4617      	mov	r7, r2
   d7042:	461e      	mov	r6, r3
	uint8_t value = deviceReadRegisterByte(addr);
   d7044:	f7ff fe90 	bl	d6d68 <_ZNK8MCP7941022deviceReadRegisterByteEh>
	value &= andMask;
   d7048:	ea00 0207 	and.w	r2, r0, r7
	return deviceWriteRegisterByte(addr, value);
   d704c:	4332      	orrs	r2, r6
   d704e:	4629      	mov	r1, r5
   d7050:	4620      	mov	r0, r4
}
   d7052:	e8bd 40f8 	ldmia.w	sp!, {r3, r4, r5, r6, r7, lr}
	return deviceWriteRegisterByte(addr, value);
   d7056:	f7ff bfe3 	b.w	d7020 <_ZN8MCP7941023deviceWriteRegisterByteEhh>

000d705a <_ZN8MCP7941010clearAlarmEi>:
	if (alarmNum < 0 || alarmNum > 1) {
   d705a:	2901      	cmp	r1, #1
bool MCP79410::clearAlarm(int alarmNum) {
   d705c:	b508      	push	{r3, lr}
	if (alarmNum < 0 || alarmNum > 1) {
   d705e:	d80c      	bhi.n	d707a <_ZN8MCP7941010clearAlarmEi+0x20>
	 *
	 * @param alarmNum Default is 0 if this parameter is omitted. Otherwise, must be 0 or 1.
	 *
	 * To enable an alarm, use setAlarm(). To disable an alarm, use clearAlarm().
	 */
	uint8_t getAlarmEnableBit(int alarmNum) { return (alarmNum == 0) ? REG_CONTROL_ALM0EN : REG_CONTROL_ALM1EN; };
   d7060:	2900      	cmp	r1, #0
		return deviceWriteRegisterByteMask(addr, ~value, 0);
   d7062:	f04f 0300 	mov.w	r3, #0
   d7066:	bf14      	ite	ne
   d7068:	22df      	movne	r2, #223	; 0xdf
   d706a:	22ef      	moveq	r2, #239	; 0xef
   d706c:	2107      	movs	r1, #7
   d706e:	f7ff ffe4 	bl	d703a <_ZN8MCP7941027deviceWriteRegisterByteMaskEhhh>
	return deviceWriteRegisterFlag(REG_CONTROL, getAlarmEnableBit(alarmNum), false) == 0;
   d7072:	fab0 f080 	clz	r0, r0
   d7076:	0940      	lsrs	r0, r0, #5
}
   d7078:	bd08      	pop	{r3, pc}
		return false;
   d707a:	2000      	movs	r0, #0
   d707c:	e7fc      	b.n	d7078 <_ZN8MCP7941010clearAlarmEi+0x1e>

000d707e <_ZN8MCP7941013waitForEEPROMEv>:
	}

	return stat;
}

void MCP79410::waitForEEPROM() {
   d707e:	b538      	push	{r3, r4, r5, lr}
   d7080:	4604      	mov	r4, r0
   d7082:	2532      	movs	r5, #50	; 0x32
	for(size_t tries = 0; tries < 50; tries++) {
		wire.beginTransmission(EEPROM_I2C_ADDR);
   d7084:	6860      	ldr	r0, [r4, #4]
   d7086:	2157      	movs	r1, #87	; 0x57
   d7088:	f002 f937 	bl	d92fa <_ZN7TwoWire17beginTransmissionEh>
		int stat = wire.endTransmission(true);
   d708c:	6860      	ldr	r0, [r4, #4]
   d708e:	2101      	movs	r1, #1
   d7090:	f002 f93a 	bl	d9308 <_ZN7TwoWire15endTransmissionEh>
		if (stat == 0) {
   d7094:	b108      	cbz	r0, d709a <_ZN8MCP7941013waitForEEPROMEv+0x1c>
	for(size_t tries = 0; tries < 50; tries++) {
   d7096:	3d01      	subs	r5, #1
   d7098:	d1f4      	bne.n	d7084 <_ZN8MCP7941013waitForEEPROMEv+0x6>
			// log.trace("deviceWriteEEPROM got ack after %u tries", tries);
			break;
		}
	}
}
   d709a:	bd38      	pop	{r3, r4, r5, pc}

000d709c <_ZN8MCP7941017deviceWriteEEPROMEhPKhj>:
int MCP79410::deviceWriteEEPROM(uint8_t addr, const uint8_t *buf, size_t bufLen) {
   d709c:	e92d 41f0 	stmdb	sp!, {r4, r5, r6, r7, r8, lr}
   d70a0:	4604      	mov	r4, r0
   d70a2:	460f      	mov	r7, r1
   d70a4:	4616      	mov	r6, r2
   d70a6:	eb02 0803 	add.w	r8, r2, r3
	while(offset < bufLen) {
   d70aa:	45b0      	cmp	r8, r6
   d70ac:	d020      	beq.n	d70f0 <_ZN8MCP7941017deviceWriteEEPROMEhPKhj+0x54>
		wire.beginTransmission(EEPROM_I2C_ADDR);
   d70ae:	6860      	ldr	r0, [r4, #4]
   d70b0:	2157      	movs	r1, #87	; 0x57
   d70b2:	f002 f922 	bl	d92fa <_ZN7TwoWire17beginTransmissionEh>
		wire.write(addr + offset);
   d70b6:	4639      	mov	r1, r7
   d70b8:	6860      	ldr	r0, [r4, #4]
   d70ba:	f7ff fb1f 	bl	d66fc <_ZN7TwoWire5writeEj>
			wire.write(buf[ii + offset]);
   d70be:	6860      	ldr	r0, [r4, #4]
   d70c0:	f816 1b01 	ldrb.w	r1, [r6], #1
   d70c4:	6803      	ldr	r3, [r0, #0]
   d70c6:	689b      	ldr	r3, [r3, #8]
   d70c8:	4798      	blx	r3
		stat = wire.endTransmission(true);
   d70ca:	6860      	ldr	r0, [r4, #4]
   d70cc:	2101      	movs	r1, #1
   d70ce:	f002 f91b 	bl	d9308 <_ZN7TwoWire15endTransmissionEh>
		if (stat != 0) {
   d70d2:	3701      	adds	r7, #1
   d70d4:	4605      	mov	r5, r0
   d70d6:	b138      	cbz	r0, d70e8 <_ZN8MCP7941017deviceWriteEEPROMEhPKhj+0x4c>
			log.info("deviceWriteEEPROM failed stat=%d", stat);
   d70d8:	4602      	mov	r2, r0
   d70da:	4906      	ldr	r1, [pc, #24]	; (d70f4 <_ZN8MCP7941017deviceWriteEEPROMEhPKhj+0x58>)
   d70dc:	4806      	ldr	r0, [pc, #24]	; (d70f8 <_ZN8MCP7941017deviceWriteEEPROMEhPKhj+0x5c>)
   d70de:	f7fd f99b 	bl	d4418 <_ZNK5spark6Logger4infoEPKcz>
}
   d70e2:	4628      	mov	r0, r5
   d70e4:	e8bd 81f0 	ldmia.w	sp!, {r4, r5, r6, r7, r8, pc}
		waitForEEPROM();
   d70e8:	4620      	mov	r0, r4
   d70ea:	f7ff ffc8 	bl	d707e <_ZN8MCP7941013waitForEEPROMEv>
	while(offset < bufLen) {
   d70ee:	e7dc      	b.n	d70aa <_ZN8MCP7941017deviceWriteEEPROMEhPKhj+0xe>
   d70f0:	2500      	movs	r5, #0
	return stat;
   d70f2:	e7f6      	b.n	d70e2 <_ZN8MCP7941017deviceWriteEEPROMEhPKhj+0x46>
   d70f4:	000ddfb5 	.word	0x000ddfb5
   d70f8:	2003e5c8 	.word	0x2003e5c8

000d70fc <_ZN14MCP79410EEPROM9writeDataEjPKhj>:
bool MCP79410EEPROM::writeData(size_t addr, const uint8_t *data, size_t dataLen) {
   d70fc:	b5f7      	push	{r0, r1, r2, r4, r5, r6, r7, lr}
	if ((addr + dataLen) > length()) {
   d70fe:	18cf      	adds	r7, r1, r3
bool MCP79410EEPROM::writeData(size_t addr, const uint8_t *data, size_t dataLen) {
   d7100:	461e      	mov	r6, r3
	if ((addr + dataLen) > length()) {
   d7102:	6803      	ldr	r3, [r0, #0]
bool MCP79410EEPROM::writeData(size_t addr, const uint8_t *data, size_t dataLen) {
   d7104:	9201      	str	r2, [sp, #4]
	if ((addr + dataLen) > length()) {
   d7106:	689b      	ldr	r3, [r3, #8]
bool MCP79410EEPROM::writeData(size_t addr, const uint8_t *data, size_t dataLen) {
   d7108:	4604      	mov	r4, r0
   d710a:	460d      	mov	r5, r1
	if ((addr + dataLen) > length()) {
   d710c:	4798      	blx	r3
   d710e:	4287      	cmp	r7, r0
   d7110:	d80a      	bhi.n	d7128 <_ZN14MCP79410EEPROM9writeDataEjPKhj+0x2c>
	int stat = parent->deviceWriteEEPROM(addr, data, dataLen);
   d7112:	9a01      	ldr	r2, [sp, #4]
   d7114:	6860      	ldr	r0, [r4, #4]
   d7116:	4633      	mov	r3, r6
   d7118:	b2e9      	uxtb	r1, r5
   d711a:	f7ff ffbf 	bl	d709c <_ZN8MCP7941017deviceWriteEEPROMEhPKhj>
	return (stat == 0);
   d711e:	fab0 f080 	clz	r0, r0
   d7122:	0940      	lsrs	r0, r0, #5
}
   d7124:	b003      	add	sp, #12
   d7126:	bdf0      	pop	{r4, r5, r6, r7, pc}
		return false;
   d7128:	2000      	movs	r0, #0
   d712a:	e7fb      	b.n	d7124 <_ZN14MCP79410EEPROM9writeDataEjPKhj+0x28>

000d712c <_GLOBAL__sub_I__ZN18MCP79410MemoryBaseC2EP8MCP79410>:
        name_(name) {
   d712c:	4b01      	ldr	r3, [pc, #4]	; (d7134 <_GLOBAL__sub_I__ZN18MCP79410MemoryBaseC2EP8MCP79410+0x8>)
   d712e:	4a02      	ldr	r2, [pc, #8]	; (d7138 <_GLOBAL__sub_I__ZN18MCP79410MemoryBaseC2EP8MCP79410+0xc>)
   d7130:	601a      	str	r2, [r3, #0]
}
   d7132:	4770      	bx	lr
   d7134:	2003e5c8 	.word	0x2003e5c8
   d7138:	000ddfd6 	.word	0x000ddfd6

000d713c <_ZNSt17_Function_handlerIFvR21PublishQueueAsyncBaseEMS0_FvvEE10_M_managerERSt9_Any_dataRKS6_St18_Manager_operation>:
	switch (__op)
   d713c:	2a01      	cmp	r2, #1
      _M_manager(_Any_data& __dest, const _Any_data& __source,
   d713e:	4603      	mov	r3, r0
	switch (__op)
   d7140:	d102      	bne.n	d7148 <_ZNSt17_Function_handlerIFvR21PublishQueueAsyncBaseEMS0_FvvEE10_M_managerERSt9_Any_dataRKS6_St18_Manager_operation+0xc>
	    __dest._M_access<_Functor*>() =
   d7142:	6001      	str	r1, [r0, #0]
      }
   d7144:	2000      	movs	r0, #0
   d7146:	4770      	bx	lr
	  switch (__op)
   d7148:	2a02      	cmp	r2, #2
	  ::new (__dest._M_access()) _Functor(__source._M_access<_Functor>());
   d714a:	bf04      	itt	eq
   d714c:	e9d1 0100 	ldrdeq	r0, r1, [r1]
   d7150:	e9c3 0100 	strdeq	r0, r1, [r3]
	}
   d7154:	e7f6      	b.n	d7144 <_ZNSt17_Function_handlerIFvR21PublishQueueAsyncBaseEMS0_FvvEE10_M_managerERSt9_Any_dataRKS6_St18_Manager_operation+0x8>

000d7156 <_ZN6Thread3runEPv>:
        return *this;
    }

private:

    static os_thread_return_t run(void* param) {
   d7156:	b510      	push	{r4, lr}
        Data* th = (Data*)param;
        th->started = true;
   d7158:	2301      	movs	r3, #1
   d715a:	7403      	strb	r3, [r0, #16]
        if (th->func) {
   d715c:	6883      	ldr	r3, [r0, #8]
    static os_thread_return_t run(void* param) {
   d715e:	4604      	mov	r4, r0
        if (th->func) {
   d7160:	b143      	cbz	r3, d7174 <_ZN6Thread3runEPv+0x1e>
            (*(th->func))(th->func_param);
   d7162:	68c0      	ldr	r0, [r0, #12]
      return _M_invoker(_M_functor, std::forward<_ArgTypes>(__args)...);
   d7164:	4798      	blx	r3
        } else if (th->wrapper) {
            (*(th->wrapper))();
        }
        th->exited = true;
   d7166:	2301      	movs	r3, #1
   d7168:	7463      	strb	r3, [r4, #17]
        os_thread_exit(nullptr);
   d716a:	2000      	movs	r0, #0
    }
   d716c:	e8bd 4010 	ldmia.w	sp!, {r4, lr}
        os_thread_exit(nullptr);
   d7170:	f001 b980 	b.w	d8474 <os_thread_exit>
      template<typename _Del>
      __uniq_ptr_impl(pointer __p, _Del&& __d)
	: _M_t(__p, std::forward<_Del>(__d)) { }

      pointer&   _M_ptr() { return std::get<0>(_M_t); }
      pointer    _M_ptr() const { return std::get<0>(_M_t); }
   d7174:	6800      	ldr	r0, [r0, #0]
        } else if (th->wrapper) {
   d7176:	2800      	cmp	r0, #0
   d7178:	d0f5      	beq.n	d7166 <_ZN6Thread3runEPv+0x10>
      if (_M_empty())
   d717a:	6883      	ldr	r3, [r0, #8]
   d717c:	b90b      	cbnz	r3, d7182 <_ZN6Thread3runEPv+0x2c>
	__throw_bad_function_call();
   d717e:	f003 fb88 	bl	da892 <_ZSt25__throw_bad_function_callv>
      return _M_invoker(_M_functor, std::forward<_ArgTypes>(__args)...);
   d7182:	68c3      	ldr	r3, [r0, #12]
   d7184:	e7ee      	b.n	d7164 <_ZN6Thread3runEPv+0xe>

000d7186 <_ZNSt17_Function_handlerIFvR21PublishQueueAsyncBaseEMS0_FvvEE9_M_invokeERKSt9_Any_dataS1_>:
      _M_invoke(const _Any_data& __functor, _ArgTypes&&... __args)
   d7186:	b410      	push	{r4}

  template<typename _Res, typename _MemFun, typename _Tp, typename... _Args>
    constexpr _Res
    __invoke_impl(__invoke_memfun_ref, _MemFun&& __f, _Tp&& __t,
		  _Args&&... __args)
    { return (__invfwd<_Tp>(__t).*__f)(std::forward<_Args>(__args)...); }
   d7188:	6842      	ldr	r2, [r0, #4]
   d718a:	4603      	mov	r3, r0
   d718c:	1054      	asrs	r4, r2, #1
   d718e:	eb01 0062 	add.w	r0, r1, r2, asr #1
   d7192:	07d2      	lsls	r2, r2, #31
   d7194:	bf48      	it	mi
   d7196:	590a      	ldrmi	r2, [r1, r4]
   d7198:	681b      	ldr	r3, [r3, #0]
      }
   d719a:	f85d 4b04 	ldr.w	r4, [sp], #4
   d719e:	bf48      	it	mi
   d71a0:	58d3      	ldrmi	r3, [r2, r3]
   d71a2:	4718      	bx	r3

000d71a4 <_ZN21PublishQueueAsyncBase5setupEv>:
PublishQueueAsyncBase::~PublishQueueAsyncBase() {

}

void PublishQueueAsyncBase::setup() {
	haveSetup = true;
   d71a4:	2301      	movs	r3, #1
void PublishQueueAsyncBase::setup() {
   d71a6:	b5f7      	push	{r0, r1, r2, r4, r5, r6, r7, lr}
	haveSetup = true;
   d71a8:	f880 3029 	strb.w	r3, [r0, #41]	; 0x29
void PublishQueueAsyncBase::setup() {
   d71ac:	4606      	mov	r6, r0

	os_mutex_create(&mutex);
   d71ae:	3008      	adds	r0, #8
   d71b0:	f001 f938 	bl	d8424 <os_mutex_create>

	thread = new Thread("PublishQueueAsync", threadFunctionStatic, this, OS_THREAD_PRIORITY_DEFAULT, 2048);
   d71b4:	2004      	movs	r0, #4
   d71b6:	f7fc ff6e 	bl	d4096 <_Znwj>
   d71ba:	4605      	mov	r5, r0
   d71bc:	b398      	cbz	r0, d7226 <_ZN21PublishQueueAsyncBase5setupEv+0x82>
        : d_(new(std::nothrow) Data)
   d71be:	491b      	ldr	r1, [pc, #108]	; (d722c <_ZN21PublishQueueAsyncBase5setupEv+0x88>)
   d71c0:	2014      	movs	r0, #20
   d71c2:	f003 fb62 	bl	da88a <_ZnwjRKSt9nothrow_t>
   d71c6:	b130      	cbz	r0, d71d6 <_ZN21PublishQueueAsyncBase5setupEv+0x32>

  template<std::size_t _Idx, typename _Head>
    struct _Head_base<_Idx, _Head, false>
    {
      constexpr _Head_base()
      : _M_head_impl() { }
   d71c8:	2300      	movs	r3, #0
            exited(false) {
   d71ca:	e9c0 3300 	strd	r3, r3, [r0]
   d71ce:	e9c0 3302 	strd	r3, r3, [r0, #8]
   d71d2:	7403      	strb	r3, [r0, #16]
   d71d4:	7443      	strb	r3, [r0, #17]
      __uniq_ptr_impl(pointer __p) : _M_t() { _M_ptr() = __p; }
   d71d6:	6028      	str	r0, [r5, #0]
        if (!d_) {
   d71d8:	b1a0      	cbz	r0, d7204 <_ZN21PublishQueueAsyncBase5setupEv+0x60>
        d_->func = function;
   d71da:	4b15      	ldr	r3, [pc, #84]	; (d7230 <_ZN21PublishQueueAsyncBase5setupEv+0x8c>)
        if (os_thread_create(&d_->handle, name, priority, &Thread::run, d_.get(), stack_size) != 0) {
   d71dc:	4915      	ldr	r1, [pc, #84]	; (d7234 <_ZN21PublishQueueAsyncBase5setupEv+0x90>)
        d_->func_param = function_param;
   d71de:	e9c0 3602 	strd	r3, r6, [r0, #8]
        if (os_thread_create(&d_->handle, name, priority, &Thread::run, d_.get(), stack_size) != 0) {
   d71e2:	f44f 6300 	mov.w	r3, #2048	; 0x800
   d71e6:	e9cd 0300 	strd	r0, r3, [sp]
   d71ea:	2202      	movs	r2, #2
   d71ec:	4b12      	ldr	r3, [pc, #72]	; (d7238 <_ZN21PublishQueueAsyncBase5setupEv+0x94>)
   d71ee:	3004      	adds	r0, #4
   d71f0:	f001 f8e0 	bl	d83b4 <os_thread_create>
   d71f4:	b930      	cbnz	r0, d7204 <_ZN21PublishQueueAsyncBase5setupEv+0x60>
      pointer    _M_ptr() const { return std::get<0>(_M_t); }
   d71f6:	682b      	ldr	r3, [r5, #0]
        while (!d_->started) {
   d71f8:	7c1b      	ldrb	r3, [r3, #16]
   d71fa:	b9a3      	cbnz	r3, d7226 <_ZN21PublishQueueAsyncBase5setupEv+0x82>
            HAL_Delay_Milliseconds(1);
   d71fc:	2001      	movs	r0, #1
   d71fe:	f001 f959 	bl	d84b4 <HAL_Delay_Milliseconds>
        while (!d_->started) {
   d7202:	e7f8      	b.n	d71f6 <_ZN21PublishQueueAsyncBase5setupEv+0x52>
      _Tp __tmp = _GLIBCXX_MOVE(__a);
   d7204:	682c      	ldr	r4, [r5, #0]
      __a = _GLIBCXX_MOVE(__b);
   d7206:	2300      	movs	r3, #0
   d7208:	602b      	str	r3, [r5, #0]
      {
	static_assert(__is_invocable<deleter_type&, pointer>::value,
		      "unique_ptr's deleter must be invocable with a pointer");
	using std::swap;
	swap(_M_t._M_ptr(), __p);
	if (__p != pointer())
   d720a:	b164      	cbz	r4, d7226 <_ZN21PublishQueueAsyncBase5setupEv+0x82>
	if (__ptr != nullptr)
   d720c:	6827      	ldr	r7, [r4, #0]
   d720e:	b137      	cbz	r7, d721e <_ZN21PublishQueueAsyncBase5setupEv+0x7a>
    class function<_Res(_ArgTypes...)>
   d7210:	4638      	mov	r0, r7
   d7212:	f7fd f87d 	bl	d4310 <_ZNSt14_Function_baseD1Ev>
	delete __ptr;
   d7216:	2110      	movs	r1, #16
   d7218:	4638      	mov	r0, r7
   d721a:	f003 fb34 	bl	da886 <_ZdlPvj>
   d721e:	2114      	movs	r1, #20
   d7220:	4620      	mov	r0, r4
   d7222:	f003 fb30 	bl	da886 <_ZdlPvj>
   d7226:	6075      	str	r5, [r6, #4]
}
   d7228:	b003      	add	sp, #12
   d722a:	bdf0      	pop	{r4, r5, r6, r7, pc}
   d722c:	000de4f0 	.word	0x000de4f0
   d7230:	000d7443 	.word	0x000d7443
   d7234:	000de048 	.word	0x000de048
   d7238:	000d7157 	.word	0x000d7157

000d723c <_ZN21PublishQueueAsyncBaseC1Ev>:
PublishQueueAsyncBase::PublishQueueAsyncBase() {
   d723c:	f247 5130 	movw	r1, #30000	; 0x7530
   d7240:	4a08      	ldr	r2, [pc, #32]	; (d7264 <_ZN21PublishQueueAsyncBaseC1Ev+0x28>)
   d7242:	60c1      	str	r1, [r0, #12]
	{ ::new (__functor._M_access()) _Functor(std::move(__f)); }
   d7244:	4908      	ldr	r1, [pc, #32]	; (d7268 <_ZN21PublishQueueAsyncBaseC1Ev+0x2c>)
   d7246:	6002      	str	r2, [r0, #0]
   d7248:	2200      	movs	r2, #0
   d724a:	e9c0 1204 	strd	r1, r2, [r0, #16]
	    _M_invoker = &_My_handler::_M_invoke;
   d724e:	4907      	ldr	r1, [pc, #28]	; (d726c <_ZN21PublishQueueAsyncBaseC1Ev+0x30>)
   d7250:	61c1      	str	r1, [r0, #28]
	    _M_manager = &_My_handler::_M_manager;
   d7252:	4907      	ldr	r1, [pc, #28]	; (d7270 <_ZN21PublishQueueAsyncBaseC1Ev+0x34>)
   d7254:	6042      	str	r2, [r0, #4]
   d7256:	e9c0 2208 	strd	r2, r2, [r0, #32]
   d725a:	6181      	str	r1, [r0, #24]
   d725c:	8502      	strh	r2, [r0, #40]	; 0x28
   d725e:	f880 202a 	strb.w	r2, [r0, #42]	; 0x2a
}
   d7262:	4770      	bx	lr
   d7264:	000de10c 	.word	0x000de10c
   d7268:	000d75ad 	.word	0x000d75ad
   d726c:	000d7187 	.word	0x000d7187
   d7270:	000d713d 	.word	0x000d713d

000d7274 <_ZN21PublishQueueAsyncBaseD1Ev>:
PublishQueueAsyncBase::~PublishQueueAsyncBase() {
   d7274:	b510      	push	{r4, lr}
   d7276:	4b04      	ldr	r3, [pc, #16]	; (d7288 <_ZN21PublishQueueAsyncBaseD1Ev+0x14>)
   d7278:	4604      	mov	r4, r0
   d727a:	f840 3b10 	str.w	r3, [r0], #16
    class function<_Res(_ArgTypes...)>
   d727e:	f7fd f847 	bl	d4310 <_ZNSt14_Function_baseD1Ev>
}
   d7282:	4620      	mov	r0, r4
   d7284:	bd10      	pop	{r4, pc}
   d7286:	bf00      	nop
   d7288:	000de10c 	.word	0x000de10c

000d728c <_ZN25PublishQueueAsyncRetainedD1Ev>:
		hdr->numEvents = 0;
		nextFree = &retainedBuffer[sizeof(PublishQueueHeader)];
	}
}

PublishQueueAsyncRetained::~PublishQueueAsyncRetained() {
   d728c:	b510      	push	{r4, lr}
   d728e:	4b03      	ldr	r3, [pc, #12]	; (d729c <_ZN25PublishQueueAsyncRetainedD1Ev+0x10>)
   d7290:	6003      	str	r3, [r0, #0]
   d7292:	4604      	mov	r4, r0
   d7294:	f7ff ffee 	bl	d7274 <_ZN21PublishQueueAsyncBaseD1Ev>

}
   d7298:	4620      	mov	r0, r4
   d729a:	bd10      	pop	{r4, pc}
   d729c:	000de134 	.word	0x000de134

000d72a0 <_ZN25PublishQueueAsyncRetainedD0Ev>:
PublishQueueAsyncRetained::~PublishQueueAsyncRetained() {
   d72a0:	b510      	push	{r4, lr}
   d72a2:	4604      	mov	r4, r0
}
   d72a4:	f7ff fff2 	bl	d728c <_ZN25PublishQueueAsyncRetainedD1Ev>
   d72a8:	4620      	mov	r0, r4
   d72aa:	2138      	movs	r1, #56	; 0x38
   d72ac:	f003 faeb 	bl	da886 <_ZdlPvj>
   d72b0:	4620      	mov	r0, r4
   d72b2:	bd10      	pop	{r4, pc}

000d72b4 <_ZNK21PublishQueueAsyncBase9mutexLockEv>:
	os_mutex_lock(mutex);
   d72b4:	6880      	ldr	r0, [r0, #8]
   d72b6:	f001 b8bd 	b.w	d8434 <os_mutex_lock>

000d72ba <_ZNK21PublishQueueAsyncBase11mutexUnlockEv>:
	os_mutex_unlock(mutex);
   d72ba:	6880      	ldr	r0, [r0, #8]
   d72bc:	f001 b8c2 	b.w	d8444 <os_mutex_unlock>

000d72c0 <_ZN11StMutexLockD1Ev>:
	}

	/**
	 * @brief Unlock the mutex on destructor
	 */
	~StMutexLock() {
   d72c0:	b510      	push	{r4, lr}
   d72c2:	4604      	mov	r4, r0
		publishQueue->mutexUnlock();
   d72c4:	6800      	ldr	r0, [r0, #0]
   d72c6:	f7ff fff8 	bl	d72ba <_ZNK21PublishQueueAsyncBase11mutexUnlockEv>
	}
   d72ca:	4620      	mov	r0, r4
   d72cc:	bd10      	pop	{r4, pc}

000d72ce <_ZN25PublishQueueAsyncRetained14getOldestEventEv>:
	// Not reached
	return false;
}


PublishQueueEventData *PublishQueueAsyncRetained::getOldestEvent() {
   d72ce:	b513      	push	{r0, r1, r4, lr}
   d72d0:	4604      	mov	r4, r0
	StMutexLock(const PublishQueueAsyncBase *publishQueue) : publishQueue(publishQueue) {
   d72d2:	9001      	str	r0, [sp, #4]
		publishQueue->mutexLock();
   d72d4:	f7ff ffee 	bl	d72b4 <_ZNK21PublishQueueAsyncBase9mutexLockEv>
	// This entire function holds a mutex lock that's released when returning
	StMutexLock lock(this);
	PublishQueueEventData *eventData = NULL;

	volatile PublishQueueHeader *hdr = reinterpret_cast<PublishQueueHeader *>(retainedBuffer);
   d72d8:	6ae3      	ldr	r3, [r4, #44]	; 0x2c
	if (hdr->numEvents > 0) {
   d72da:	88dc      	ldrh	r4, [r3, #6]
   d72dc:	b2a4      	uxth	r4, r4
   d72de:	b10c      	cbz	r4, d72e4 <_ZN25PublishQueueAsyncRetained14getOldestEventEv+0x16>
		eventData = reinterpret_cast<PublishQueueEventData *>(&retainedBuffer[sizeof(PublishQueueHeader)]);
   d72e0:	f103 0408 	add.w	r4, r3, #8
	StMutexLock lock(this);
   d72e4:	a801      	add	r0, sp, #4
   d72e6:	f7ff ffeb 	bl	d72c0 <_ZN11StMutexLockD1Ev>
	}

	return eventData;
}
   d72ea:	4620      	mov	r0, r4
   d72ec:	b002      	add	sp, #8
   d72ee:	bd10      	pop	{r4, pc}

000d72f0 <_ZN25PublishQueueAsyncRetained11clearEventsEv>:

bool PublishQueueAsyncRetained::clearEvents() {
   d72f0:	b513      	push	{r0, r1, r4, lr}
   d72f2:	4604      	mov	r4, r0
	StMutexLock(const PublishQueueAsyncBase *publishQueue) : publishQueue(publishQueue) {
   d72f4:	9001      	str	r0, [sp, #4]
		publishQueue->mutexLock();
   d72f6:	f7ff ffdd 	bl	d72b4 <_ZNK21PublishQueueAsyncBase9mutexLockEv>
	bool result = false;

	StMutexLock lock(this);

	PublishQueueHeader *hdr = reinterpret_cast<PublishQueueHeader *>(retainedBuffer);
	if (!isSending) {
   d72fa:	f894 3028 	ldrb.w	r3, [r4, #40]	; 0x28
   d72fe:	b943      	cbnz	r3, d7312 <_ZN25PublishQueueAsyncRetained11clearEventsEv+0x22>
	PublishQueueHeader *hdr = reinterpret_cast<PublishQueueHeader *>(retainedBuffer);
   d7300:	6ae2      	ldr	r2, [r4, #44]	; 0x2c
		hdr->numEvents = 0;
		result = true;
   d7302:	2401      	movs	r4, #1
		hdr->numEvents = 0;
   d7304:	80d3      	strh	r3, [r2, #6]
	StMutexLock lock(this);
   d7306:	a801      	add	r0, sp, #4
   d7308:	f7ff ffda 	bl	d72c0 <_ZN11StMutexLockD1Ev>
	}

	return result;
}
   d730c:	4620      	mov	r0, r4
   d730e:	b002      	add	sp, #8
   d7310:	bd10      	pop	{r4, pc}
	bool result = false;
   d7312:	2400      	movs	r4, #0
   d7314:	e7f7      	b.n	d7306 <_ZN25PublishQueueAsyncRetained11clearEventsEv+0x16>

000d7316 <_ZNK25PublishQueueAsyncRetained12getNumEventsEv>:


	return true;
}

uint16_t PublishQueueAsyncRetained::getNumEvents() const {
   d7316:	b513      	push	{r0, r1, r4, lr}
   d7318:	4604      	mov	r4, r0
	StMutexLock(const PublishQueueAsyncBase *publishQueue) : publishQueue(publishQueue) {
   d731a:	9001      	str	r0, [sp, #4]
		publishQueue->mutexLock();
   d731c:	f7ff ffca 	bl	d72b4 <_ZNK21PublishQueueAsyncBase9mutexLockEv>

	{
		StMutexLock lock(this);

		PublishQueueHeader *hdr = reinterpret_cast<PublishQueueHeader *>(retainedBuffer);
		numEvents = hdr->numEvents;
   d7320:	6ae3      	ldr	r3, [r4, #44]	; 0x2c
		StMutexLock lock(this);
   d7322:	a801      	add	r0, sp, #4
		numEvents = hdr->numEvents;
   d7324:	88dc      	ldrh	r4, [r3, #6]
		StMutexLock lock(this);
   d7326:	f7ff ffcb 	bl	d72c0 <_ZN11StMutexLockD1Ev>
	}

	return numEvents;
}
   d732a:	4620      	mov	r0, r4
   d732c:	b002      	add	sp, #8
   d732e:	bd10      	pop	{r4, pc}

000d7330 <_ZN25PublishQueueAsyncRetained13publishCommonEPKcS1_iN8particle5FlagsI15PublishFlagTypehEES5_>:
bool PublishQueueAsyncRetained::publishCommon(const char *eventName, const char *data, int ttl, PublishFlags flags1, PublishFlags flags2) {
   d7330:	e92d 47f0 	stmdb	sp!, {r4, r5, r6, r7, r8, r9, sl, lr}
   d7334:	4699      	mov	r9, r3
   d7336:	b086      	sub	sp, #24
	if (!haveSetup) {
   d7338:	f890 3029 	ldrb.w	r3, [r0, #41]	; 0x29
   d733c:	f89d a038 	ldrb.w	sl, [sp, #56]	; 0x38
   d7340:	f89d 803c 	ldrb.w	r8, [sp, #60]	; 0x3c
bool PublishQueueAsyncRetained::publishCommon(const char *eventName, const char *data, int ttl, PublishFlags flags1, PublishFlags flags2) {
   d7344:	4604      	mov	r4, r0
   d7346:	460f      	mov	r7, r1
   d7348:	4616      	mov	r6, r2
	if (!haveSetup) {
   d734a:	b913      	cbnz	r3, d7352 <_ZN25PublishQueueAsyncRetained13publishCommonEPKcS1_iN8particle5FlagsI15PublishFlagTypehEES5_+0x22>
		setup();
   d734c:	6803      	ldr	r3, [r0, #0]
   d734e:	689b      	ldr	r3, [r3, #8]
   d7350:	4798      	blx	r3
		data = "";
   d7352:	4b31      	ldr	r3, [pc, #196]	; (d7418 <_ZN25PublishQueueAsyncRetained13publishCommonEPKcS1_iN8particle5FlagsI15PublishFlagTypehEES5_+0xe8>)
	size_t size = sizeof(PublishQueueEventData) + strlen(eventName) + strlen(data) + 2;
   d7354:	4638      	mov	r0, r7
		data = "";
   d7356:	2e00      	cmp	r6, #0
   d7358:	bf08      	it	eq
   d735a:	461e      	moveq	r6, r3
	size_t size = sizeof(PublishQueueEventData) + strlen(eventName) + strlen(data) + 2;
   d735c:	f004 f98b 	bl	db676 <strlen>
   d7360:	4605      	mov	r5, r0
   d7362:	4630      	mov	r0, r6
   d7364:	f004 f987 	bl	db676 <strlen>
   d7368:	4428      	add	r0, r5
   d736a:	f100 050a 	add.w	r5, r0, #10
	if ((size % 4) != 0) {
   d736e:	07ab      	lsls	r3, r5, #30
		size += 4 - (size % 4);
   d7370:	bf1c      	itt	ne
   d7372:	f025 0503 	bicne.w	r5, r5, #3
   d7376:	3504      	addne	r5, #4
	pubqLogger.info("queueing eventName=%s data=%s ttl=%d flags1=%d flags2=%d size=%d", eventName, data, ttl, flags1.value(), flags2.value(), size);
   d7378:	4633      	mov	r3, r6
   d737a:	e9cd 8502 	strd	r8, r5, [sp, #8]
   d737e:	e9cd 9a00 	strd	r9, sl, [sp]
   d7382:	4926      	ldr	r1, [pc, #152]	; (d741c <_ZN25PublishQueueAsyncRetained13publishCommonEPKcS1_iN8particle5FlagsI15PublishFlagTypehEES5_+0xec>)
   d7384:	4826      	ldr	r0, [pc, #152]	; (d7420 <_ZN25PublishQueueAsyncRetained13publishCommonEPKcS1_iN8particle5FlagsI15PublishFlagTypehEES5_+0xf0>)
   d7386:	463a      	mov	r2, r7
   d7388:	f7fd f846 	bl	d4418 <_ZNK5spark6Logger4infoEPKcz>
	if  (size > (retainedBufferSize - sizeof(PublishQueueHeader))) {
   d738c:	8e23      	ldrh	r3, [r4, #48]	; 0x30
   d738e:	3b08      	subs	r3, #8
   d7390:	42ab      	cmp	r3, r5
   d7392:	d212      	bcs.n	d73ba <_ZN25PublishQueueAsyncRetained13publishCommonEPKcS1_iN8particle5FlagsI15PublishFlagTypehEES5_+0x8a>
		return false;
   d7394:	2400      	movs	r4, #0
}
   d7396:	4620      	mov	r0, r4
   d7398:	b006      	add	sp, #24
   d739a:	e8bd 87f0 	ldmia.w	sp!, {r4, r5, r6, r7, r8, r9, sl, pc}
			if (hdr->numEvents == 1) {
   d739e:	88cb      	ldrh	r3, [r1, #6]
   d73a0:	2b01      	cmp	r3, #1
   d73a2:	d036      	beq.n	d7412 <_ZN25PublishQueueAsyncRetained13publishCommonEPKcS1_iN8particle5FlagsI15PublishFlagTypehEES5_+0xe2>
			StMutexLock lock(this);
   d73a4:	a805      	add	r0, sp, #20
   d73a6:	f7ff ff8b 	bl	d72c0 <_ZN11StMutexLockD1Ev>
		if (!discardOldEvent(isSending)) {
   d73aa:	6823      	ldr	r3, [r4, #0]
   d73ac:	f894 1028 	ldrb.w	r1, [r4, #40]	; 0x28
   d73b0:	699b      	ldr	r3, [r3, #24]
   d73b2:	4620      	mov	r0, r4
   d73b4:	4798      	blx	r3
   d73b6:	2800      	cmp	r0, #0
   d73b8:	d0ec      	beq.n	d7394 <_ZN25PublishQueueAsyncRetained13publishCommonEPKcS1_iN8particle5FlagsI15PublishFlagTypehEES5_+0x64>
   d73ba:	4620      	mov	r0, r4
	StMutexLock(const PublishQueueAsyncBase *publishQueue) : publishQueue(publishQueue) {
   d73bc:	9405      	str	r4, [sp, #20]
		publishQueue->mutexLock();
   d73be:	f7ff ff79 	bl	d72b4 <_ZNK21PublishQueueAsyncBase9mutexLockEv>
			uint8_t *end = &retainedBuffer[retainedBufferSize];
   d73c2:	6ae1      	ldr	r1, [r4, #44]	; 0x2c
   d73c4:	8e22      	ldrh	r2, [r4, #48]	; 0x30
			if ((size_t)(end - nextFree) >= size) {
   d73c6:	6b63      	ldr	r3, [r4, #52]	; 0x34
			uint8_t *end = &retainedBuffer[retainedBufferSize];
   d73c8:	440a      	add	r2, r1
			if ((size_t)(end - nextFree) >= size) {
   d73ca:	1ad2      	subs	r2, r2, r3
   d73cc:	42aa      	cmp	r2, r5
   d73ce:	d3e6      	bcc.n	d739e <_ZN25PublishQueueAsyncRetained13publishCommonEPKcS1_iN8particle5FlagsI15PublishFlagTypehEES5_+0x6e>
				eventData->flags = flags1.value() | flags2.value();
   d73d0:	ea48 080a 	orr.w	r8, r8, sl
   d73d4:	f883 8004 	strb.w	r8, [r3, #4]
				eventData->ttl = ttl;
   d73d8:	f8c3 9000 	str.w	r9, [r3]
				char *cp = reinterpret_cast<char *>(nextFree);
   d73dc:	6b63      	ldr	r3, [r4, #52]	; 0x34
				cp += sizeof(PublishQueueEventData);
   d73de:	f103 0808 	add.w	r8, r3, #8
				strcpy(cp, eventName);
   d73e2:	4639      	mov	r1, r7
   d73e4:	4640      	mov	r0, r8
   d73e6:	f004 f921 	bl	db62c <strcpy>
				cp += strlen(cp) + 1;
   d73ea:	4640      	mov	r0, r8
   d73ec:	f004 f943 	bl	db676 <strlen>
   d73f0:	3001      	adds	r0, #1
				strcpy(cp, data);
   d73f2:	4631      	mov	r1, r6
   d73f4:	4440      	add	r0, r8
   d73f6:	f004 f919 	bl	db62c <strcpy>
				nextFree += size;
   d73fa:	6b63      	ldr	r3, [r4, #52]	; 0x34
				PublishQueueHeader *hdr = reinterpret_cast<PublishQueueHeader *>(retainedBuffer);
   d73fc:	6ae2      	ldr	r2, [r4, #44]	; 0x2c
				nextFree += size;
   d73fe:	441d      	add	r5, r3
   d7400:	6365      	str	r5, [r4, #52]	; 0x34
				hdr->numEvents++;
   d7402:	88d3      	ldrh	r3, [r2, #6]
   d7404:	3301      	adds	r3, #1
   d7406:	80d3      	strh	r3, [r2, #6]
				return true;
   d7408:	2401      	movs	r4, #1
			StMutexLock lock(this);
   d740a:	a805      	add	r0, sp, #20
   d740c:	f7ff ff58 	bl	d72c0 <_ZN11StMutexLockD1Ev>
   d7410:	e7c1      	b.n	d7396 <_ZN25PublishQueueAsyncRetained13publishCommonEPKcS1_iN8particle5FlagsI15PublishFlagTypehEES5_+0x66>
				return false;
   d7412:	2400      	movs	r4, #0
   d7414:	e7f9      	b.n	d740a <_ZN25PublishQueueAsyncRetained13publishCommonEPKcS1_iN8particle5FlagsI15PublishFlagTypehEES5_+0xda>
   d7416:	bf00      	nop
   d7418:	000de518 	.word	0x000de518
   d741c:	000de05a 	.word	0x000de05a
   d7420:	2003e5cc 	.word	0x2003e5cc

000d7424 <_ZN21PublishQueueAsyncBase14threadFunctionEv>:
void PublishQueueAsyncBase::threadFunction() {
   d7424:	b508      	push	{r3, lr}
   d7426:	4604      	mov	r4, r0
      return _M_invoker(_M_functor, std::forward<_ArgTypes>(__args)...);
   d7428:	f100 0510 	add.w	r5, r0, #16
      if (_M_empty())
   d742c:	69a3      	ldr	r3, [r4, #24]
   d742e:	b90b      	cbnz	r3, d7434 <_ZN21PublishQueueAsyncBase14threadFunctionEv+0x10>
	__throw_bad_function_call();
   d7430:	f003 fa2f 	bl	da892 <_ZSt25__throw_bad_function_callv>
      return _M_invoker(_M_functor, std::forward<_ArgTypes>(__args)...);
   d7434:	69e3      	ldr	r3, [r4, #28]
   d7436:	4621      	mov	r1, r4
   d7438:	4628      	mov	r0, r5
   d743a:	4798      	blx	r3
		os_thread_yield();
   d743c:	f000 ffc2 	bl	d83c4 <os_thread_yield>
	while(true) {
   d7440:	e7f4      	b.n	d742c <_ZN21PublishQueueAsyncBase14threadFunctionEv+0x8>

000d7442 <_ZN21PublishQueueAsyncBase20threadFunctionStaticEPv>:
void PublishQueueAsyncBase::threadFunctionStatic(void *param) {
   d7442:	b508      	push	{r3, lr}
	static_cast<PublishQueueAsync *>(param)->threadFunction();
   d7444:	f7ff ffee 	bl	d7424 <_ZN21PublishQueueAsyncBase14threadFunctionEv>

000d7448 <_ZN25PublishQueueAsyncRetained9skipEventEPh>:
uint8_t *PublishQueueAsyncRetained::skipEvent(uint8_t *start) {
   d7448:	b568      	push	{r3, r5, r6, lr}
	start += sizeof(PublishQueueEventData);
   d744a:	f101 0508 	add.w	r5, r1, #8
uint8_t *PublishQueueAsyncRetained::skipEvent(uint8_t *start) {
   d744e:	4606      	mov	r6, r0
	start += strlen(reinterpret_cast<char *>(start)) + 1;
   d7450:	4628      	mov	r0, r5
   d7452:	f004 f910 	bl	db676 <strlen>
   d7456:	3001      	adds	r0, #1
   d7458:	4405      	add	r5, r0
	start += strlen(reinterpret_cast<char *>(start)) + 1;
   d745a:	4628      	mov	r0, r5
   d745c:	f004 f90b 	bl	db676 <strlen>
	size_t offset = start - retainedBuffer;
   d7460:	6af3      	ldr	r3, [r6, #44]	; 0x2c
	start += strlen(reinterpret_cast<char *>(start)) + 1;
   d7462:	3001      	adds	r0, #1
   d7464:	4428      	add	r0, r5
	size_t offset = start - retainedBuffer;
   d7466:	1ac3      	subs	r3, r0, r3
	if ((offset % 4) != 0) {
   d7468:	f013 0303 	ands.w	r3, r3, #3
		start += 4 - (offset % 4);
   d746c:	bf1c      	itt	ne
   d746e:	f1c3 0304 	rsbne	r3, r3, #4
   d7472:	18c0      	addne	r0, r0, r3
}
   d7474:	bd68      	pop	{r3, r5, r6, pc}

000d7476 <_ZN25PublishQueueAsyncRetained15discardOldEventEb>:
bool PublishQueueAsyncRetained::discardOldEvent(bool secondEvent) {
   d7476:	b5f7      	push	{r0, r1, r2, r4, r5, r6, r7, lr}
   d7478:	4604      	mov	r4, r0
   d747a:	460e      	mov	r6, r1
	StMutexLock(const PublishQueueAsyncBase *publishQueue) : publishQueue(publishQueue) {
   d747c:	9001      	str	r0, [sp, #4]
		publishQueue->mutexLock();
   d747e:	f7ff ff19 	bl	d72b4 <_ZNK21PublishQueueAsyncBase9mutexLockEv>
	PublishQueueHeader *hdr = reinterpret_cast<PublishQueueHeader *>(retainedBuffer);
   d7482:	6ae7      	ldr	r7, [r4, #44]	; 0x2c
	uint8_t *start = &retainedBuffer[sizeof(PublishQueueHeader)];
   d7484:	88fb      	ldrh	r3, [r7, #6]
   d7486:	f107 0508 	add.w	r5, r7, #8
	if (secondEvent) {
   d748a:	b1e6      	cbz	r6, d74c6 <_ZN25PublishQueueAsyncRetained15discardOldEventEb+0x50>
		if (hdr->numEvents < 2) {
   d748c:	2b01      	cmp	r3, #1
   d748e:	d922      	bls.n	d74d6 <_ZN25PublishQueueAsyncRetained15discardOldEventEb+0x60>
		start = skipEvent(start);
   d7490:	4629      	mov	r1, r5
   d7492:	4620      	mov	r0, r4
   d7494:	f7ff ffd8 	bl	d7448 <_ZN25PublishQueueAsyncRetained9skipEventEPh>
   d7498:	4605      	mov	r5, r0
	uint8_t *next = skipEvent(start);
   d749a:	4629      	mov	r1, r5
   d749c:	4620      	mov	r0, r4
   d749e:	f7ff ffd3 	bl	d7448 <_ZN25PublishQueueAsyncRetained9skipEventEPh>
	uint8_t *end = &retainedBuffer[retainedBufferSize];
   d74a2:	8e22      	ldrh	r2, [r4, #48]	; 0x30
   d74a4:	443a      	add	r2, r7
	if (after > 0) {
   d74a6:	1a12      	subs	r2, r2, r0
	uint8_t *next = skipEvent(start);
   d74a8:	4601      	mov	r1, r0
	size_t len = next - start;
   d74aa:	eba0 0605 	sub.w	r6, r0, r5
	if (after > 0) {
   d74ae:	d002      	beq.n	d74b6 <_ZN25PublishQueueAsyncRetained15discardOldEventEb+0x40>
		memmove(start, next, after);
   d74b0:	4628      	mov	r0, r5
   d74b2:	f004 f86b 	bl	db58c <memmove>
	nextFree -= len;
   d74b6:	6b63      	ldr	r3, [r4, #52]	; 0x34
   d74b8:	1b9b      	subs	r3, r3, r6
   d74ba:	6363      	str	r3, [r4, #52]	; 0x34
	hdr->numEvents--;
   d74bc:	88fb      	ldrh	r3, [r7, #6]
   d74be:	3b01      	subs	r3, #1
   d74c0:	80fb      	strh	r3, [r7, #6]
	return true;
   d74c2:	2601      	movs	r6, #1
   d74c4:	e001      	b.n	d74ca <_ZN25PublishQueueAsyncRetained15discardOldEventEb+0x54>
		if (hdr->numEvents < 1) {
   d74c6:	2b00      	cmp	r3, #0
   d74c8:	d1e7      	bne.n	d749a <_ZN25PublishQueueAsyncRetained15discardOldEventEb+0x24>
	StMutexLock lock(this);
   d74ca:	a801      	add	r0, sp, #4
   d74cc:	f7ff fef8 	bl	d72c0 <_ZN11StMutexLockD1Ev>
}
   d74d0:	4630      	mov	r0, r6
   d74d2:	b003      	add	sp, #12
   d74d4:	bdf0      	pop	{r4, r5, r6, r7, pc}
			return false;
   d74d6:	2600      	movs	r6, #0
   d74d8:	e7f7      	b.n	d74ca <_ZN25PublishQueueAsyncRetained15discardOldEventEb+0x54>
	...

000d74dc <_ZN25PublishQueueAsyncRetainedC1EPht>:
PublishQueueAsyncRetained::PublishQueueAsyncRetained(uint8_t *retainedBuffer, uint16_t retainedBufferSize) :
   d74dc:	e92d 47f0 	stmdb	sp!, {r4, r5, r6, r7, r8, r9, sl, lr}
   d74e0:	460d      	mov	r5, r1
   d74e2:	4604      	mov	r4, r0
	if (hdr->magic == PUBLISH_QUEUE_HEADER_MAGIC && hdr->size == retainedBufferSize) {
   d74e4:	462f      	mov	r7, r5
PublishQueueAsyncRetained::PublishQueueAsyncRetained(uint8_t *retainedBuffer, uint16_t retainedBufferSize) :
   d74e6:	4616      	mov	r6, r2
		retainedBuffer(retainedBuffer), retainedBufferSize(retainedBufferSize) {
   d74e8:	f7ff fea8 	bl	d723c <_ZN21PublishQueueAsyncBaseC1Ev>
   d74ec:	4b15      	ldr	r3, [pc, #84]	; (d7544 <_ZN25PublishQueueAsyncRetainedC1EPht+0x68>)
	if (hdr->magic == PUBLISH_QUEUE_HEADER_MAGIC && hdr->size == retainedBufferSize) {
   d74ee:	f857 2b08 	ldr.w	r2, [r7], #8
		retainedBuffer(retainedBuffer), retainedBufferSize(retainedBufferSize) {
   d74f2:	6023      	str	r3, [r4, #0]
	if (hdr->magic == PUBLISH_QUEUE_HEADER_MAGIC && hdr->size == retainedBufferSize) {
   d74f4:	4b14      	ldr	r3, [pc, #80]	; (d7548 <_ZN25PublishQueueAsyncRetainedC1EPht+0x6c>)
		retainedBuffer(retainedBuffer), retainedBufferSize(retainedBufferSize) {
   d74f6:	62e5      	str	r5, [r4, #44]	; 0x2c
	if (hdr->magic == PUBLISH_QUEUE_HEADER_MAGIC && hdr->size == retainedBufferSize) {
   d74f8:	429a      	cmp	r2, r3
		retainedBuffer(retainedBuffer), retainedBufferSize(retainedBufferSize) {
   d74fa:	8626      	strh	r6, [r4, #48]	; 0x30
	if (hdr->magic == PUBLISH_QUEUE_HEADER_MAGIC && hdr->size == retainedBufferSize) {
   d74fc:	4698      	mov	r8, r3
   d74fe:	d117      	bne.n	d7530 <_ZN25PublishQueueAsyncRetainedC1EPht+0x54>
   d7500:	88ab      	ldrh	r3, [r5, #4]
   d7502:	b29b      	uxth	r3, r3
   d7504:	42b3      	cmp	r3, r6
   d7506:	d113      	bne.n	d7530 <_ZN25PublishQueueAsyncRetainedC1EPht+0x54>
		uint8_t *end = &retainedBuffer[retainedBufferSize];
   d7508:	eb05 0a06 	add.w	sl, r5, r6
		nextFree = &retainedBuffer[sizeof(PublishQueueHeader)];
   d750c:	6367      	str	r7, [r4, #52]	; 0x34
   d750e:	f04f 0900 	mov.w	r9, #0
		for(uint16_t ii = 0; ii < hdr->numEvents; ii++) {
   d7512:	88eb      	ldrh	r3, [r5, #6]
   d7514:	fa1f f289 	uxth.w	r2, r9
   d7518:	b29b      	uxth	r3, r3
   d751a:	429a      	cmp	r2, r3
   d751c:	d20e      	bcs.n	d753c <_ZN25PublishQueueAsyncRetainedC1EPht+0x60>
			nextFree = skipEvent(nextFree);
   d751e:	6b61      	ldr	r1, [r4, #52]	; 0x34
   d7520:	4620      	mov	r0, r4
   d7522:	f7ff ff91 	bl	d7448 <_ZN25PublishQueueAsyncRetained9skipEventEPh>
			if (nextFree > end) {
   d7526:	4550      	cmp	r0, sl
			nextFree = skipEvent(nextFree);
   d7528:	6360      	str	r0, [r4, #52]	; 0x34
			if (nextFree > end) {
   d752a:	f109 0901 	add.w	r9, r9, #1
   d752e:	d9f0      	bls.n	d7512 <_ZN25PublishQueueAsyncRetainedC1EPht+0x36>
		hdr->numEvents = 0;
   d7530:	2300      	movs	r3, #0
		hdr->magic = PUBLISH_QUEUE_HEADER_MAGIC;
   d7532:	f8c5 8000 	str.w	r8, [r5]
		nextFree = &retainedBuffer[sizeof(PublishQueueHeader)];
   d7536:	6367      	str	r7, [r4, #52]	; 0x34
		hdr->size = retainedBufferSize;
   d7538:	80ae      	strh	r6, [r5, #4]
		hdr->numEvents = 0;
   d753a:	80eb      	strh	r3, [r5, #6]
}
   d753c:	4620      	mov	r0, r4
   d753e:	e8bd 87f0 	ldmia.w	sp!, {r4, r5, r6, r7, r8, r9, sl, pc}
   d7542:	bf00      	nop
   d7544:	000de134 	.word	0x000de134
   d7548:	d19cab61 	.word	0xd19cab61

000d754c <_ZNSt8functionIFvR21PublishQueueAsyncBaseEEaSIMS0_FvvEEENSt9enable_ifIXsrNS3_9_CallableINSt5decayIT_E4typeESt15__invoke_resultIRSC_JS1_EEEE5valueERS3_E4typeEOSA_>:
	operator=(_Functor&& __f)
   d754c:	b510      	push	{r4, lr}
   d754e:	e9d1 2300 	ldrd	r2, r3, [r1]
   d7552:	b086      	sub	sp, #24
    _Function_base() : _M_manager(nullptr) { }
   d7554:	2100      	movs	r1, #0
	operator=(_Functor&& __f)
   d7556:	4604      	mov	r4, r0
    _Function_base() : _M_manager(nullptr) { }
   d7558:	9104      	str	r1, [sp, #16]
	  { return __mp != nullptr; }
   d755a:	b90a      	cbnz	r2, d7560 <_ZNSt8functionIFvR21PublishQueueAsyncBaseEEaSIMS0_FvvEEENSt9enable_ifIXsrNS3_9_CallableINSt5decayIT_E4typeESt15__invoke_resultIRSC_JS1_EEEE5valueERS3_E4typeEOSA_+0x14>
   d755c:	07d9      	lsls	r1, r3, #31
   d755e:	d505      	bpl.n	d756c <_ZNSt8functionIFvR21PublishQueueAsyncBaseEEaSIMS0_FvvEEENSt9enable_ifIXsrNS3_9_CallableINSt5decayIT_E4typeESt15__invoke_resultIRSC_JS1_EEEE5valueERS3_E4typeEOSA_+0x20>
	{ ::new (__functor._M_access()) _Functor(std::move(__f)); }
   d7560:	e9cd 2302 	strd	r2, r3, [sp, #8]
	    _M_invoker = &_My_handler::_M_invoke;
   d7564:	4b0f      	ldr	r3, [pc, #60]	; (d75a4 <_ZNSt8functionIFvR21PublishQueueAsyncBaseEEaSIMS0_FvvEEENSt9enable_ifIXsrNS3_9_CallableINSt5decayIT_E4typeESt15__invoke_resultIRSC_JS1_EEEE5valueERS3_E4typeEOSA_+0x58>)
   d7566:	9305      	str	r3, [sp, #20]
	    _M_manager = &_My_handler::_M_manager;
   d7568:	4b0f      	ldr	r3, [pc, #60]	; (d75a8 <_ZNSt8functionIFvR21PublishQueueAsyncBaseEEaSIMS0_FvvEEENSt9enable_ifIXsrNS3_9_CallableINSt5decayIT_E4typeESt15__invoke_resultIRSC_JS1_EEEE5valueERS3_E4typeEOSA_+0x5c>)
   d756a:	9304      	str	r3, [sp, #16]
      _Tp __tmp = _GLIBCXX_MOVE(__a);
   d756c:	ab02      	add	r3, sp, #8
   d756e:	e893 0003 	ldmia.w	r3, {r0, r1}
   d7572:	466a      	mov	r2, sp
   d7574:	e882 0003 	stmia.w	r2, {r0, r1}
      __a = _GLIBCXX_MOVE(__b);
   d7578:	e894 0003 	ldmia.w	r4, {r0, r1}
   d757c:	e883 0003 	stmia.w	r3, {r0, r1}
      __b = _GLIBCXX_MOVE(__tmp);
   d7580:	e892 0003 	ldmia.w	r2, {r0, r1}
      _Tp __tmp = _GLIBCXX_MOVE(__a);
   d7584:	9a04      	ldr	r2, [sp, #16]
      __b = _GLIBCXX_MOVE(__tmp);
   d7586:	e884 0003 	stmia.w	r4, {r0, r1}
      __a = _GLIBCXX_MOVE(__b);
   d758a:	68a1      	ldr	r1, [r4, #8]
      __b = _GLIBCXX_MOVE(__tmp);
   d758c:	60a2      	str	r2, [r4, #8]
      _Tp __tmp = _GLIBCXX_MOVE(__a);
   d758e:	9a05      	ldr	r2, [sp, #20]
      __a = _GLIBCXX_MOVE(__b);
   d7590:	9104      	str	r1, [sp, #16]
    class function<_Res(_ArgTypes...)>
   d7592:	4618      	mov	r0, r3
   d7594:	68e1      	ldr	r1, [r4, #12]
      __b = _GLIBCXX_MOVE(__tmp);
   d7596:	60e2      	str	r2, [r4, #12]
      __a = _GLIBCXX_MOVE(__b);
   d7598:	9105      	str	r1, [sp, #20]
   d759a:	f7fc feb9 	bl	d4310 <_ZNSt14_Function_baseD1Ev>
	}
   d759e:	4620      	mov	r0, r4
   d75a0:	b006      	add	sp, #24
   d75a2:	bd10      	pop	{r4, pc}
   d75a4:	000d7187 	.word	0x000d7187
   d75a8:	000d713d 	.word	0x000d713d

000d75ac <_ZN21PublishQueueAsyncBase10startStateEv>:
void PublishQueueAsyncBase::startState() {
   d75ac:	b507      	push	{r0, r1, r2, lr}
	stateHandler = &PublishQueueAsyncBase::checkQueueState;
   d75ae:	4b05      	ldr	r3, [pc, #20]	; (d75c4 <_ZN21PublishQueueAsyncBase10startStateEv+0x18>)
   d75b0:	9300      	str	r3, [sp, #0]
   d75b2:	4669      	mov	r1, sp
   d75b4:	2300      	movs	r3, #0
   d75b6:	3010      	adds	r0, #16
   d75b8:	9301      	str	r3, [sp, #4]
   d75ba:	f7ff ffc7 	bl	d754c <_ZNSt8functionIFvR21PublishQueueAsyncBaseEEaSIMS0_FvvEEENSt9enable_ifIXsrNS3_9_CallableINSt5decayIT_E4typeESt15__invoke_resultIRSC_JS1_EEEE5valueERS3_E4typeEOSA_>
}
   d75be:	b003      	add	sp, #12
   d75c0:	f85d fb04 	ldr.w	pc, [sp], #4
   d75c4:	000d75f5 	.word	0x000d75f5

000d75c8 <_ZN21PublishQueueAsyncBase14waitRetryStateEv>:
void PublishQueueAsyncBase::waitRetryState() {
   d75c8:	b513      	push	{r0, r1, r4, lr}
   d75ca:	4604      	mov	r4, r0
   d75cc:	f000 ff82 	bl	d84d4 <HAL_Timer_Get_Milli_Seconds>
	if (millis() - lastPublish >= failureRetryMs) {
   d75d0:	6a63      	ldr	r3, [r4, #36]	; 0x24
   d75d2:	1ac0      	subs	r0, r0, r3
   d75d4:	68e3      	ldr	r3, [r4, #12]
   d75d6:	4298      	cmp	r0, r3
   d75d8:	d308      	bcc.n	d75ec <_ZN21PublishQueueAsyncBase14waitRetryStateEv+0x24>
		stateHandler = &PublishQueueAsyncBase::checkQueueState;
   d75da:	4b05      	ldr	r3, [pc, #20]	; (d75f0 <_ZN21PublishQueueAsyncBase14waitRetryStateEv+0x28>)
   d75dc:	9300      	str	r3, [sp, #0]
   d75de:	4669      	mov	r1, sp
   d75e0:	2300      	movs	r3, #0
   d75e2:	f104 0010 	add.w	r0, r4, #16
   d75e6:	9301      	str	r3, [sp, #4]
   d75e8:	f7ff ffb0 	bl	d754c <_ZNSt8functionIFvR21PublishQueueAsyncBaseEEaSIMS0_FvvEEENSt9enable_ifIXsrNS3_9_CallableINSt5decayIT_E4typeESt15__invoke_resultIRSC_JS1_EEEE5valueERS3_E4typeEOSA_>
}
   d75ec:	b002      	add	sp, #8
   d75ee:	bd10      	pop	{r4, pc}
   d75f0:	000d75f5 	.word	0x000d75f5

000d75f4 <_ZN21PublishQueueAsyncBase15checkQueueStateEv>:
void PublishQueueAsyncBase::checkQueueState() {
   d75f4:	e92d 41f0 	stmdb	sp!, {r4, r5, r6, r7, r8, lr}
	if (!pausePublishing && Particle.connected() && millis() - lastPublish >= 1010) {
   d75f8:	f890 302a 	ldrb.w	r3, [r0, #42]	; 0x2a
void PublishQueueAsyncBase::checkQueueState() {
   d75fc:	b086      	sub	sp, #24
   d75fe:	4604      	mov	r4, r0
	if (!pausePublishing && Particle.connected() && millis() - lastPublish >= 1010) {
   d7600:	2b00      	cmp	r3, #0
   d7602:	d164      	bne.n	d76ce <_ZN21PublishQueueAsyncBase15checkQueueStateEv+0xda>
    static bool connected(void) { return spark_cloud_flag_connected(); }
   d7604:	f001 f964 	bl	d88d0 <spark_cloud_flag_connected>
   d7608:	2800      	cmp	r0, #0
   d760a:	d060      	beq.n	d76ce <_ZN21PublishQueueAsyncBase15checkQueueStateEv+0xda>
   d760c:	f000 ff62 	bl	d84d4 <HAL_Timer_Get_Milli_Seconds>
   d7610:	6a63      	ldr	r3, [r4, #36]	; 0x24
   d7612:	1ac0      	subs	r0, r0, r3
   d7614:	f240 33f1 	movw	r3, #1009	; 0x3f1
   d7618:	4298      	cmp	r0, r3
   d761a:	d958      	bls.n	d76ce <_ZN21PublishQueueAsyncBase15checkQueueStateEv+0xda>
		PublishQueueEventData *data = getOldestEvent();
   d761c:	6823      	ldr	r3, [r4, #0]
   d761e:	4620      	mov	r0, r4
   d7620:	695b      	ldr	r3, [r3, #20]
   d7622:	4798      	blx	r3
		if (data) {
   d7624:	4605      	mov	r5, r0
   d7626:	2800      	cmp	r0, #0
   d7628:	d051      	beq.n	d76ce <_ZN21PublishQueueAsyncBase15checkQueueStateEv+0xda>
			const char *eventName = &buf[sizeof(PublishQueueEventData)];
   d762a:	f100 0708 	add.w	r7, r0, #8
			isSending = true;
   d762e:	2301      	movs	r3, #1
   d7630:	f884 3028 	strb.w	r3, [r4, #40]	; 0x28
			eventData += strlen(eventData) + 1;
   d7634:	4638      	mov	r0, r7
   d7636:	f004 f81e 	bl	db676 <strlen>
			PublishFlags flags(PublishFlag(data->flags));
   d763a:	f895 8004 	ldrb.w	r8, [r5, #4]
			pubqLogger.info("publishing %s %s ttl=%d flags=%x", eventName, eventData, data->ttl, flags.value());
   d763e:	f8cd 8004 	str.w	r8, [sp, #4]
			eventData += strlen(eventData) + 1;
   d7642:	3001      	adds	r0, #1
			pubqLogger.info("publishing %s %s ttl=%d flags=%x", eventName, eventData, data->ttl, flags.value());
   d7644:	682b      	ldr	r3, [r5, #0]
   d7646:	492b      	ldr	r1, [pc, #172]	; (d76f4 <_ZN21PublishQueueAsyncBase15checkQueueStateEv+0x100>)
   d7648:	9300      	str	r3, [sp, #0]
			eventData += strlen(eventData) + 1;
   d764a:	183e      	adds	r6, r7, r0
			pubqLogger.info("publishing %s %s ttl=%d flags=%x", eventName, eventData, data->ttl, flags.value());
   d764c:	4633      	mov	r3, r6
   d764e:	482a      	ldr	r0, [pc, #168]	; (d76f8 <_ZN21PublishQueueAsyncBase15checkQueueStateEv+0x104>)
   d7650:	463a      	mov	r2, r7
   d7652:	f7fc fee1 	bl	d4418 <_ZNK5spark6Logger4infoEPKcz>
			auto request = Particle.publish(eventName, eventData, data->ttl, flags);
   d7656:	682b      	ldr	r3, [r5, #0]
        return publish_event(eventName, eventData, ttl, flags1 | flags2);
   d7658:	f88d 8000 	strb.w	r8, [sp]
   d765c:	4632      	mov	r2, r6
   d765e:	4639      	mov	r1, r7
   d7660:	a802      	add	r0, sp, #8
   d7662:	f001 fc29 	bl	d8eb8 <_ZN10CloudClass13publish_eventEPKcS1_iN8particle5FlagsI15PublishFlagTypehEE>
      {
	memory_order __b = __m & __memory_order_mask;
	__glibcxx_assert(__b != memory_order_release);
	__glibcxx_assert(__b != memory_order_acq_rel);

	return __atomic_load_n(&_M_i, int(__m));
   d7666:	9d02      	ldr	r5, [sp, #8]
   d7668:	786b      	ldrb	r3, [r5, #1]
			while(!request.isDone()) {
   d766a:	b91b      	cbnz	r3, d7674 <_ZN21PublishQueueAsyncBase15checkQueueStateEv+0x80>
				delay(1);
   d766c:	2001      	movs	r0, #1
   d766e:	f001 fa47 	bl	d8b00 <delay>
			while(!request.isDone()) {
   d7672:	e7f8      	b.n	d7666 <_ZN21PublishQueueAsyncBase15checkQueueStateEv+0x72>
        return (application_thread_invoke(callback, data, nullptr) == 0);
    }

    // Returns true if current thread is the application thread
    static bool isApplicationThreadCurrent() {
        return (application_thread_current(nullptr) != 0);
   d7674:	2000      	movs	r0, #0
   d7676:	f001 f8cd 	bl	d8814 <application_thread_current>
        if (ContextT::isApplicationThreadCurrent()) {
   d767a:	b120      	cbz	r0, d7686 <_ZN21PublishQueueAsyncBase15checkQueueStateEv+0x92>
   d767c:	786b      	ldrb	r3, [r5, #1]
                if (isDone()) { // We can use relaxed ordering here, as long as the future's result is not examined
   d767e:	b913      	cbnz	r3, d7686 <_ZN21PublishQueueAsyncBase15checkQueueStateEv+0x92>
        spark_process();
   d7680:	f001 f916 	bl	d88b0 <spark_process>
    }
   d7684:	e7fa      	b.n	d767c <_ZN21PublishQueueAsyncBase15checkQueueStateEv+0x88>
      _Tp
      load(memory_order __m = memory_order_seq_cst) const noexcept
      {
	alignas(_Tp) unsigned char __buf[sizeof(_Tp)];
	_Tp* __ptr = reinterpret_cast<_Tp*>(__buf);
	__atomic_load(std::__addressof(_M_i), __ptr, int(__m));
   d7686:	782b      	ldrb	r3, [r5, #0]
			if (bResult) {
   d7688:	2b01      	cmp	r3, #1
   d768a:	d123      	bne.n	d76d4 <_ZN21PublishQueueAsyncBase15checkQueueStateEv+0xe0>
				pubqLogger.info("published successfully");
   d768c:	491b      	ldr	r1, [pc, #108]	; (d76fc <_ZN21PublishQueueAsyncBase15checkQueueStateEv+0x108>)
   d768e:	481a      	ldr	r0, [pc, #104]	; (d76f8 <_ZN21PublishQueueAsyncBase15checkQueueStateEv+0x104>)
   d7690:	f7fc fec2 	bl	d4418 <_ZNK5spark6Logger4infoEPKcz>
				discardOldEvent(false);
   d7694:	6823      	ldr	r3, [r4, #0]
   d7696:	2100      	movs	r1, #0
   d7698:	699b      	ldr	r3, [r3, #24]
   d769a:	4620      	mov	r0, r4
   d769c:	4798      	blx	r3
			isSending = false;
   d769e:	2300      	movs	r3, #0
   d76a0:	f884 3028 	strb.w	r3, [r4, #40]	; 0x28
   d76a4:	f000 ff16 	bl	d84d4 <HAL_Timer_Get_Milli_Seconds>
			lastPublish = millis();
   d76a8:	6260      	str	r0, [r4, #36]	; 0x24
	if (_M_pi != nullptr)
   d76aa:	9c03      	ldr	r4, [sp, #12]
   d76ac:	b17c      	cbz	r4, d76ce <_ZN21PublishQueueAsyncBase15checkQueueStateEv+0xda>
      if (--_M_use_count == 0)
   d76ae:	6863      	ldr	r3, [r4, #4]
   d76b0:	3b01      	subs	r3, #1
   d76b2:	6063      	str	r3, [r4, #4]
   d76b4:	b95b      	cbnz	r3, d76ce <_ZN21PublishQueueAsyncBase15checkQueueStateEv+0xda>
          _M_dispose();
   d76b6:	6823      	ldr	r3, [r4, #0]
   d76b8:	4620      	mov	r0, r4
   d76ba:	689b      	ldr	r3, [r3, #8]
   d76bc:	4798      	blx	r3
          if (--_M_weak_count == 0)
   d76be:	68a3      	ldr	r3, [r4, #8]
   d76c0:	3b01      	subs	r3, #1
   d76c2:	60a3      	str	r3, [r4, #8]
   d76c4:	b91b      	cbnz	r3, d76ce <_ZN21PublishQueueAsyncBase15checkQueueStateEv+0xda>
            _M_destroy();
   d76c6:	6823      	ldr	r3, [r4, #0]
   d76c8:	4620      	mov	r0, r4
   d76ca:	68db      	ldr	r3, [r3, #12]
   d76cc:	4798      	blx	r3
}
   d76ce:	b006      	add	sp, #24
   d76d0:	e8bd 81f0 	ldmia.w	sp!, {r4, r5, r6, r7, r8, pc}
				pubqLogger.info("published failed, will retry in %lu ms", failureRetryMs);
   d76d4:	68e2      	ldr	r2, [r4, #12]
   d76d6:	490a      	ldr	r1, [pc, #40]	; (d7700 <_ZN21PublishQueueAsyncBase15checkQueueStateEv+0x10c>)
   d76d8:	4807      	ldr	r0, [pc, #28]	; (d76f8 <_ZN21PublishQueueAsyncBase15checkQueueStateEv+0x104>)
   d76da:	f7fc fe9d 	bl	d4418 <_ZNK5spark6Logger4infoEPKcz>
				stateHandler = &PublishQueueAsyncBase::waitRetryState;
   d76de:	4b09      	ldr	r3, [pc, #36]	; (d7704 <_ZN21PublishQueueAsyncBase15checkQueueStateEv+0x110>)
   d76e0:	9304      	str	r3, [sp, #16]
   d76e2:	a904      	add	r1, sp, #16
   d76e4:	2300      	movs	r3, #0
   d76e6:	f104 0010 	add.w	r0, r4, #16
   d76ea:	9305      	str	r3, [sp, #20]
   d76ec:	f7ff ff2e 	bl	d754c <_ZNSt8functionIFvR21PublishQueueAsyncBaseEEaSIMS0_FvvEEENSt9enable_ifIXsrNS3_9_CallableINSt5decayIT_E4typeESt15__invoke_resultIRSC_JS1_EEEE5valueERS3_E4typeEOSA_>
   d76f0:	e7d5      	b.n	d769e <_ZN21PublishQueueAsyncBase15checkQueueStateEv+0xaa>
   d76f2:	bf00      	nop
   d76f4:	000de09b 	.word	0x000de09b
   d76f8:	2003e5cc 	.word	0x2003e5cc
   d76fc:	000de0bc 	.word	0x000de0bc
   d7700:	000de0d3 	.word	0x000de0d3
   d7704:	000d75c9 	.word	0x000d75c9

000d7708 <_GLOBAL__sub_I_pubqLogger>:
   d7708:	4b01      	ldr	r3, [pc, #4]	; (d7710 <_GLOBAL__sub_I_pubqLogger+0x8>)
   d770a:	4a02      	ldr	r2, [pc, #8]	; (d7714 <_GLOBAL__sub_I_pubqLogger+0xc>)
   d770c:	601a      	str	r2, [r3, #0]
}
   d770e:	4770      	bx	lr
   d7710:	2003e5cc 	.word	0x2003e5cc
   d7714:	000de0fa 	.word	0x000de0fa

000d7718 <_ZN17CloudConfigUpdate4loopEv>:
    virtual void loop() {};
   d7718:	4770      	bx	lr

000d771a <_ZN17CloudConfigUpdate11startUpdateEv>:
    virtual void startUpdate() {};
   d771a:	4770      	bx	lr

000d771c <_ZN22CloudConfigStorageData11getJsonDataEv>:

    parse();
}

const char * const CloudConfigStorageData::getJsonData() const {
    return &((const char * const)header)[sizeof(CloudConfigDataHeader)];
   d771c:	6900      	ldr	r0, [r0, #16]
}
   d771e:	3014      	adds	r0, #20
   d7720:	4770      	bx	lr

000d7722 <_ZNSt17_Function_handlerIFvR11CloudConfigEMS0_FvvEE10_M_managerERSt9_Any_dataRKS6_St18_Manager_operation>:
	switch (__op)
   d7722:	2a01      	cmp	r2, #1
      _M_manager(_Any_data& __dest, const _Any_data& __source,
   d7724:	4603      	mov	r3, r0
	switch (__op)
   d7726:	d102      	bne.n	d772e <_ZNSt17_Function_handlerIFvR11CloudConfigEMS0_FvvEE10_M_managerERSt9_Any_dataRKS6_St18_Manager_operation+0xc>
	    __dest._M_access<_Functor*>() =
   d7728:	6001      	str	r1, [r0, #0]
      }
   d772a:	2000      	movs	r0, #0
   d772c:	4770      	bx	lr
	  switch (__op)
   d772e:	2a02      	cmp	r2, #2
	  ::new (__dest._M_access()) _Functor(__source._M_access<_Functor>());
   d7730:	bf04      	itt	eq
   d7732:	e9d1 0100 	ldrdeq	r0, r1, [r1]
   d7736:	e9c3 0100 	strdeq	r0, r1, [r3]
	}
   d773a:	e7f6      	b.n	d772a <_ZNSt17_Function_handlerIFvR11CloudConfigEMS0_FvvEE10_M_managerERSt9_Any_dataRKS6_St18_Manager_operation+0x8>

000d773c <_ZN29CloudConfigUpdateSubscriptionD1Ev>:
 * 
 * You will probably want to subclass this if you want to be able to have the device request an update
 * since there is no way for this class to know how to request it. See CloudConfigUpdateWebhook for
 * and example of using startUpdate() to make a request.
 */
class CloudConfigUpdateSubscription : public CloudConfigUpdate {
   d773c:	b510      	push	{r4, lr}
   d773e:	4b04      	ldr	r3, [pc, #16]	; (d7750 <_ZN29CloudConfigUpdateSubscriptionD1Ev+0x14>)
   d7740:	4604      	mov	r4, r0
   d7742:	f840 3b0c 	str.w	r3, [r0], #12
   d7746:	f002 fb07 	bl	d9d58 <_ZN6StringD1Ev>
   d774a:	4620      	mov	r0, r4
   d774c:	bd10      	pop	{r4, pc}
   d774e:	bf00      	nop
   d7750:	000de2b4 	.word	0x000de2b4

000d7754 <_ZN29CloudConfigUpdateSubscriptionD0Ev>:
   d7754:	b510      	push	{r4, lr}
   d7756:	4604      	mov	r4, r0
   d7758:	f7ff fff0 	bl	d773c <_ZN29CloudConfigUpdateSubscriptionD1Ev>
   d775c:	4620      	mov	r0, r4
   d775e:	211c      	movs	r1, #28
   d7760:	f003 f891 	bl	da886 <_ZdlPvj>
   d7764:	4620      	mov	r0, r4
   d7766:	bd10      	pop	{r4, pc}

000d7768 <_ZN24CloudConfigUpdateWebhookD1Ev>:
 * Two examples that use this are the Devices Notes example and Google Sheets example.
 * 
 * This is derived from CloudConfigUpdateSubscription but is different because it subscribes
 * to a webhook response event, not eventName.
 */
class CloudConfigUpdateWebhook : public CloudConfigUpdateSubscription {
   d7768:	b510      	push	{r4, lr}
   d776a:	4b05      	ldr	r3, [pc, #20]	; (d7780 <_ZN24CloudConfigUpdateWebhookD1Ev+0x18>)
   d776c:	4604      	mov	r4, r0
   d776e:	f840 3b1c 	str.w	r3, [r0], #28
   d7772:	f002 faf1 	bl	d9d58 <_ZN6StringD1Ev>
   d7776:	4620      	mov	r0, r4
   d7778:	f7ff ffe0 	bl	d773c <_ZN29CloudConfigUpdateSubscriptionD1Ev>
   d777c:	4620      	mov	r0, r4
   d777e:	bd10      	pop	{r4, pc}
   d7780:	000de298 	.word	0x000de298

000d7784 <_ZN24CloudConfigUpdateWebhookD0Ev>:
   d7784:	b510      	push	{r4, lr}
   d7786:	4604      	mov	r4, r0
   d7788:	f7ff ffee 	bl	d7768 <_ZN24CloudConfigUpdateWebhookD1Ev>
   d778c:	4620      	mov	r0, r4
   d778e:	212c      	movs	r1, #44	; 0x2c
   d7790:	f003 f879 	bl	da886 <_ZdlPvj>
   d7794:	4620      	mov	r0, r4
   d7796:	bd10      	pop	{r4, pc}

000d7798 <_ZN22CloudConfigStorageData10updateDataEPKc>:

char *CloudConfigStorageData::getJsonData() {
    return &((char *)header)[sizeof(CloudConfigDataHeader)];
}

bool CloudConfigStorageData::updateData(const char *json) {
   d7798:	b513      	push	{r0, r1, r4, lr}
   d779a:	4604      	mov	r4, r0
    size_t jsonLen = strlen(json);
   d779c:	4608      	mov	r0, r1
   d779e:	9101      	str	r1, [sp, #4]
   d77a0:	f003 ff69 	bl	db676 <strlen>
    if (jsonLen < (dataSize - 1)) {
   d77a4:	6963      	ldr	r3, [r4, #20]
   d77a6:	3b01      	subs	r3, #1
   d77a8:	4283      	cmp	r3, r0
   d77aa:	d90f      	bls.n	d77cc <_ZN22CloudConfigStorageData10updateDataEPKc+0x34>
    return &((char *)header)[sizeof(CloudConfigDataHeader)];
   d77ac:	6920      	ldr	r0, [r4, #16]
        strcpy(getJsonData(), json);
   d77ae:	9901      	ldr	r1, [sp, #4]
   d77b0:	3014      	adds	r0, #20
   d77b2:	f003 ff3b 	bl	db62c <strcpy>
        parse();
   d77b6:	6823      	ldr	r3, [r4, #0]
   d77b8:	4620      	mov	r0, r4
   d77ba:	68db      	ldr	r3, [r3, #12]
   d77bc:	4798      	blx	r3
        return save();
   d77be:	6823      	ldr	r3, [r4, #0]
   d77c0:	6a1b      	ldr	r3, [r3, #32]
   d77c2:	4620      	mov	r0, r4
    }
    else {
        // Too long, reject
        return false;
    }
}
   d77c4:	b002      	add	sp, #8
   d77c6:	e8bd 4010 	ldmia.w	sp!, {r4, lr}
        return save();
   d77ca:	4718      	bx	r3
}
   d77cc:	2000      	movs	r0, #0
   d77ce:	b002      	add	sp, #8
   d77d0:	bd10      	pop	{r4, pc}

000d77d2 <_ZNSt17_Function_handlerIFvR11CloudConfigEMS0_FvvEE9_M_invokeERKSt9_Any_dataS1_>:
      _M_invoke(const _Any_data& __functor, _ArgTypes&&... __args)
   d77d2:	b410      	push	{r4}
   d77d4:	6842      	ldr	r2, [r0, #4]
   d77d6:	4603      	mov	r3, r0
   d77d8:	1054      	asrs	r4, r2, #1
   d77da:	eb01 0062 	add.w	r0, r1, r2, asr #1
   d77de:	07d2      	lsls	r2, r2, #31
   d77e0:	bf48      	it	mi
   d77e2:	590a      	ldrmi	r2, [r1, r4]
   d77e4:	681b      	ldr	r3, [r3, #0]
      }
   d77e6:	f85d 4b04 	ldr.w	r4, [sp], #4
   d77ea:	bf48      	it	mi
   d77ec:	58d3      	ldrmi	r3, [r2, r3]
   d77ee:	4718      	bx	r3

000d77f0 <_ZNSt14_Function_base13_Base_managerISt5_BindIFM29CloudConfigUpdateSubscriptionFvPKcS4_EPS2_St12_PlaceholderILi1EES8_ILi2EEEEE10_M_managerERSt9_Any_dataRKSE_St18_Manager_operation>:
	  switch (__op)
   d77f0:	2a02      	cmp	r2, #2
	_M_manager(_Any_data& __dest, const _Any_data& __source,
   d77f2:	b538      	push	{r3, r4, r5, lr}
   d77f4:	4604      	mov	r4, r0
	  switch (__op)
   d77f6:	d007      	beq.n	d7808 <_ZNSt14_Function_base13_Base_managerISt5_BindIFM29CloudConfigUpdateSubscriptionFvPKcS4_EPS2_St12_PlaceholderILi1EES8_ILi2EEEEE10_M_managerERSt9_Any_dataRKSE_St18_Manager_operation+0x18>
   d77f8:	2a03      	cmp	r2, #3
   d77fa:	d011      	beq.n	d7820 <_ZNSt14_Function_base13_Base_managerISt5_BindIFM29CloudConfigUpdateSubscriptionFvPKcS4_EPS2_St12_PlaceholderILi1EES8_ILi2EEEEE10_M_managerERSt9_Any_dataRKSE_St18_Manager_operation+0x30>
   d77fc:	2a01      	cmp	r2, #1
   d77fe:	d101      	bne.n	d7804 <_ZNSt14_Function_base13_Base_managerISt5_BindIFM29CloudConfigUpdateSubscriptionFvPKcS4_EPS2_St12_PlaceholderILi1EES8_ILi2EEEEE10_M_managerERSt9_Any_dataRKSE_St18_Manager_operation+0x14>
	    return __source._M_access<_Functor*>();
   d7800:	680b      	ldr	r3, [r1, #0]
	  __dest._M_access<_Functor*>() =
   d7802:	6023      	str	r3, [r4, #0]
	}
   d7804:	2000      	movs	r0, #0
   d7806:	bd38      	pop	{r3, r4, r5, pc}
	    new _Functor(*__source._M_access<const _Functor*>());
   d7808:	200c      	movs	r0, #12
	  __dest._M_access<_Functor*>() =
   d780a:	680d      	ldr	r5, [r1, #0]
	    new _Functor(*__source._M_access<const _Functor*>());
   d780c:	f7fc fc43 	bl	d4096 <_Znwj>
   d7810:	4603      	mov	r3, r0
   d7812:	2800      	cmp	r0, #0
   d7814:	d0f5      	beq.n	d7802 <_ZNSt14_Function_base13_Base_managerISt5_BindIFM29CloudConfigUpdateSubscriptionFvPKcS4_EPS2_St12_PlaceholderILi1EES8_ILi2EEEEE10_M_managerERSt9_Any_dataRKSE_St18_Manager_operation+0x12>
   d7816:	e895 0007 	ldmia.w	r5, {r0, r1, r2}
   d781a:	e883 0007 	stmia.w	r3, {r0, r1, r2}
   d781e:	e7f0      	b.n	d7802 <_ZNSt14_Function_base13_Base_managerISt5_BindIFM29CloudConfigUpdateSubscriptionFvPKcS4_EPS2_St12_PlaceholderILi1EES8_ILi2EEEEE10_M_managerERSt9_Any_dataRKSE_St18_Manager_operation+0x12>
	  delete __victim._M_access<_Functor*>();
   d7820:	6800      	ldr	r0, [r0, #0]
   d7822:	2800      	cmp	r0, #0
   d7824:	d0ee      	beq.n	d7804 <_ZNSt14_Function_base13_Base_managerISt5_BindIFM29CloudConfigUpdateSubscriptionFvPKcS4_EPS2_St12_PlaceholderILi1EES8_ILi2EEEEE10_M_managerERSt9_Any_dataRKSE_St18_Manager_operation+0x14>
   d7826:	210c      	movs	r1, #12
   d7828:	f003 f82d 	bl	da886 <_ZdlPvj>
   d782c:	e7ea      	b.n	d7804 <_ZNSt14_Function_base13_Base_managerISt5_BindIFM29CloudConfigUpdateSubscriptionFvPKcS4_EPS2_St12_PlaceholderILi1EES8_ILi2EEEEE10_M_managerERSt9_Any_dataRKSE_St18_Manager_operation+0x14>

000d782e <_ZNSt17_Function_handlerIFvPKcS1_ESt5_BindIFM29CloudConfigUpdateSubscriptionFvS1_S1_EPS4_St12_PlaceholderILi1EES8_ILi2EEEEE9_M_invokeERKSt9_Any_dataOS1_SH_>:
      _M_invoke(const _Any_data& __functor, _ArgTypes&&... __args)
   d782e:	b470      	push	{r4, r5, r6}
	    return __source._M_access<_Functor*>();
   d7830:	6803      	ldr	r3, [r0, #0]
      // Call unqualified
      template<typename _Result, typename... _Args, std::size_t... _Indexes>
	_Result
	__call(tuple<_Args...>&& __args, _Index_tuple<_Indexes...>)
	{
	  return std::__invoke(_M_f,
   d7832:	6809      	ldr	r1, [r1, #0]
  template<typename _Res, typename _MemFun, typename _Tp, typename... _Args>
    constexpr _Res
    __invoke_impl(__invoke_memfun_deref, _MemFun&& __f, _Tp&& __t,
		  _Args&&... __args)
    {
      return ((*std::forward<_Tp>(__t)).*__f)(std::forward<_Args>(__args)...);
   d7834:	685c      	ldr	r4, [r3, #4]
   d7836:	689d      	ldr	r5, [r3, #8]
   d7838:	681b      	ldr	r3, [r3, #0]
   d783a:	6812      	ldr	r2, [r2, #0]
   d783c:	1066      	asrs	r6, r4, #1
   d783e:	eb05 0064 	add.w	r0, r5, r4, asr #1
   d7842:	07e4      	lsls	r4, r4, #31
   d7844:	bf44      	itt	mi
   d7846:	59ac      	ldrmi	r4, [r5, r6]
   d7848:	58e3      	ldrmi	r3, [r4, r3]
      }
   d784a:	bc70      	pop	{r4, r5, r6}
   d784c:	4718      	bx	r3
	...

000d7850 <_ZN11CloudConfigD1Ev>:

CloudConfig::CloudConfig() {

}

CloudConfig::~CloudConfig() {
   d7850:	b510      	push	{r4, lr}
   d7852:	4b06      	ldr	r3, [pc, #24]	; (d786c <_ZN11CloudConfigD1Ev+0x1c>)
   d7854:	4604      	mov	r4, r0
   d7856:	f840 3b24 	str.w	r3, [r0], #36
    class function<_Res(_ArgTypes...)>
   d785a:	f7fc fd59 	bl	d4310 <_ZNSt14_Function_baseD1Ev>
   d785e:	f104 000c 	add.w	r0, r4, #12
   d7862:	f7fc fd55 	bl	d4310 <_ZNSt14_Function_baseD1Ev>

}
   d7866:	4620      	mov	r0, r4
   d7868:	bd10      	pop	{r4, pc}
   d786a:	bf00      	nop
   d786c:	000de258 	.word	0x000de258

000d7870 <_ZN11CloudConfigD0Ev>:
CloudConfig::~CloudConfig() {
   d7870:	b510      	push	{r4, lr}
   d7872:	4604      	mov	r4, r0
}
   d7874:	f7ff ffec 	bl	d7850 <_ZN11CloudConfigD1Ev>
   d7878:	4620      	mov	r0, r4
   d787a:	2138      	movs	r1, #56	; 0x38
   d787c:	f003 f803 	bl	da886 <_ZdlPvj>
   d7880:	4620      	mov	r0, r4
   d7882:	bd10      	pop	{r4, pc}

000d7884 <_ZNK18CloudConfigStorage11hasJsonDataEv>:
    bool hasJsonData() const { return getJsonData()[0] != 0; };
   d7884:	b508      	push	{r3, lr}
   d7886:	6803      	ldr	r3, [r0, #0]
   d7888:	685b      	ldr	r3, [r3, #4]
   d788a:	4798      	blx	r3
   d788c:	7800      	ldrb	r0, [r0, #0]
   d788e:	3800      	subs	r0, #0
   d7890:	bf18      	it	ne
   d7892:	2001      	movne	r0, #1
   d7894:	bd08      	pop	{r3, pc}
	...

000d7898 <_ZN22CloudConfigStorageDataC1EP21CloudConfigDataHeaderj>:
CloudConfigStorageData::CloudConfigStorageData(CloudConfigDataHeader *header, size_t dataSize) : header(header), dataSize(dataSize) {
   d7898:	b510      	push	{r4, lr}
      : _M_ptr(0), _M_refcount()
   d789a:	2400      	movs	r4, #0
      constexpr __shared_count() noexcept : _M_pi(0)
   d789c:	e9c0 4401 	strd	r4, r4, [r0, #4]
        t_(nullptr) {
   d78a0:	60c4      	str	r4, [r0, #12]
   d78a2:	4c02      	ldr	r4, [pc, #8]	; (d78ac <_ZN22CloudConfigStorageDataC1EP21CloudConfigDataHeaderj+0x14>)
   d78a4:	6004      	str	r4, [r0, #0]
   d78a6:	e9c0 1204 	strd	r1, r2, [r0, #16]
}
   d78aa:	bd10      	pop	{r4, pc}
   d78ac:	000de26c 	.word	0x000de26c

000d78b0 <_ZN22CloudConfigStorageData8validateEv>:
void CloudConfigStorageData::validate() {
   d78b0:	b570      	push	{r4, r5, r6, lr}
   d78b2:	4604      	mov	r4, r0
    if (header->magic == CloudConfig::DATA_MAGIC &&
   d78b4:	6900      	ldr	r0, [r0, #16]
   d78b6:	4d11      	ldr	r5, [pc, #68]	; (d78fc <_ZN22CloudConfigStorageData8validateEv+0x4c>)
   d78b8:	6802      	ldr	r2, [r0, #0]
   d78ba:	42aa      	cmp	r2, r5
   d78bc:	d106      	bne.n	d78cc <_ZN22CloudConfigStorageData8validateEv+0x1c>
   d78be:	7903      	ldrb	r3, [r0, #4]
   d78c0:	2b14      	cmp	r3, #20
   d78c2:	d103      	bne.n	d78cc <_ZN22CloudConfigStorageData8validateEv+0x1c>
        header->headerSize == (uint8_t)sizeof(CloudConfigDataHeader) &&
   d78c4:	88c2      	ldrh	r2, [r0, #6]
   d78c6:	8aa3      	ldrh	r3, [r4, #20]
   d78c8:	429a      	cmp	r2, r3
   d78ca:	d011      	beq.n	d78f0 <_ZN22CloudConfigStorageData8validateEv+0x40>
        memset(header, 0, sizeof(CloudConfigDataHeader));
   d78cc:	2614      	movs	r6, #20
   d78ce:	4632      	mov	r2, r6
   d78d0:	2100      	movs	r1, #0
   d78d2:	f003 fe75 	bl	db5c0 <memset>
        header->magic = CloudConfig::DATA_MAGIC;
   d78d6:	6923      	ldr	r3, [r4, #16]
   d78d8:	601d      	str	r5, [r3, #0]
        header->headerSize = (uint8_t)sizeof(CloudConfigDataHeader);
   d78da:	6923      	ldr	r3, [r4, #16]
   d78dc:	711e      	strb	r6, [r3, #4]
        header->dataSize = (uint16_t)dataSize;
   d78de:	e9d4 3204 	ldrd	r3, r2, [r4, #16]
   d78e2:	80da      	strh	r2, [r3, #6]
        memset(getJsonData(), 0, dataSize);
   d78e4:	e9d4 0204 	ldrd	r0, r2, [r4, #16]
   d78e8:	2100      	movs	r1, #0
   d78ea:	4430      	add	r0, r6
   d78ec:	f003 fe68 	bl	db5c0 <memset>
    parse();
   d78f0:	6823      	ldr	r3, [r4, #0]
   d78f2:	4620      	mov	r0, r4
   d78f4:	68db      	ldr	r3, [r3, #12]
}
   d78f6:	e8bd 4070 	ldmia.w	sp!, {r4, r5, r6, lr}
    parse();
   d78fa:	4718      	bx	r3
   d78fc:	7251dd53 	.word	0x7251dd53

000d7900 <_ZN11CloudConfigC1Ev>:
CloudConfig::CloudConfig() {
   d7900:	4a05      	ldr	r2, [pc, #20]	; (d7918 <_ZN11CloudConfigC1Ev+0x18>)
   d7902:	6002      	str	r2, [r0, #0]
   d7904:	2200      	movs	r2, #0
   d7906:	e9c0 2201 	strd	r2, r2, [r0, #4]
   d790a:	e9c0 2207 	strd	r2, r2, [r0, #28]
    _Function_base() : _M_manager(nullptr) { }
   d790e:	6142      	str	r2, [r0, #20]
   d7910:	62c2      	str	r2, [r0, #44]	; 0x2c
   d7912:	6342      	str	r2, [r0, #52]	; 0x34
}
   d7914:	4770      	bx	lr
   d7916:	bf00      	nop
   d7918:	000de258 	.word	0x000de258

000d791c <_ZN11CloudConfig8instanceEv>:
CloudConfig &CloudConfig::instance() {
   d791c:	b510      	push	{r4, lr}
    if (!_instance) {
   d791e:	4c06      	ldr	r4, [pc, #24]	; (d7938 <_ZN11CloudConfig8instanceEv+0x1c>)
   d7920:	6823      	ldr	r3, [r4, #0]
   d7922:	b93b      	cbnz	r3, d7934 <_ZN11CloudConfig8instanceEv+0x18>
        _instance = new CloudConfig();
   d7924:	2038      	movs	r0, #56	; 0x38
   d7926:	f7fc fbb6 	bl	d4096 <_Znwj>
   d792a:	4603      	mov	r3, r0
   d792c:	b108      	cbz	r0, d7932 <_ZN11CloudConfig8instanceEv+0x16>
   d792e:	f7ff ffe7 	bl	d7900 <_ZN11CloudConfigC1Ev>
   d7932:	6023      	str	r3, [r4, #0]
}
   d7934:	6820      	ldr	r0, [r4, #0]
   d7936:	bd10      	pop	{r4, pc}
   d7938:	2003e5d4 	.word	0x2003e5d4

000d793c <_ZN29CloudConfigUpdateSubscription19subscriptionHandlerEPKcS1_>:

void CloudConfigUpdateSubscription::setup() {
    Particle.subscribe(eventName, &CloudConfigUpdateSubscription::subscriptionHandler, this);
}

void CloudConfigUpdateSubscription::subscriptionHandler(const char *eventName, const char *eventData) {
   d793c:	b507      	push	{r0, r1, r2, lr}
   d793e:	9201      	str	r2, [sp, #4]
    CloudConfig::instance().updateData(eventData);
   d7940:	f7ff ffec 	bl	d791c <_ZN11CloudConfig8instanceEv>
   d7944:	6803      	ldr	r3, [r0, #0]
   d7946:	9901      	ldr	r1, [sp, #4]
   d7948:	681b      	ldr	r3, [r3, #0]
}
   d794a:	b003      	add	sp, #12
   d794c:	f85d eb04 	ldr.w	lr, [sp], #4
    CloudConfig::instance().updateData(eventData);
   d7950:	4718      	bx	r3

000d7952 <_ZN11CloudConfig4loopEv>:
void CloudConfig::loop() {
   d7952:	b510      	push	{r4, lr}
   d7954:	4604      	mov	r4, r0
    storageMethod->loop();
   d7956:	6840      	ldr	r0, [r0, #4]
   d7958:	6803      	ldr	r3, [r0, #0]
   d795a:	691b      	ldr	r3, [r3, #16]
   d795c:	4798      	blx	r3
    if (updateMethod) {
   d795e:	68a0      	ldr	r0, [r4, #8]
   d7960:	b110      	cbz	r0, d7968 <_ZN11CloudConfig4loopEv+0x16>
        updateMethod->loop();
   d7962:	6803      	ldr	r3, [r0, #0]
   d7964:	685b      	ldr	r3, [r3, #4]
   d7966:	4798      	blx	r3
    if (stateHandler) {
   d7968:	6ae3      	ldr	r3, [r4, #44]	; 0x2c
   d796a:	b133      	cbz	r3, d797a <_ZN11CloudConfig4loopEv+0x28>
      return _M_invoker(_M_functor, std::forward<_ArgTypes>(__args)...);
   d796c:	6b23      	ldr	r3, [r4, #48]	; 0x30
   d796e:	4621      	mov	r1, r4
   d7970:	f104 0024 	add.w	r0, r4, #36	; 0x24
}
   d7974:	e8bd 4010 	ldmia.w	sp!, {r4, lr}
   d7978:	4718      	bx	r3
   d797a:	bd10      	pop	{r4, pc}

000d797c <_ZN24CloudConfigUpdateWebhook13withEventNameEPKc>:

    // This is the subscription event name (hook-response)
    withEventName(eventName);
}

CloudConfigUpdateWebhook &CloudConfigUpdateWebhook::withEventName(const char *eventName) {
   d797c:	b510      	push	{r4, lr}
   d797e:	b08a      	sub	sp, #40	; 0x28
   d7980:	4604      	mov	r4, r0
        return spark_deviceID();
   d7982:	a806      	add	r0, sp, #24
   d7984:	9101      	str	r1, [sp, #4]
   d7986:	f000 ffab 	bl	d88e0 <spark_deviceID>
    // Response Template:
    // {{PARTICLE_DEVICE_ID}}/hook-response/{{PARTICLE_EVENT_NAME}}
    String s = String::format("%s/hook-response/%s/", System.deviceID().c_str(), eventName);
   d798a:	9b01      	ldr	r3, [sp, #4]
   d798c:	9a06      	ldr	r2, [sp, #24]
   d798e:	4909      	ldr	r1, [pc, #36]	; (d79b4 <_ZN24CloudConfigUpdateWebhook13withEventNameEPKc+0x38>)
   d7990:	a802      	add	r0, sp, #8
   d7992:	f002 facf 	bl	d9f34 <_ZN6String6formatEPKcz>
   d7996:	a806      	add	r0, sp, #24
   d7998:	f002 f9de 	bl	d9d58 <_ZN6StringD1Ev>
    CloudConfigUpdateSubscription &withEventName(const char *eventName) { this->eventName = eventName; return *this; };
   d799c:	9902      	ldr	r1, [sp, #8]
   d799e:	f104 000c 	add.w	r0, r4, #12
   d79a2:	f002 fa52 	bl	d9e4a <_ZN6StringaSEPKc>
   d79a6:	a802      	add	r0, sp, #8
   d79a8:	f002 f9d6 	bl	d9d58 <_ZN6StringD1Ev>

    CloudConfigUpdateSubscription::withEventName(s);
    return *this;
}
   d79ac:	4620      	mov	r0, r4
   d79ae:	b00a      	add	sp, #40	; 0x28
   d79b0:	bd10      	pop	{r4, pc}
   d79b2:	bf00      	nop
   d79b4:	000de154 	.word	0x000de154

000d79b8 <_ZN24CloudConfigUpdateWebhookC1EPKc>:
    CloudConfigUpdate() {};
   d79b8:	f44f 62fa 	mov.w	r2, #2000	; 0x7d0
   d79bc:	f64e 2360 	movw	r3, #60000	; 0xea60
CloudConfigUpdateWebhook::CloudConfigUpdateWebhook(const char *eventName) {
   d79c0:	b570      	push	{r4, r5, r6, lr}
   d79c2:	e9c0 2301 	strd	r2, r3, [r0, #4]
   d79c6:	4604      	mov	r4, r0
    CloudConfigUpdateSubscription() {};
   d79c8:	4b0c      	ldr	r3, [pc, #48]	; (d79fc <_ZN24CloudConfigUpdateWebhookC1EPKc+0x44>)
   d79ca:	f840 3b0c 	str.w	r3, [r0], #12
   d79ce:	460d      	mov	r5, r1
   d79d0:	4626      	mov	r6, r4
   d79d2:	490b      	ldr	r1, [pc, #44]	; (d7a00 <_ZN24CloudConfigUpdateWebhookC1EPKc+0x48>)
   d79d4:	f002 fa0b 	bl	d9dee <_ZN6StringC1EPKc>
   d79d8:	4b0a      	ldr	r3, [pc, #40]	; (d7a04 <_ZN24CloudConfigUpdateWebhookC1EPKc+0x4c>)
   d79da:	f846 3b1c 	str.w	r3, [r6], #28
   d79de:	4908      	ldr	r1, [pc, #32]	; (d7a00 <_ZN24CloudConfigUpdateWebhookC1EPKc+0x48>)
   d79e0:	4630      	mov	r0, r6
   d79e2:	f002 fa04 	bl	d9dee <_ZN6StringC1EPKc>
    requestEventName = eventName;
   d79e6:	4629      	mov	r1, r5
   d79e8:	4630      	mov	r0, r6
   d79ea:	f002 fa2e 	bl	d9e4a <_ZN6StringaSEPKc>
    withEventName(eventName);
   d79ee:	4629      	mov	r1, r5
   d79f0:	4620      	mov	r0, r4
   d79f2:	f7ff ffc3 	bl	d797c <_ZN24CloudConfigUpdateWebhook13withEventNameEPKc>
}
   d79f6:	4620      	mov	r0, r4
   d79f8:	bd70      	pop	{r4, r5, r6, pc}
   d79fa:	bf00      	nop
   d79fc:	000de2b4 	.word	0x000de2b4
   d7a00:	000de518 	.word	0x000de518
   d7a04:	000de298 	.word	0x000de298

000d7a08 <_ZNKSt8functionIFvvEEclEv>:
      if (_M_empty())
   d7a08:	6882      	ldr	r2, [r0, #8]
    function<_Res(_ArgTypes...)>::
   d7a0a:	b510      	push	{r4, lr}
      if (_M_empty())
   d7a0c:	b90a      	cbnz	r2, d7a12 <_ZNKSt8functionIFvvEEclEv+0xa>
	__throw_bad_function_call();
   d7a0e:	f002 ff40 	bl	da892 <_ZSt25__throw_bad_function_callv>
    }
   d7a12:	e8bd 4010 	ldmia.w	sp!, {r4, lr}
      return _M_invoker(_M_functor, std::forward<_ArgTypes>(__args)...);
   d7a16:	68c3      	ldr	r3, [r0, #12]
   d7a18:	4718      	bx	r3
	...

000d7a1c <_ZN11CloudConfig10updateDataEPKc>:
bool CloudConfig::updateData(const char *json) {
   d7a1c:	b538      	push	{r3, r4, r5, lr}
   d7a1e:	4604      	mov	r4, r0
    Log.info("updateData called %s", json);
   d7a20:	460a      	mov	r2, r1
   d7a22:	480a      	ldr	r0, [pc, #40]	; (d7a4c <_ZN11CloudConfig10updateDataEPKc+0x30>)
bool CloudConfig::updateData(const char *json) {
   d7a24:	460d      	mov	r5, r1
    Log.info("updateData called %s", json);
   d7a26:	490a      	ldr	r1, [pc, #40]	; (d7a50 <_ZN11CloudConfig10updateDataEPKc+0x34>)
   d7a28:	f7fc fcf6 	bl	d4418 <_ZNK5spark6Logger4infoEPKcz>
    if (storageMethod) {
   d7a2c:	6860      	ldr	r0, [r4, #4]
    updateDataStatus = UpdateDataStatus::SUCCESS;
   d7a2e:	2302      	movs	r3, #2
   d7a30:	6223      	str	r3, [r4, #32]
    if (storageMethod) {
   d7a32:	b148      	cbz	r0, d7a48 <_ZN11CloudConfig10updateDataEPKc+0x2c>
        storageMethod->updateData(json);
   d7a34:	6803      	ldr	r3, [r0, #0]
   d7a36:	4629      	mov	r1, r5
   d7a38:	695b      	ldr	r3, [r3, #20]
   d7a3a:	4798      	blx	r3
        if (dataCallback) {
   d7a3c:	6963      	ldr	r3, [r4, #20]
   d7a3e:	b11b      	cbz	r3, d7a48 <_ZN11CloudConfig10updateDataEPKc+0x2c>
            dataCallback();
   d7a40:	f104 000c 	add.w	r0, r4, #12
   d7a44:	f7ff ffe0 	bl	d7a08 <_ZNKSt8functionIFvvEEclEv>
}
   d7a48:	2001      	movs	r0, #1
   d7a4a:	bd38      	pop	{r3, r4, r5, pc}
   d7a4c:	2003e61c 	.word	0x2003e61c
   d7a50:	000de169 	.word	0x000de169

000d7a54 <_ZN24CloudConfigUpdateWebhook11startUpdateEv>:

void CloudConfigUpdateWebhook::startUpdate() {
   d7a54:	b51f      	push	{r0, r1, r2, r3, r4, lr}
   d7a56:	4604      	mov	r4, r0
    Log.info("CloudConfigUpdateWebhook::startUpdate %s", requestEventName.c_str());
   d7a58:	69c2      	ldr	r2, [r0, #28]
   d7a5a:	4909      	ldr	r1, [pc, #36]	; (d7a80 <_ZN24CloudConfigUpdateWebhook11startUpdateEv+0x2c>)
   d7a5c:	4809      	ldr	r0, [pc, #36]	; (d7a84 <_ZN24CloudConfigUpdateWebhook11startUpdateEv+0x30>)
   d7a5e:	f7fc fcdb 	bl	d4418 <_ZNK5spark6Logger4infoEPKcz>
inline particle::Flags<TagT, ValueT>::Flags(ValueT val) :
   d7a62:	4b09      	ldr	r3, [pc, #36]	; (d7a88 <_ZN24CloudConfigUpdateWebhook11startUpdateEv+0x34>)
   d7a64:	4a09      	ldr	r2, [pc, #36]	; (d7a8c <_ZN24CloudConfigUpdateWebhook11startUpdateEv+0x38>)
   d7a66:	781b      	ldrb	r3, [r3, #0]
   d7a68:	69e1      	ldr	r1, [r4, #28]
   d7a6a:	f88d 3000 	strb.w	r3, [sp]
   d7a6e:	a802      	add	r0, sp, #8
   d7a70:	233c      	movs	r3, #60	; 0x3c
   d7a72:	f001 fa21 	bl	d8eb8 <_ZN10CloudClass13publish_eventEPKcS1_iN8particle5FlagsI15PublishFlagTypehEE>
      ~__shared_ptr() = default;
   d7a76:	a803      	add	r0, sp, #12
   d7a78:	f7fd fd9c 	bl	d55b4 <_ZNSt14__shared_countILN9__gnu_cxx12_Lock_policyE0EED1Ev>

    Particle.publish(requestEventName, "");
}
   d7a7c:	b004      	add	sp, #16
   d7a7e:	bd10      	pop	{r4, pc}
   d7a80:	000de17e 	.word	0x000de17e
   d7a84:	2003e61c 	.word	0x2003e61c
   d7a88:	2003e5d0 	.word	0x2003e5d0
   d7a8c:	000de518 	.word	0x000de518

000d7a90 <_ZNSt8functionIFvPKcS1_EEC1ERKS3_>:
    function<_Res(_ArgTypes...)>::
   d7a90:	b538      	push	{r3, r4, r5, lr}
    _Function_base() : _M_manager(nullptr) { }
   d7a92:	2300      	movs	r3, #0
   d7a94:	6083      	str	r3, [r0, #8]
      { return !_M_empty(); }
   d7a96:	688b      	ldr	r3, [r1, #8]
    function<_Res(_ArgTypes...)>::
   d7a98:	4604      	mov	r4, r0
   d7a9a:	460d      	mov	r5, r1
      if (static_cast<bool>(__x))
   d7a9c:	b12b      	cbz	r3, d7aaa <_ZNSt8functionIFvPKcS1_EEC1ERKS3_+0x1a>
	  __x._M_manager(_M_functor, __x._M_functor, __clone_functor);
   d7a9e:	2202      	movs	r2, #2
   d7aa0:	4798      	blx	r3
	  _M_invoker = __x._M_invoker;
   d7aa2:	68eb      	ldr	r3, [r5, #12]
   d7aa4:	60e3      	str	r3, [r4, #12]
	  _M_manager = __x._M_manager;
   d7aa6:	68ab      	ldr	r3, [r5, #8]
   d7aa8:	60a3      	str	r3, [r4, #8]
    }
   d7aaa:	4620      	mov	r0, r4
   d7aac:	bd38      	pop	{r3, r4, r5, pc}
	...

000d7ab0 <_ZN29CloudConfigUpdateSubscription5setupEv>:
void CloudConfigUpdateSubscription::setup() {
   d7ab0:	b570      	push	{r4, r5, r6, lr}
   d7ab2:	b08a      	sub	sp, #40	; 0x28
        operator const char*() const { return c_str(); }
   d7ab4:	68c6      	ldr	r6, [r0, #12]
   d7ab6:	4604      	mov	r4, r0
    _Function_base() : _M_manager(nullptr) { }
   d7ab8:	2500      	movs	r5, #0
	{ __functor._M_access<_Functor*>() = new _Functor(std::move(__f)); }
   d7aba:	200c      	movs	r0, #12
    _Function_base() : _M_manager(nullptr) { }
   d7abc:	9504      	str	r5, [sp, #16]
	{ __functor._M_access<_Functor*>() = new _Functor(std::move(__f)); }
   d7abe:	f7fc faea 	bl	d4096 <_Znwj>
   d7ac2:	b118      	cbz	r0, d7acc <_ZN29CloudConfigUpdateSubscription5setupEv+0x1c>
	{ }

      _Bind(const _Bind&) = default;

      _Bind(_Bind&& __b)
      : _M_f(std::move(__b._M_f)), _M_bound_args(std::move(__b._M_bound_args))
   d7ac4:	4b13      	ldr	r3, [pc, #76]	; (d7b14 <_ZN29CloudConfigUpdateSubscription5setupEv+0x64>)
      constexpr _Head_base(const _Head_base&) = default;
      constexpr _Head_base(_Head_base&&) = default;

      template<typename _UHead>
        constexpr _Head_base(_UHead&& __h)
	: _M_head_impl(std::forward<_UHead>(__h)) { }
   d7ac6:	6084      	str	r4, [r0, #8]
   d7ac8:	e9c0 3500 	strd	r3, r5, [r0]
	    _M_invoker = &_My_handler::_M_invoke;
   d7acc:	4b12      	ldr	r3, [pc, #72]	; (d7b18 <_ZN29CloudConfigUpdateSubscription5setupEv+0x68>)
	{ __functor._M_access<_Functor*>() = new _Functor(std::move(__f)); }
   d7ace:	9002      	str	r0, [sp, #8]
	    _M_invoker = &_My_handler::_M_invoke;
   d7ad0:	9305      	str	r3, [sp, #20]
        return subscribe_wiring(eventName, handler, scope);
   d7ad2:	a902      	add	r1, sp, #8
	    _M_manager = &_My_handler::_M_manager;
   d7ad4:	4b11      	ldr	r3, [pc, #68]	; (d7b1c <_ZN29CloudConfigUpdateSubscription5setupEv+0x6c>)
   d7ad6:	9304      	str	r3, [sp, #16]
   d7ad8:	a806      	add	r0, sp, #24
   d7ada:	f7ff ffd9 	bl	d7a90 <_ZNSt8functionIFvPKcS1_EEC1ERKS3_>
    }

    bool subscribe_wiring(const char *eventName, wiring_event_handler_t handler, Spark_Subscription_Scope_TypeDef scope, const char *deviceID = NULL)
    {
        bool success = false;
        if (handler) // if the call-wrapper has wrapped a callable object
   d7ade:	9b08      	ldr	r3, [sp, #32]
   d7ae0:	b183      	cbz	r3, d7b04 <_ZN29CloudConfigUpdateSubscription5setupEv+0x54>
        {
            auto wrapper = new wiring_event_handler_t(handler);
   d7ae2:	2010      	movs	r0, #16
   d7ae4:	f7fc fad7 	bl	d4096 <_Znwj>
   d7ae8:	4604      	mov	r4, r0
   d7aea:	b158      	cbz	r0, d7b04 <_ZN29CloudConfigUpdateSubscription5setupEv+0x54>
   d7aec:	a906      	add	r1, sp, #24
   d7aee:	f7ff ffcf 	bl	d7a90 <_ZNSt8functionIFvPKcS1_EEC1ERKS3_>
            if (wrapper) {
                success = spark_subscribe(eventName, (EventHandler)call_wiring_event_handler, wrapper, scope, deviceID, NULL);
   d7af2:	2300      	movs	r3, #0
   d7af4:	e9cd 3300 	strd	r3, r3, [sp]
   d7af8:	4909      	ldr	r1, [pc, #36]	; (d7b20 <_ZN29CloudConfigUpdateSubscription5setupEv+0x70>)
   d7afa:	2301      	movs	r3, #1
   d7afc:	4622      	mov	r2, r4
   d7afe:	4630      	mov	r0, r6
   d7b00:	f000 fefe 	bl	d8900 <spark_subscribe>
    class function<_Res(_ArgTypes...)>
   d7b04:	a806      	add	r0, sp, #24
   d7b06:	f7fc fc03 	bl	d4310 <_ZNSt14_Function_baseD1Ev>
   d7b0a:	a802      	add	r0, sp, #8
   d7b0c:	f7fc fc00 	bl	d4310 <_ZNSt14_Function_baseD1Ev>
}
   d7b10:	b00a      	add	sp, #40	; 0x28
   d7b12:	bd70      	pop	{r4, r5, r6, pc}
   d7b14:	000d793d 	.word	0x000d793d
   d7b18:	000d782f 	.word	0x000d782f
   d7b1c:	000d77f1 	.word	0x000d77f1
   d7b20:	000d8cb7 	.word	0x000d8cb7

000d7b24 <_ZNSt14__shared_countILN9__gnu_cxx12_Lock_policyE0EEC1ERKS2_>:
      : _M_pi(__r._M_pi)
   d7b24:	680b      	ldr	r3, [r1, #0]
   d7b26:	6003      	str	r3, [r0, #0]
	if (_M_pi != 0)
   d7b28:	b113      	cbz	r3, d7b30 <_ZNSt14__shared_countILN9__gnu_cxx12_Lock_policyE0EEC1ERKS2_+0xc>
    { ++_M_use_count; }
   d7b2a:	685a      	ldr	r2, [r3, #4]
   d7b2c:	3201      	adds	r2, #1
   d7b2e:	605a      	str	r2, [r3, #4]
      }
   d7b30:	4770      	bx	lr

000d7b32 <_ZN5spark18JSONObjectIteratorC1ERKNS_9JSONValueE>:
inline spark::JSONObjectIterator::JSONObjectIterator(const JSONValue &value) :
   d7b32:	b537      	push	{r0, r1, r2, r4, r5, lr}
        JSONObjectIterator(value.t_, value.d_) {
   d7b34:	688d      	ldr	r5, [r1, #8]
      __shared_ptr(const __shared_ptr&) noexcept = default;
   d7b36:	f851 3b04 	ldr.w	r3, [r1], #4
   d7b3a:	9300      	str	r3, [sp, #0]
inline spark::JSONObjectIterator::JSONObjectIterator(const JSONValue &value) :
   d7b3c:	4604      	mov	r4, r0
   d7b3e:	a801      	add	r0, sp, #4
   d7b40:	f7ff fff0 	bl	d7b24 <_ZNSt14__shared_countILN9__gnu_cxx12_Lock_policyE0EEC1ERKS2_>
        JSONObjectIterator(value.t_, value.d_) {
   d7b44:	466a      	mov	r2, sp
   d7b46:	4629      	mov	r1, r5
   d7b48:	4620      	mov	r0, r4
   d7b4a:	f001 fe71 	bl	d9830 <_ZN5spark18JSONObjectIteratorC1EPK9jsmntok_tSt10shared_ptrINS_6detail8JSONDataEE>
      ~__shared_ptr() = default;
   d7b4e:	a801      	add	r0, sp, #4
   d7b50:	f7fd fd30 	bl	d55b4 <_ZNSt14__shared_countILN9__gnu_cxx12_Lock_policyE0EED1Ev>
}
   d7b54:	4620      	mov	r0, r4
   d7b56:	b003      	add	sp, #12
   d7b58:	bd30      	pop	{r4, r5, pc}

000d7b5a <_ZN18CloudConfigStorage18getJSONValueForKeyEN5spark9JSONValueEPKc>:
JSONValue CloudConfigStorage::getJSONValueForKey(JSONValue parentObj, const char *key) {
   d7b5a:	b570      	push	{r4, r5, r6, lr}
   d7b5c:	b08c      	sub	sp, #48	; 0x30
   d7b5e:	4604      	mov	r4, r0
    JSONObjectIterator iter(parentObj);
   d7b60:	a806      	add	r0, sp, #24
JSONValue CloudConfigStorage::getJSONValueForKey(JSONValue parentObj, const char *key) {
   d7b62:	4616      	mov	r6, r2
    JSONObjectIterator iter(parentObj);
   d7b64:	f7ff ffe5 	bl	d7b32 <_ZN5spark18JSONObjectIteratorC1ERKNS_9JSONValueE>
    while(iter.next()) {
   d7b68:	a806      	add	r0, sp, #24
   d7b6a:	f001 fe79 	bl	d9860 <_ZN5spark18JSONObjectIterator4nextEv>
   d7b6e:	2800      	cmp	r0, #0
   d7b70:	d02d      	beq.n	d7bce <_ZN18CloudConfigStorage18getJSONValueForKeyEN5spark9JSONValueEPKc+0x74>
    return JSONString(k_, d_);
   d7b72:	9d09      	ldr	r5, [sp, #36]	; 0x24
      __shared_ptr(const __shared_ptr&) noexcept = default;
   d7b74:	9b06      	ldr	r3, [sp, #24]
   d7b76:	9300      	str	r3, [sp, #0]
   d7b78:	a907      	add	r1, sp, #28
   d7b7a:	a801      	add	r0, sp, #4
   d7b7c:	f7ff ffd2 	bl	d7b24 <_ZNSt14__shared_countILN9__gnu_cxx12_Lock_policyE0EEC1ERKS2_>
   d7b80:	4629      	mov	r1, r5
   d7b82:	466a      	mov	r2, sp
   d7b84:	a802      	add	r0, sp, #8
   d7b86:	f001 fe2f 	bl	d97e8 <_ZN5spark10JSONStringC1EPK9jsmntok_tSt10shared_ptrINS_6detail8JSONDataEE>
      ~__shared_ptr() = default;
   d7b8a:	a801      	add	r0, sp, #4
   d7b8c:	f7fd fd12 	bl	d55b4 <_ZNSt14__shared_countILN9__gnu_cxx12_Lock_policyE0EED1Ev>
        if (strcmp((const char *)iter.name(), key) == 0) {
   d7b90:	9804      	ldr	r0, [sp, #16]
   d7b92:	4631      	mov	r1, r6
   d7b94:	f003 fd40 	bl	db618 <strcmp>
   d7b98:	4605      	mov	r5, r0
   d7b9a:	a803      	add	r0, sp, #12
   d7b9c:	f7fd fd0a 	bl	d55b4 <_ZNSt14__shared_countILN9__gnu_cxx12_Lock_policyE0EED1Ev>
   d7ba0:	2d00      	cmp	r5, #0
   d7ba2:	d1e1      	bne.n	d7b68 <_ZN18CloudConfigStorage18getJSONValueForKeyEN5spark9JSONValueEPKc+0xe>
    return JSONValue(v_, d_);
   d7ba4:	9d0a      	ldr	r5, [sp, #40]	; 0x28
      __shared_ptr(const __shared_ptr&) noexcept = default;
   d7ba6:	9b06      	ldr	r3, [sp, #24]
   d7ba8:	9302      	str	r3, [sp, #8]
   d7baa:	a907      	add	r1, sp, #28
   d7bac:	a803      	add	r0, sp, #12
   d7bae:	f7ff ffb9 	bl	d7b24 <_ZNSt14__shared_countILN9__gnu_cxx12_Lock_policyE0EEC1ERKS2_>
   d7bb2:	aa02      	add	r2, sp, #8
   d7bb4:	4629      	mov	r1, r5
   d7bb6:	4620      	mov	r0, r4
   d7bb8:	f001 fd00 	bl	d95bc <_ZN5spark9JSONValueC1EPK9jsmntok_tSt10shared_ptrINS_6detail8JSONDataEE>
      ~__shared_ptr() = default;
   d7bbc:	a803      	add	r0, sp, #12
   d7bbe:	f7fd fcf9 	bl	d55b4 <_ZNSt14__shared_countILN9__gnu_cxx12_Lock_policyE0EED1Ev>
   d7bc2:	a807      	add	r0, sp, #28
   d7bc4:	f7fd fcf6 	bl	d55b4 <_ZNSt14__shared_countILN9__gnu_cxx12_Lock_policyE0EED1Ev>
}
   d7bc8:	4620      	mov	r0, r4
   d7bca:	b00c      	add	sp, #48	; 0x30
   d7bcc:	bd70      	pop	{r4, r5, r6, pc}
      constexpr __shared_count() noexcept : _M_pi(0)
   d7bce:	e9c4 0000 	strd	r0, r0, [r4]
        t_(nullptr) {
   d7bd2:	60a0      	str	r0, [r4, #8]
}
   d7bd4:	e7f5      	b.n	d7bc2 <_ZN18CloudConfigStorage18getJSONValueForKeyEN5spark9JSONValueEPKc+0x68>
	...

000d7bd8 <_ZNSt8functionIFvR11CloudConfigEEaSIMS0_FvvEEENSt9enable_ifIXsrNS3_9_CallableINSt5decayIT_E4typeESt15__invoke_resultIRSC_JS1_EEEE5valueERS3_E4typeEOSA_>:
	operator=(_Functor&& __f)
   d7bd8:	b510      	push	{r4, lr}
   d7bda:	e9d1 2300 	ldrd	r2, r3, [r1]
   d7bde:	b086      	sub	sp, #24
    _Function_base() : _M_manager(nullptr) { }
   d7be0:	2100      	movs	r1, #0
	operator=(_Functor&& __f)
   d7be2:	4604      	mov	r4, r0
    _Function_base() : _M_manager(nullptr) { }
   d7be4:	9104      	str	r1, [sp, #16]
	  { return __mp != nullptr; }
   d7be6:	b90a      	cbnz	r2, d7bec <_ZNSt8functionIFvR11CloudConfigEEaSIMS0_FvvEEENSt9enable_ifIXsrNS3_9_CallableINSt5decayIT_E4typeESt15__invoke_resultIRSC_JS1_EEEE5valueERS3_E4typeEOSA_+0x14>
   d7be8:	07d9      	lsls	r1, r3, #31
   d7bea:	d505      	bpl.n	d7bf8 <_ZNSt8functionIFvR11CloudConfigEEaSIMS0_FvvEEENSt9enable_ifIXsrNS3_9_CallableINSt5decayIT_E4typeESt15__invoke_resultIRSC_JS1_EEEE5valueERS3_E4typeEOSA_+0x20>
	{ ::new (__functor._M_access()) _Functor(std::move(__f)); }
   d7bec:	e9cd 2302 	strd	r2, r3, [sp, #8]
	    _M_invoker = &_My_handler::_M_invoke;
   d7bf0:	4b0f      	ldr	r3, [pc, #60]	; (d7c30 <_ZNSt8functionIFvR11CloudConfigEEaSIMS0_FvvEEENSt9enable_ifIXsrNS3_9_CallableINSt5decayIT_E4typeESt15__invoke_resultIRSC_JS1_EEEE5valueERS3_E4typeEOSA_+0x58>)
   d7bf2:	9305      	str	r3, [sp, #20]
	    _M_manager = &_My_handler::_M_manager;
   d7bf4:	4b0f      	ldr	r3, [pc, #60]	; (d7c34 <_ZNSt8functionIFvR11CloudConfigEEaSIMS0_FvvEEENSt9enable_ifIXsrNS3_9_CallableINSt5decayIT_E4typeESt15__invoke_resultIRSC_JS1_EEEE5valueERS3_E4typeEOSA_+0x5c>)
   d7bf6:	9304      	str	r3, [sp, #16]
      _Tp __tmp = _GLIBCXX_MOVE(__a);
   d7bf8:	ab02      	add	r3, sp, #8
   d7bfa:	e893 0003 	ldmia.w	r3, {r0, r1}
   d7bfe:	466a      	mov	r2, sp
   d7c00:	e882 0003 	stmia.w	r2, {r0, r1}
      __a = _GLIBCXX_MOVE(__b);
   d7c04:	e894 0003 	ldmia.w	r4, {r0, r1}
   d7c08:	e883 0003 	stmia.w	r3, {r0, r1}
      __b = _GLIBCXX_MOVE(__tmp);
   d7c0c:	e892 0003 	ldmia.w	r2, {r0, r1}
      _Tp __tmp = _GLIBCXX_MOVE(__a);
   d7c10:	9a04      	ldr	r2, [sp, #16]
      __b = _GLIBCXX_MOVE(__tmp);
   d7c12:	e884 0003 	stmia.w	r4, {r0, r1}
      __a = _GLIBCXX_MOVE(__b);
   d7c16:	68a1      	ldr	r1, [r4, #8]
      __b = _GLIBCXX_MOVE(__tmp);
   d7c18:	60a2      	str	r2, [r4, #8]
      _Tp __tmp = _GLIBCXX_MOVE(__a);
   d7c1a:	9a05      	ldr	r2, [sp, #20]
      __a = _GLIBCXX_MOVE(__b);
   d7c1c:	9104      	str	r1, [sp, #16]
    class function<_Res(_ArgTypes...)>
   d7c1e:	4618      	mov	r0, r3
   d7c20:	68e1      	ldr	r1, [r4, #12]
      __b = _GLIBCXX_MOVE(__tmp);
   d7c22:	60e2      	str	r2, [r4, #12]
      __a = _GLIBCXX_MOVE(__b);
   d7c24:	9105      	str	r1, [sp, #20]
   d7c26:	f7fc fb73 	bl	d4310 <_ZNSt14_Function_baseD1Ev>
	}
   d7c2a:	4620      	mov	r0, r4
   d7c2c:	b006      	add	sp, #24
   d7c2e:	bd10      	pop	{r4, pc}
   d7c30:	000d77d3 	.word	0x000d77d3
   d7c34:	000d7723 	.word	0x000d7723

000d7c38 <_ZN11CloudConfig5setupEv>:
void CloudConfig::setup() {
   d7c38:	b513      	push	{r0, r1, r4, lr}
   d7c3a:	4604      	mov	r4, r0
    if (!storageMethod) {
   d7c3c:	6840      	ldr	r0, [r0, #4]
   d7c3e:	b180      	cbz	r0, d7c62 <_ZN11CloudConfig5setupEv+0x2a>
    storageMethod->setup();
   d7c40:	6803      	ldr	r3, [r0, #0]
   d7c42:	689b      	ldr	r3, [r3, #8]
   d7c44:	4798      	blx	r3
    if (updateMethod) {
   d7c46:	68a0      	ldr	r0, [r4, #8]
   d7c48:	b158      	cbz	r0, d7c62 <_ZN11CloudConfig5setupEv+0x2a>
        updateMethod->setup();
   d7c4a:	6803      	ldr	r3, [r0, #0]
   d7c4c:	681b      	ldr	r3, [r3, #0]
   d7c4e:	4798      	blx	r3
        stateHandler = &CloudConfig::stateStart;
   d7c50:	4b05      	ldr	r3, [pc, #20]	; (d7c68 <_ZN11CloudConfig5setupEv+0x30>)
   d7c52:	9300      	str	r3, [sp, #0]
   d7c54:	4669      	mov	r1, sp
   d7c56:	2300      	movs	r3, #0
   d7c58:	f104 0024 	add.w	r0, r4, #36	; 0x24
   d7c5c:	9301      	str	r3, [sp, #4]
   d7c5e:	f7ff ffbb 	bl	d7bd8 <_ZNSt8functionIFvR11CloudConfigEEaSIMS0_FvvEEENSt9enable_ifIXsrNS3_9_CallableINSt5decayIT_E4typeESt15__invoke_resultIRSC_JS1_EEEE5valueERS3_E4typeEOSA_>
}
   d7c62:	b002      	add	sp, #8
   d7c64:	bd10      	pop	{r4, pc}
   d7c66:	bf00      	nop
   d7c68:	000d7c6d 	.word	0x000d7c6d

000d7c6c <_ZN11CloudConfig10stateStartEv>:
void CloudConfig::stateStart() {
   d7c6c:	b513      	push	{r0, r1, r4, lr}
   d7c6e:	4604      	mov	r4, r0
    if (storageMethod->hasJsonData() && dataCallback) {
   d7c70:	6840      	ldr	r0, [r0, #4]
   d7c72:	f7ff fe07 	bl	d7884 <_ZNK18CloudConfigStorage11hasJsonDataEv>
   d7c76:	b128      	cbz	r0, d7c84 <_ZN11CloudConfig10stateStartEv+0x18>
   d7c78:	6963      	ldr	r3, [r4, #20]
   d7c7a:	b11b      	cbz	r3, d7c84 <_ZN11CloudConfig10stateStartEv+0x18>
        dataCallback();
   d7c7c:	f104 000c 	add.w	r0, r4, #12
   d7c80:	f7ff fec2 	bl	d7a08 <_ZNKSt8functionIFvvEEclEv>
    stateHandler = &CloudConfig::stateWaitCloudConnected;
   d7c84:	4b05      	ldr	r3, [pc, #20]	; (d7c9c <_ZN11CloudConfig10stateStartEv+0x30>)
   d7c86:	9300      	str	r3, [sp, #0]
   d7c88:	4669      	mov	r1, sp
   d7c8a:	2300      	movs	r3, #0
   d7c8c:	f104 0024 	add.w	r0, r4, #36	; 0x24
   d7c90:	9301      	str	r3, [sp, #4]
   d7c92:	f7ff ffa1 	bl	d7bd8 <_ZNSt8functionIFvR11CloudConfigEEaSIMS0_FvvEEENSt9enable_ifIXsrNS3_9_CallableINSt5decayIT_E4typeESt15__invoke_resultIRSC_JS1_EEEE5valueERS3_E4typeEOSA_>
}
   d7c96:	b002      	add	sp, #8
   d7c98:	bd10      	pop	{r4, pc}
   d7c9a:	bf00      	nop
   d7c9c:	000d7ca1 	.word	0x000d7ca1

000d7ca0 <_ZN11CloudConfig23stateWaitCloudConnectedEv>:
void CloudConfig::stateWaitCloudConnected() {
   d7ca0:	b513      	push	{r0, r1, r4, lr}
   d7ca2:	4604      	mov	r4, r0
    static bool connected(void) { return spark_cloud_flag_connected(); }
   d7ca4:	f000 fe14 	bl	d88d0 <spark_cloud_flag_connected>
    if (!Particle.connected() || !Time.isValid()) {
   d7ca8:	b190      	cbz	r0, d7cd0 <_ZN11CloudConfig23stateWaitCloudConnectedEv+0x30>
   d7caa:	f002 fad9 	bl	da260 <_ZN9TimeClass7isValidEv>
   d7cae:	b178      	cbz	r0, d7cd0 <_ZN11CloudConfig23stateWaitCloudConnectedEv+0x30>
    Log.info("cloud connected");
   d7cb0:	4908      	ldr	r1, [pc, #32]	; (d7cd4 <_ZN11CloudConfig23stateWaitCloudConnectedEv+0x34>)
   d7cb2:	4809      	ldr	r0, [pc, #36]	; (d7cd8 <_ZN11CloudConfig23stateWaitCloudConnectedEv+0x38>)
   d7cb4:	f7fc fbb0 	bl	d4418 <_ZNK5spark6Logger4infoEPKcz>
    stateHandler = &CloudConfig::stateWaitAfterCloudConnected;
   d7cb8:	4b08      	ldr	r3, [pc, #32]	; (d7cdc <_ZN11CloudConfig23stateWaitCloudConnectedEv+0x3c>)
   d7cba:	9300      	str	r3, [sp, #0]
   d7cbc:	4669      	mov	r1, sp
   d7cbe:	2300      	movs	r3, #0
   d7cc0:	f104 0024 	add.w	r0, r4, #36	; 0x24
   d7cc4:	9301      	str	r3, [sp, #4]
   d7cc6:	f7ff ff87 	bl	d7bd8 <_ZNSt8functionIFvR11CloudConfigEEaSIMS0_FvvEEENSt9enable_ifIXsrNS3_9_CallableINSt5decayIT_E4typeESt15__invoke_resultIRSC_JS1_EEEE5valueERS3_E4typeEOSA_>
   d7cca:	f000 fc03 	bl	d84d4 <HAL_Timer_Get_Milli_Seconds>
    stateTime = millis();
   d7cce:	6360      	str	r0, [r4, #52]	; 0x34
}
   d7cd0:	b002      	add	sp, #8
   d7cd2:	bd10      	pop	{r4, pc}
   d7cd4:	000de1a7 	.word	0x000de1a7
   d7cd8:	2003e61c 	.word	0x2003e61c
   d7cdc:	000d7ce1 	.word	0x000d7ce1

000d7ce0 <_ZN11CloudConfig28stateWaitAfterCloudConnectedEv>:
void CloudConfig::stateWaitAfterCloudConnected() {
   d7ce0:	b537      	push	{r0, r1, r2, r4, r5, lr}
   d7ce2:	4604      	mov	r4, r0
   d7ce4:	f000 fbf6 	bl	d84d4 <HAL_Timer_Get_Milli_Seconds>
    if (millis() - stateTime < updateMethod->waitAfterCloudConnectedMs) {
   d7ce8:	6b63      	ldr	r3, [r4, #52]	; 0x34
   d7cea:	1ac0      	subs	r0, r0, r3
   d7cec:	68a3      	ldr	r3, [r4, #8]
   d7cee:	685b      	ldr	r3, [r3, #4]
   d7cf0:	4298      	cmp	r0, r3
   d7cf2:	d317      	bcc.n	d7d24 <_ZN11CloudConfig28stateWaitAfterCloudConnectedEv+0x44>
    if (!storageMethod->hasJsonData() || updateFrequency == UPDATE_AT_RESTART) {
   d7cf4:	6860      	ldr	r0, [r4, #4]
   d7cf6:	f7ff fdc5 	bl	d7884 <_ZNK18CloudConfigStorage11hasJsonDataEv>
   d7cfa:	f104 0524 	add.w	r5, r4, #36	; 0x24
   d7cfe:	b198      	cbz	r0, d7d28 <_ZN11CloudConfig28stateWaitAfterCloudConnectedEv+0x48>
   d7d00:	69e3      	ldr	r3, [r4, #28]
   d7d02:	3301      	adds	r3, #1
   d7d04:	d010      	beq.n	d7d28 <_ZN11CloudConfig28stateWaitAfterCloudConnectedEv+0x48>
        Log.info("wait for update");
   d7d06:	490b      	ldr	r1, [pc, #44]	; (d7d34 <_ZN11CloudConfig28stateWaitAfterCloudConnectedEv+0x54>)
   d7d08:	480b      	ldr	r0, [pc, #44]	; (d7d38 <_ZN11CloudConfig28stateWaitAfterCloudConnectedEv+0x58>)
   d7d0a:	f7fc fb85 	bl	d4418 <_ZNK5spark6Logger4infoEPKcz>
   d7d0e:	f000 fbe1 	bl	d84d4 <HAL_Timer_Get_Milli_Seconds>
        stateHandler = &CloudConfig::stateWaitToUpdate;
   d7d12:	4b0a      	ldr	r3, [pc, #40]	; (d7d3c <_ZN11CloudConfig28stateWaitAfterCloudConnectedEv+0x5c>)
        stateTime = millis();
   d7d14:	6360      	str	r0, [r4, #52]	; 0x34
        stateHandler = &CloudConfig::stateStartUpdate;
   d7d16:	9300      	str	r3, [sp, #0]
   d7d18:	4669      	mov	r1, sp
   d7d1a:	2300      	movs	r3, #0
   d7d1c:	4628      	mov	r0, r5
   d7d1e:	9301      	str	r3, [sp, #4]
   d7d20:	f7ff ff5a 	bl	d7bd8 <_ZNSt8functionIFvR11CloudConfigEEaSIMS0_FvvEEENSt9enable_ifIXsrNS3_9_CallableINSt5decayIT_E4typeESt15__invoke_resultIRSC_JS1_EEEE5valueERS3_E4typeEOSA_>
}
   d7d24:	b003      	add	sp, #12
   d7d26:	bd30      	pop	{r4, r5, pc}
        Log.info("no data or update at restart");
   d7d28:	4905      	ldr	r1, [pc, #20]	; (d7d40 <_ZN11CloudConfig28stateWaitAfterCloudConnectedEv+0x60>)
   d7d2a:	4803      	ldr	r0, [pc, #12]	; (d7d38 <_ZN11CloudConfig28stateWaitAfterCloudConnectedEv+0x58>)
   d7d2c:	f7fc fb74 	bl	d4418 <_ZNK5spark6Logger4infoEPKcz>
        stateHandler = &CloudConfig::stateStartUpdate;
   d7d30:	4b04      	ldr	r3, [pc, #16]	; (d7d44 <_ZN11CloudConfig28stateWaitAfterCloudConnectedEv+0x64>)
   d7d32:	e7f0      	b.n	d7d16 <_ZN11CloudConfig28stateWaitAfterCloudConnectedEv+0x36>
   d7d34:	000de1b7 	.word	0x000de1b7
   d7d38:	2003e61c 	.word	0x2003e61c
   d7d3c:	000d7d49 	.word	0x000d7d49
   d7d40:	000de1c7 	.word	0x000de1c7
   d7d44:	000d7dad 	.word	0x000d7dad

000d7d48 <_ZN11CloudConfig17stateWaitToUpdateEv>:
void CloudConfig::stateWaitToUpdate() {
   d7d48:	b537      	push	{r0, r1, r2, r4, r5, lr}
   d7d4a:	4604      	mov	r4, r0
   d7d4c:	f000 fbc2 	bl	d84d4 <HAL_Timer_Get_Milli_Seconds>
    if (millis() - stateTime < 10000) {
   d7d50:	6b63      	ldr	r3, [r4, #52]	; 0x34
   d7d52:	1ac0      	subs	r0, r0, r3
   d7d54:	f242 730f 	movw	r3, #9999	; 0x270f
   d7d58:	4298      	cmp	r0, r3
   d7d5a:	d91e      	bls.n	d7d9a <_ZN11CloudConfig17stateWaitToUpdateEv+0x52>
    if (Time.isValid() && updateFrequency > 0) {
   d7d5c:	f002 fa80 	bl	da260 <_ZN9TimeClass7isValidEv>
   d7d60:	b1d8      	cbz	r0, d7d9a <_ZN11CloudConfig17stateWaitToUpdateEv+0x52>
   d7d62:	69e3      	ldr	r3, [r4, #28]
   d7d64:	2b00      	cmp	r3, #0
   d7d66:	dd18      	ble.n	d7d9a <_ZN11CloudConfig17stateWaitToUpdateEv+0x52>
        if (Time.now() - storageMethod->getDataHeader()->lastCheck > updateFrequency) {
   d7d68:	f002 fa97 	bl	da29a <_ZN9TimeClass3nowEv>
   d7d6c:	4605      	mov	r5, r0
   d7d6e:	6860      	ldr	r0, [r4, #4]
   d7d70:	6803      	ldr	r3, [r0, #0]
   d7d72:	681b      	ldr	r3, [r3, #0]
   d7d74:	4798      	blx	r3
   d7d76:	6880      	ldr	r0, [r0, #8]
   d7d78:	69e3      	ldr	r3, [r4, #28]
   d7d7a:	1a2d      	subs	r5, r5, r0
   d7d7c:	429d      	cmp	r5, r3
   d7d7e:	dd0c      	ble.n	d7d9a <_ZN11CloudConfig17stateWaitToUpdateEv+0x52>
            Log.info("checking for time update");
   d7d80:	4907      	ldr	r1, [pc, #28]	; (d7da0 <_ZN11CloudConfig17stateWaitToUpdateEv+0x58>)
   d7d82:	4808      	ldr	r0, [pc, #32]	; (d7da4 <_ZN11CloudConfig17stateWaitToUpdateEv+0x5c>)
   d7d84:	f7fc fb48 	bl	d4418 <_ZNK5spark6Logger4infoEPKcz>
            stateHandler = &CloudConfig::stateStartUpdate;
   d7d88:	4b07      	ldr	r3, [pc, #28]	; (d7da8 <_ZN11CloudConfig17stateWaitToUpdateEv+0x60>)
   d7d8a:	9300      	str	r3, [sp, #0]
   d7d8c:	4669      	mov	r1, sp
   d7d8e:	2300      	movs	r3, #0
   d7d90:	f104 0024 	add.w	r0, r4, #36	; 0x24
   d7d94:	9301      	str	r3, [sp, #4]
   d7d96:	f7ff ff1f 	bl	d7bd8 <_ZNSt8functionIFvR11CloudConfigEEaSIMS0_FvvEEENSt9enable_ifIXsrNS3_9_CallableINSt5decayIT_E4typeESt15__invoke_resultIRSC_JS1_EEEE5valueERS3_E4typeEOSA_>
}
   d7d9a:	b003      	add	sp, #12
   d7d9c:	bd30      	pop	{r4, r5, pc}
   d7d9e:	bf00      	nop
   d7da0:	000de1e4 	.word	0x000de1e4
   d7da4:	2003e61c 	.word	0x2003e61c
   d7da8:	000d7dad 	.word	0x000d7dad

000d7dac <_ZN11CloudConfig16stateStartUpdateEv>:
void CloudConfig::stateStartUpdate() {
   d7dac:	b537      	push	{r0, r1, r2, r4, r5, lr}
   d7dae:	4604      	mov	r4, r0
    Log.info("stateStartUpdate");
   d7db0:	490f      	ldr	r1, [pc, #60]	; (d7df0 <_ZN11CloudConfig16stateStartUpdateEv+0x44>)
   d7db2:	4810      	ldr	r0, [pc, #64]	; (d7df4 <_ZN11CloudConfig16stateStartUpdateEv+0x48>)
   d7db4:	f7fc fb30 	bl	d4418 <_ZNK5spark6Logger4infoEPKcz>
    storageMethod->getDataHeader()->lastCheck = Time.now();
   d7db8:	6860      	ldr	r0, [r4, #4]
   d7dba:	6803      	ldr	r3, [r0, #0]
   d7dbc:	681b      	ldr	r3, [r3, #0]
   d7dbe:	4798      	blx	r3
   d7dc0:	4605      	mov	r5, r0
   d7dc2:	f002 fa6a 	bl	da29a <_ZN9TimeClass3nowEv>
    updateDataStatus = UpdateDataStatus::IN_PROGRESS;
   d7dc6:	2301      	movs	r3, #1
    storageMethod->getDataHeader()->lastCheck = Time.now();
   d7dc8:	60a8      	str	r0, [r5, #8]
    updateDataStatus = UpdateDataStatus::IN_PROGRESS;
   d7dca:	6223      	str	r3, [r4, #32]
   d7dcc:	f000 fb82 	bl	d84d4 <HAL_Timer_Get_Milli_Seconds>
    stateHandler = &CloudConfig::stateWaitUpdateComplete;
   d7dd0:	4b09      	ldr	r3, [pc, #36]	; (d7df8 <_ZN11CloudConfig16stateStartUpdateEv+0x4c>)
    stateTime = millis();
   d7dd2:	6360      	str	r0, [r4, #52]	; 0x34
    stateHandler = &CloudConfig::stateWaitUpdateComplete;
   d7dd4:	9300      	str	r3, [sp, #0]
   d7dd6:	4669      	mov	r1, sp
   d7dd8:	2300      	movs	r3, #0
   d7dda:	f104 0024 	add.w	r0, r4, #36	; 0x24
   d7dde:	9301      	str	r3, [sp, #4]
   d7de0:	f7ff fefa 	bl	d7bd8 <_ZNSt8functionIFvR11CloudConfigEEaSIMS0_FvvEEENSt9enable_ifIXsrNS3_9_CallableINSt5decayIT_E4typeESt15__invoke_resultIRSC_JS1_EEEE5valueERS3_E4typeEOSA_>
    updateMethod->startUpdate();
   d7de4:	68a0      	ldr	r0, [r4, #8]
   d7de6:	6803      	ldr	r3, [r0, #0]
   d7de8:	689b      	ldr	r3, [r3, #8]
   d7dea:	4798      	blx	r3
}
   d7dec:	b003      	add	sp, #12
   d7dee:	bd30      	pop	{r4, r5, pc}
   d7df0:	000de1fd 	.word	0x000de1fd
   d7df4:	2003e61c 	.word	0x2003e61c
   d7df8:	000d7dfd 	.word	0x000d7dfd

000d7dfc <_ZN11CloudConfig23stateWaitUpdateCompleteEv>:
void CloudConfig::stateWaitUpdateComplete() {
   d7dfc:	b513      	push	{r0, r1, r4, lr}
    if (updateDataStatus == UpdateDataStatus::IN_PROGRESS) {
   d7dfe:	6a03      	ldr	r3, [r0, #32]
   d7e00:	2b01      	cmp	r3, #1
void CloudConfig::stateWaitUpdateComplete() {
   d7e02:	4604      	mov	r4, r0
    if (updateDataStatus == UpdateDataStatus::IN_PROGRESS) {
   d7e04:	d11b      	bne.n	d7e3e <_ZN11CloudConfig23stateWaitUpdateCompleteEv+0x42>
   d7e06:	f000 fb65 	bl	d84d4 <HAL_Timer_Get_Milli_Seconds>
        if (millis() - stateTime > updateMethod->updateTimeoutMs) {
   d7e0a:	6b63      	ldr	r3, [r4, #52]	; 0x34
   d7e0c:	1ac0      	subs	r0, r0, r3
   d7e0e:	68a3      	ldr	r3, [r4, #8]
   d7e10:	689b      	ldr	r3, [r3, #8]
   d7e12:	4298      	cmp	r0, r3
   d7e14:	d911      	bls.n	d7e3a <_ZN11CloudConfig23stateWaitUpdateCompleteEv+0x3e>
            Log.info("stateWaitUpdateComplete timeout");
   d7e16:	490c      	ldr	r1, [pc, #48]	; (d7e48 <_ZN11CloudConfig23stateWaitUpdateCompleteEv+0x4c>)
   d7e18:	480c      	ldr	r0, [pc, #48]	; (d7e4c <_ZN11CloudConfig23stateWaitUpdateCompleteEv+0x50>)
   d7e1a:	f7fc fafd 	bl	d4418 <_ZNK5spark6Logger4infoEPKcz>
            updateDataStatus = UpdateDataStatus::TIMEOUT;
   d7e1e:	2304      	movs	r3, #4
   d7e20:	6223      	str	r3, [r4, #32]
   d7e22:	f000 fb57 	bl	d84d4 <HAL_Timer_Get_Milli_Seconds>
    stateHandler = &CloudConfig::stateWaitToUpdate;
   d7e26:	4b0a      	ldr	r3, [pc, #40]	; (d7e50 <_ZN11CloudConfig23stateWaitUpdateCompleteEv+0x54>)
    stateTime = millis();
   d7e28:	6360      	str	r0, [r4, #52]	; 0x34
    stateHandler = &CloudConfig::stateWaitToUpdate;
   d7e2a:	9300      	str	r3, [sp, #0]
   d7e2c:	4669      	mov	r1, sp
   d7e2e:	2300      	movs	r3, #0
   d7e30:	f104 0024 	add.w	r0, r4, #36	; 0x24
   d7e34:	9301      	str	r3, [sp, #4]
   d7e36:	f7ff fecf 	bl	d7bd8 <_ZNSt8functionIFvR11CloudConfigEEaSIMS0_FvvEEENSt9enable_ifIXsrNS3_9_CallableINSt5decayIT_E4typeESt15__invoke_resultIRSC_JS1_EEEE5valueERS3_E4typeEOSA_>
}
   d7e3a:	b002      	add	sp, #8
   d7e3c:	bd10      	pop	{r4, pc}
    Log.info("stateWaitUpdateComplete complete");
   d7e3e:	4905      	ldr	r1, [pc, #20]	; (d7e54 <_ZN11CloudConfig23stateWaitUpdateCompleteEv+0x58>)
   d7e40:	4802      	ldr	r0, [pc, #8]	; (d7e4c <_ZN11CloudConfig23stateWaitUpdateCompleteEv+0x50>)
   d7e42:	f7fc fae9 	bl	d4418 <_ZNK5spark6Logger4infoEPKcz>
   d7e46:	e7ec      	b.n	d7e22 <_ZN11CloudConfig23stateWaitUpdateCompleteEv+0x26>
   d7e48:	000de20e 	.word	0x000de20e
   d7e4c:	2003e61c 	.word	0x2003e61c
   d7e50:	000d7d49 	.word	0x000d7d49
   d7e54:	000de22e 	.word	0x000de22e

000d7e58 <_GLOBAL__sub_I__ZN11CloudConfig9_instanceE>:
        val_(val) {
   d7e58:	4b01      	ldr	r3, [pc, #4]	; (d7e60 <_GLOBAL__sub_I__ZN11CloudConfig9_instanceE+0x8>)
   d7e5a:	2200      	movs	r2, #0
   d7e5c:	701a      	strb	r2, [r3, #0]
}
   d7e5e:	4770      	bx	lr
   d7e60:	2003e5d0 	.word	0x2003e5d0

000d7e64 <_ZN16DeviceNameHelper4saveEv>:
}


void DeviceNameHelper::save() {
    // Overridden by DeviceNameHelperEEPROM
}
   d7e64:	4770      	bx	lr

000d7e66 <_ZNSt17_Function_handlerIFvR16DeviceNameHelperEMS0_FvvEE10_M_managerERSt9_Any_dataRKS6_St18_Manager_operation>:
	switch (__op)
   d7e66:	2a01      	cmp	r2, #1
      _M_manager(_Any_data& __dest, const _Any_data& __source,
   d7e68:	4603      	mov	r3, r0
	switch (__op)
   d7e6a:	d102      	bne.n	d7e72 <_ZNSt17_Function_handlerIFvR16DeviceNameHelperEMS0_FvvEE10_M_managerERSt9_Any_dataRKS6_St18_Manager_operation+0xc>
	    __dest._M_access<_Functor*>() =
   d7e6c:	6001      	str	r1, [r0, #0]
      }
   d7e6e:	2000      	movs	r0, #0
   d7e70:	4770      	bx	lr
	  switch (__op)
   d7e72:	2a02      	cmp	r2, #2
	  ::new (__dest._M_access()) _Functor(__source._M_access<_Functor>());
   d7e74:	bf04      	itt	eq
   d7e76:	e9d1 0100 	ldrdeq	r0, r1, [r1]
   d7e7a:	e9c3 0100 	strdeq	r0, r1, [r3]
	}
   d7e7e:	e7f6      	b.n	d7e6e <_ZNSt17_Function_handlerIFvR16DeviceNameHelperEMS0_FvvEE10_M_managerERSt9_Any_dataRKS6_St18_Manager_operation+0x8>

000d7e80 <_ZN16DeviceNameHelper19subscriptionHandlerEPKcS1_>:
    }
}



void DeviceNameHelper::subscriptionHandler(const char *eventName, const char *eventData) {
   d7e80:	b513      	push	{r0, r1, r4, lr}
   d7e82:	4604      	mov	r4, r0

    if (strlen(eventData) < DEVICENAMEHELPER_MAX_NAME_LEN) {
   d7e84:	4610      	mov	r0, r2
   d7e86:	9201      	str	r2, [sp, #4]
   d7e88:	f003 fbf5 	bl	db676 <strlen>
   d7e8c:	6863      	ldr	r3, [r4, #4]
   d7e8e:	9901      	ldr	r1, [sp, #4]
   d7e90:	4602      	mov	r2, r0
   d7e92:	2a1e      	cmp	r2, #30
   d7e94:	f103 000c 	add.w	r0, r3, #12
   d7e98:	d806      	bhi.n	d7ea8 <_ZN16DeviceNameHelper19subscriptionHandlerEPKcS1_+0x28>
        // Fits
        strcpy(data->name, eventData);
   d7e9a:	f003 fbc7 	bl	db62c <strcpy>
    else {
        // Need to truncate
        strncpy(data->name, eventData, DEVICENAMEHELPER_MAX_NAME_LEN);
        data->name[DEVICENAMEHELPER_MAX_NAME_LEN] = 0;
    }
    gotResponse = true;
   d7e9e:	2301      	movs	r3, #1
   d7ea0:	f884 3035 	strb.w	r3, [r4, #53]	; 0x35
}
   d7ea4:	b002      	add	sp, #8
   d7ea6:	bd10      	pop	{r4, pc}
        strncpy(data->name, eventData, DEVICENAMEHELPER_MAX_NAME_LEN);
   d7ea8:	221f      	movs	r2, #31
   d7eaa:	f003 fbfe 	bl	db6aa <strncpy>
        data->name[DEVICENAMEHELPER_MAX_NAME_LEN] = 0;
   d7eae:	6863      	ldr	r3, [r4, #4]
   d7eb0:	2200      	movs	r2, #0
   d7eb2:	f883 202b 	strb.w	r2, [r3, #43]	; 0x2b
   d7eb6:	e7f2      	b.n	d7e9e <_ZN16DeviceNameHelper19subscriptionHandlerEPKcS1_+0x1e>

000d7eb8 <_ZNSt17_Function_handlerIFvR16DeviceNameHelperEMS0_FvvEE9_M_invokeERKSt9_Any_dataS1_>:
      _M_invoke(const _Any_data& __functor, _ArgTypes&&... __args)
   d7eb8:	b410      	push	{r4}
    { return (__invfwd<_Tp>(__t).*__f)(std::forward<_Args>(__args)...); }
   d7eba:	6842      	ldr	r2, [r0, #4]
   d7ebc:	4603      	mov	r3, r0
   d7ebe:	1054      	asrs	r4, r2, #1
   d7ec0:	eb01 0062 	add.w	r0, r1, r2, asr #1
   d7ec4:	07d2      	lsls	r2, r2, #31
   d7ec6:	bf48      	it	mi
   d7ec8:	590a      	ldrmi	r2, [r1, r4]
   d7eca:	681b      	ldr	r3, [r3, #0]
      }
   d7ecc:	f85d 4b04 	ldr.w	r4, [sp], #4
   d7ed0:	bf48      	it	mi
   d7ed2:	58d3      	ldrmi	r3, [r2, r3]
   d7ed4:	4718      	bx	r3

000d7ed6 <_ZNSt14_Function_base13_Base_managerISt5_BindIFM16DeviceNameHelperFvPKcS4_EPS2_St12_PlaceholderILi1EES8_ILi2EEEEE10_M_managerERSt9_Any_dataRKSE_St18_Manager_operation>:
	  switch (__op)
   d7ed6:	2a02      	cmp	r2, #2
	_M_manager(_Any_data& __dest, const _Any_data& __source,
   d7ed8:	b538      	push	{r3, r4, r5, lr}
   d7eda:	4604      	mov	r4, r0
	  switch (__op)
   d7edc:	d007      	beq.n	d7eee <_ZNSt14_Function_base13_Base_managerISt5_BindIFM16DeviceNameHelperFvPKcS4_EPS2_St12_PlaceholderILi1EES8_ILi2EEEEE10_M_managerERSt9_Any_dataRKSE_St18_Manager_operation+0x18>
   d7ede:	2a03      	cmp	r2, #3
   d7ee0:	d011      	beq.n	d7f06 <_ZNSt14_Function_base13_Base_managerISt5_BindIFM16DeviceNameHelperFvPKcS4_EPS2_St12_PlaceholderILi1EES8_ILi2EEEEE10_M_managerERSt9_Any_dataRKSE_St18_Manager_operation+0x30>
   d7ee2:	2a01      	cmp	r2, #1
   d7ee4:	d101      	bne.n	d7eea <_ZNSt14_Function_base13_Base_managerISt5_BindIFM16DeviceNameHelperFvPKcS4_EPS2_St12_PlaceholderILi1EES8_ILi2EEEEE10_M_managerERSt9_Any_dataRKSE_St18_Manager_operation+0x14>
	    return __source._M_access<_Functor*>();
   d7ee6:	680b      	ldr	r3, [r1, #0]
	  __dest._M_access<_Functor*>() =
   d7ee8:	6023      	str	r3, [r4, #0]
	}
   d7eea:	2000      	movs	r0, #0
   d7eec:	bd38      	pop	{r3, r4, r5, pc}
	    new _Functor(*__source._M_access<const _Functor*>());
   d7eee:	200c      	movs	r0, #12
	  __dest._M_access<_Functor*>() =
   d7ef0:	680d      	ldr	r5, [r1, #0]
	    new _Functor(*__source._M_access<const _Functor*>());
   d7ef2:	f7fc f8d0 	bl	d4096 <_Znwj>
   d7ef6:	4603      	mov	r3, r0
   d7ef8:	2800      	cmp	r0, #0
   d7efa:	d0f5      	beq.n	d7ee8 <_ZNSt14_Function_base13_Base_managerISt5_BindIFM16DeviceNameHelperFvPKcS4_EPS2_St12_PlaceholderILi1EES8_ILi2EEEEE10_M_managerERSt9_Any_dataRKSE_St18_Manager_operation+0x12>
   d7efc:	e895 0007 	ldmia.w	r5, {r0, r1, r2}
   d7f00:	e883 0007 	stmia.w	r3, {r0, r1, r2}
   d7f04:	e7f0      	b.n	d7ee8 <_ZNSt14_Function_base13_Base_managerISt5_BindIFM16DeviceNameHelperFvPKcS4_EPS2_St12_PlaceholderILi1EES8_ILi2EEEEE10_M_managerERSt9_Any_dataRKSE_St18_Manager_operation+0x12>
	  delete __victim._M_access<_Functor*>();
   d7f06:	6800      	ldr	r0, [r0, #0]
   d7f08:	2800      	cmp	r0, #0
   d7f0a:	d0ee      	beq.n	d7eea <_ZNSt14_Function_base13_Base_managerISt5_BindIFM16DeviceNameHelperFvPKcS4_EPS2_St12_PlaceholderILi1EES8_ILi2EEEEE10_M_managerERSt9_Any_dataRKSE_St18_Manager_operation+0x14>
   d7f0c:	210c      	movs	r1, #12
   d7f0e:	f002 fcba 	bl	da886 <_ZdlPvj>
   d7f12:	e7ea      	b.n	d7eea <_ZNSt14_Function_base13_Base_managerISt5_BindIFM16DeviceNameHelperFvPKcS4_EPS2_St12_PlaceholderILi1EES8_ILi2EEEEE10_M_managerERSt9_Any_dataRKSE_St18_Manager_operation+0x14>

000d7f14 <_ZNSt17_Function_handlerIFvPKcS1_ESt5_BindIFM16DeviceNameHelperFvS1_S1_EPS4_St12_PlaceholderILi1EES8_ILi2EEEEE9_M_invokeERKSt9_Any_dataOS1_SH_>:
      _M_invoke(const _Any_data& __functor, _ArgTypes&&... __args)
   d7f14:	b470      	push	{r4, r5, r6}
	    return __source._M_access<_Functor*>();
   d7f16:	6803      	ldr	r3, [r0, #0]
	  return std::__invoke(_M_f,
   d7f18:	6809      	ldr	r1, [r1, #0]
      return ((*std::forward<_Tp>(__t)).*__f)(std::forward<_Args>(__args)...);
   d7f1a:	685c      	ldr	r4, [r3, #4]
   d7f1c:	689d      	ldr	r5, [r3, #8]
   d7f1e:	681b      	ldr	r3, [r3, #0]
   d7f20:	6812      	ldr	r2, [r2, #0]
   d7f22:	1066      	asrs	r6, r4, #1
   d7f24:	eb05 0064 	add.w	r0, r5, r4, asr #1
   d7f28:	07e4      	lsls	r4, r4, #31
   d7f2a:	bf44      	itt	mi
   d7f2c:	59ac      	ldrmi	r4, [r5, r6]
   d7f2e:	58e3      	ldrmi	r3, [r4, r3]
      }
   d7f30:	bc70      	pop	{r4, r5, r6}
   d7f32:	4718      	bx	r3

000d7f34 <_ZN16DeviceNameHelperD1Ev>:
DeviceNameHelper::~DeviceNameHelper() {
   d7f34:	b510      	push	{r4, lr}
   d7f36:	4b06      	ldr	r3, [pc, #24]	; (d7f50 <_ZN16DeviceNameHelperD1Ev+0x1c>)
   d7f38:	4604      	mov	r4, r0
   d7f3a:	f840 3b20 	str.w	r3, [r0], #32
    class function<_Res(_ArgTypes...)>
   d7f3e:	f7fc f9e7 	bl	d4310 <_ZNSt14_Function_baseD1Ev>
   d7f42:	f104 0010 	add.w	r0, r4, #16
   d7f46:	f7fc f9e3 	bl	d4310 <_ZNSt14_Function_baseD1Ev>
}
   d7f4a:	4620      	mov	r0, r4
   d7f4c:	bd10      	pop	{r4, pc}
   d7f4e:	bf00      	nop
   d7f50:	000de2e8 	.word	0x000de2e8

000d7f54 <_ZN16DeviceNameHelperD0Ev>:
DeviceNameHelper::~DeviceNameHelper() {
   d7f54:	b510      	push	{r4, lr}
   d7f56:	4604      	mov	r4, r0
}
   d7f58:	f7ff ffec 	bl	d7f34 <_ZN16DeviceNameHelperD1Ev>
   d7f5c:	4620      	mov	r0, r4
   d7f5e:	2138      	movs	r1, #56	; 0x38
   d7f60:	f002 fc91 	bl	da886 <_ZdlPvj>
   d7f64:	4620      	mov	r0, r4
   d7f66:	bd10      	pop	{r4, pc}

000d7f68 <_ZN24DeviceNameHelperRetainedD1Ev>:

DeviceNameHelperRetained::DeviceNameHelperRetained() {

}

DeviceNameHelperRetained::~DeviceNameHelperRetained() {
   d7f68:	b510      	push	{r4, lr}
   d7f6a:	4b03      	ldr	r3, [pc, #12]	; (d7f78 <_ZN24DeviceNameHelperRetainedD1Ev+0x10>)
   d7f6c:	6003      	str	r3, [r0, #0]
   d7f6e:	4604      	mov	r4, r0
   d7f70:	f7ff ffe0 	bl	d7f34 <_ZN16DeviceNameHelperD1Ev>

}
   d7f74:	4620      	mov	r0, r4
   d7f76:	bd10      	pop	{r4, pc}
   d7f78:	000de2fc 	.word	0x000de2fc

000d7f7c <_ZN24DeviceNameHelperRetainedD0Ev>:
DeviceNameHelperRetained::~DeviceNameHelperRetained() {
   d7f7c:	b510      	push	{r4, lr}
   d7f7e:	4604      	mov	r4, r0
}
   d7f80:	f7ff fff2 	bl	d7f68 <_ZN24DeviceNameHelperRetainedD1Ev>
   d7f84:	4620      	mov	r0, r4
   d7f86:	2138      	movs	r1, #56	; 0x38
   d7f88:	f002 fc7d 	bl	da886 <_ZdlPvj>
   d7f8c:	4620      	mov	r0, r4
   d7f8e:	bd10      	pop	{r4, pc}

000d7f90 <_ZN16DeviceNameHelper4loopEv>:
    if (stateHandler) {
   d7f90:	6a83      	ldr	r3, [r0, #40]	; 0x28
void DeviceNameHelper::loop() {
   d7f92:	4601      	mov	r1, r0
    if (stateHandler) {
   d7f94:	b113      	cbz	r3, d7f9c <_ZN16DeviceNameHelper4loopEv+0xc>
      return _M_invoker(_M_functor, std::forward<_ArgTypes>(__args)...);
   d7f96:	6ac3      	ldr	r3, [r0, #44]	; 0x2c
   d7f98:	3020      	adds	r0, #32
   d7f9a:	4718      	bx	r3
}
   d7f9c:	4770      	bx	lr
	...

000d7fa0 <_ZN16DeviceNameHelperC1Ev>:
DeviceNameHelper::DeviceNameHelper() {
   d7fa0:	b530      	push	{r4, r5, lr}
   d7fa2:	4a07      	ldr	r2, [pc, #28]	; (d7fc0 <_ZN16DeviceNameHelperC1Ev+0x20>)
   d7fa4:	6002      	str	r2, [r0, #0]
   d7fa6:	2400      	movs	r4, #0
   d7fa8:	2200      	movs	r2, #0
   d7faa:	2500      	movs	r5, #0
   d7fac:	e9c0 4502 	strd	r4, r5, [r0, #8]
   d7fb0:	6042      	str	r2, [r0, #4]
    _Function_base() : _M_manager(nullptr) { }
   d7fb2:	6182      	str	r2, [r0, #24]
   d7fb4:	6282      	str	r2, [r0, #40]	; 0x28
   d7fb6:	6302      	str	r2, [r0, #48]	; 0x30
   d7fb8:	8682      	strh	r2, [r0, #52]	; 0x34
   d7fba:	f880 2036 	strb.w	r2, [r0, #54]	; 0x36
}
   d7fbe:	bd30      	pop	{r4, r5, pc}
   d7fc0:	000de2e8 	.word	0x000de2e8

000d7fc4 <_ZN24DeviceNameHelperRetainedC1Ev>:
DeviceNameHelperRetained::DeviceNameHelperRetained() {
   d7fc4:	b508      	push	{r3, lr}
   d7fc6:	4603      	mov	r3, r0
   d7fc8:	f7ff ffea 	bl	d7fa0 <_ZN16DeviceNameHelperC1Ev>
   d7fcc:	4a01      	ldr	r2, [pc, #4]	; (d7fd4 <_ZN24DeviceNameHelperRetainedC1Ev+0x10>)
   d7fce:	601a      	str	r2, [r3, #0]
}
   d7fd0:	4618      	mov	r0, r3
   d7fd2:	bd08      	pop	{r3, pc}
   d7fd4:	000de2fc 	.word	0x000de2fc

000d7fd8 <_ZN24DeviceNameHelperRetained8instanceEv>:
DeviceNameHelperRetained &DeviceNameHelperRetained::instance() {
   d7fd8:	b510      	push	{r4, lr}
    if (!_instance) {
   d7fda:	4c06      	ldr	r4, [pc, #24]	; (d7ff4 <_ZN24DeviceNameHelperRetained8instanceEv+0x1c>)
   d7fdc:	6823      	ldr	r3, [r4, #0]
   d7fde:	b93b      	cbnz	r3, d7ff0 <_ZN24DeviceNameHelperRetained8instanceEv+0x18>
        _instance = new DeviceNameHelperRetained();
   d7fe0:	2038      	movs	r0, #56	; 0x38
   d7fe2:	f7fc f858 	bl	d4096 <_Znwj>
   d7fe6:	4601      	mov	r1, r0
   d7fe8:	b108      	cbz	r0, d7fee <_ZN24DeviceNameHelperRetained8instanceEv+0x16>
   d7fea:	f7ff ffeb 	bl	d7fc4 <_ZN24DeviceNameHelperRetainedC1Ev>
   d7fee:	6021      	str	r1, [r4, #0]
}
   d7ff0:	6820      	ldr	r0, [r4, #0]
   d7ff2:	bd10      	pop	{r4, pc}
   d7ff4:	2003e5dc 	.word	0x2003e5dc

000d7ff8 <_ZNKSt8functionIFvPKcEEclES1_>:
    function<_Res(_ArgTypes...)>::
   d7ff8:	b507      	push	{r0, r1, r2, lr}
      if (_M_empty())
   d7ffa:	6882      	ldr	r2, [r0, #8]
    function<_Res(_ArgTypes...)>::
   d7ffc:	9101      	str	r1, [sp, #4]
      if (_M_empty())
   d7ffe:	b90a      	cbnz	r2, d8004 <_ZNKSt8functionIFvPKcEEclES1_+0xc>
	__throw_bad_function_call();
   d8000:	f002 fc47 	bl	da892 <_ZSt25__throw_bad_function_callv>
      return _M_invoker(_M_functor, std::forward<_ArgTypes>(__args)...);
   d8004:	68c3      	ldr	r3, [r0, #12]
   d8006:	a901      	add	r1, sp, #4
   d8008:	4798      	blx	r3
    }
   d800a:	b003      	add	sp, #12
   d800c:	f85d fb04 	ldr.w	pc, [sp], #4

000d8010 <_ZN16DeviceNameHelper16withNameCallbackESt8functionIFvPKcEE>:
DeviceNameHelper &DeviceNameHelper::withNameCallback(std::function<void(const char *)> nameCallback) {
   d8010:	b57f      	push	{r0, r1, r2, r3, r4, r5, r6, lr}
    _Function_base() : _M_manager(nullptr) { }
   d8012:	2300      	movs	r3, #0
   d8014:	9302      	str	r3, [sp, #8]
      { return !_M_empty(); }
   d8016:	688b      	ldr	r3, [r1, #8]
   d8018:	4604      	mov	r4, r0
   d801a:	460d      	mov	r5, r1
    this->nameCallback = nameCallback;
   d801c:	f100 0610 	add.w	r6, r0, #16
      if (static_cast<bool>(__x))
   d8020:	b133      	cbz	r3, d8030 <_ZN16DeviceNameHelper16withNameCallbackESt8functionIFvPKcEE+0x20>
	  __x._M_manager(_M_functor, __x._M_functor, __clone_functor);
   d8022:	2202      	movs	r2, #2
   d8024:	4668      	mov	r0, sp
   d8026:	4798      	blx	r3
	  _M_invoker = __x._M_invoker;
   d8028:	68eb      	ldr	r3, [r5, #12]
   d802a:	9303      	str	r3, [sp, #12]
	  _M_manager = __x._M_manager;
   d802c:	68ab      	ldr	r3, [r5, #8]
   d802e:	9302      	str	r3, [sp, #8]
	std::swap(_M_functor, __x._M_functor);
   d8030:	4631      	mov	r1, r6
   d8032:	4668      	mov	r0, sp
   d8034:	f7fd ff30 	bl	d5e98 <_ZSt4swapISt9_Any_dataENSt9enable_ifIXsrSt6__and_IJSt6__not_ISt15__is_tuple_likeIT_EESt21is_move_constructibleIS5_ESt18is_move_assignableIS5_EEE5valueEvE4typeERS5_SF_>
      _Tp __tmp = _GLIBCXX_MOVE(__a);
   d8038:	9b02      	ldr	r3, [sp, #8]
      __a = _GLIBCXX_MOVE(__b);
   d803a:	69a2      	ldr	r2, [r4, #24]
      __b = _GLIBCXX_MOVE(__tmp);
   d803c:	61a3      	str	r3, [r4, #24]
      _Tp __tmp = _GLIBCXX_MOVE(__a);
   d803e:	9b03      	ldr	r3, [sp, #12]
      __a = _GLIBCXX_MOVE(__b);
   d8040:	9202      	str	r2, [sp, #8]
    class function<_Res(_ArgTypes...)>
   d8042:	4668      	mov	r0, sp
   d8044:	69e2      	ldr	r2, [r4, #28]
      __b = _GLIBCXX_MOVE(__tmp);
   d8046:	61e3      	str	r3, [r4, #28]
      __a = _GLIBCXX_MOVE(__b);
   d8048:	9203      	str	r2, [sp, #12]
   d804a:	f7fc f961 	bl	d4310 <_ZNSt14_Function_baseD1Ev>
}
   d804e:	4620      	mov	r0, r4
   d8050:	b004      	add	sp, #16
   d8052:	bd70      	pop	{r4, r5, r6, pc}

000d8054 <_ZNSt8functionIFvR16DeviceNameHelperEEaSIMS0_FvvEEENSt9enable_ifIXsrNS3_9_CallableINSt5decayIT_E4typeESt15__invoke_resultIRSC_JS1_EEEE5valueERS3_E4typeEOSA_>:
	operator=(_Functor&& __f)
   d8054:	b51f      	push	{r0, r1, r2, r3, r4, lr}
   d8056:	e9d1 2300 	ldrd	r2, r3, [r1]
    _Function_base() : _M_manager(nullptr) { }
   d805a:	2100      	movs	r1, #0
	operator=(_Functor&& __f)
   d805c:	4604      	mov	r4, r0
    _Function_base() : _M_manager(nullptr) { }
   d805e:	9102      	str	r1, [sp, #8]
	  { return __mp != nullptr; }
   d8060:	b90a      	cbnz	r2, d8066 <_ZNSt8functionIFvR16DeviceNameHelperEEaSIMS0_FvvEEENSt9enable_ifIXsrNS3_9_CallableINSt5decayIT_E4typeESt15__invoke_resultIRSC_JS1_EEEE5valueERS3_E4typeEOSA_+0x12>
   d8062:	07d9      	lsls	r1, r3, #31
   d8064:	d505      	bpl.n	d8072 <_ZNSt8functionIFvR16DeviceNameHelperEEaSIMS0_FvvEEENSt9enable_ifIXsrNS3_9_CallableINSt5decayIT_E4typeESt15__invoke_resultIRSC_JS1_EEEE5valueERS3_E4typeEOSA_+0x1e>
	{ ::new (__functor._M_access()) _Functor(std::move(__f)); }
   d8066:	e9cd 2300 	strd	r2, r3, [sp]
	    _M_invoker = &_My_handler::_M_invoke;
   d806a:	4b0b      	ldr	r3, [pc, #44]	; (d8098 <_ZNSt8functionIFvR16DeviceNameHelperEEaSIMS0_FvvEEENSt9enable_ifIXsrNS3_9_CallableINSt5decayIT_E4typeESt15__invoke_resultIRSC_JS1_EEEE5valueERS3_E4typeEOSA_+0x44>)
   d806c:	9303      	str	r3, [sp, #12]
	    _M_manager = &_My_handler::_M_manager;
   d806e:	4b0b      	ldr	r3, [pc, #44]	; (d809c <_ZNSt8functionIFvR16DeviceNameHelperEEaSIMS0_FvvEEENSt9enable_ifIXsrNS3_9_CallableINSt5decayIT_E4typeESt15__invoke_resultIRSC_JS1_EEEE5valueERS3_E4typeEOSA_+0x48>)
   d8070:	9302      	str	r3, [sp, #8]
	std::swap(_M_functor, __x._M_functor);
   d8072:	4621      	mov	r1, r4
   d8074:	4668      	mov	r0, sp
   d8076:	f7fd ff0f 	bl	d5e98 <_ZSt4swapISt9_Any_dataENSt9enable_ifIXsrSt6__and_IJSt6__not_ISt15__is_tuple_likeIT_EESt21is_move_constructibleIS5_ESt18is_move_assignableIS5_EEE5valueEvE4typeERS5_SF_>
      _Tp __tmp = _GLIBCXX_MOVE(__a);
   d807a:	9b02      	ldr	r3, [sp, #8]
      __a = _GLIBCXX_MOVE(__b);
   d807c:	68a2      	ldr	r2, [r4, #8]
      __b = _GLIBCXX_MOVE(__tmp);
   d807e:	60a3      	str	r3, [r4, #8]
      _Tp __tmp = _GLIBCXX_MOVE(__a);
   d8080:	9b03      	ldr	r3, [sp, #12]
      __a = _GLIBCXX_MOVE(__b);
   d8082:	9202      	str	r2, [sp, #8]
    class function<_Res(_ArgTypes...)>
   d8084:	4668      	mov	r0, sp
   d8086:	68e2      	ldr	r2, [r4, #12]
      __b = _GLIBCXX_MOVE(__tmp);
   d8088:	60e3      	str	r3, [r4, #12]
      __a = _GLIBCXX_MOVE(__b);
   d808a:	9203      	str	r2, [sp, #12]
   d808c:	f7fc f940 	bl	d4310 <_ZNSt14_Function_baseD1Ev>
	}
   d8090:	4620      	mov	r0, r4
   d8092:	b004      	add	sp, #16
   d8094:	bd10      	pop	{r4, pc}
   d8096:	bf00      	nop
   d8098:	000d7eb9 	.word	0x000d7eb9
   d809c:	000d7e67 	.word	0x000d7e67

000d80a0 <_ZN16DeviceNameHelper11commonSetupEv>:
void DeviceNameHelper::commonSetup() {
   d80a0:	b573      	push	{r0, r1, r4, r5, r6, lr}
   d80a2:	4604      	mov	r4, r0
    if (data->magic != DATA_MAGIC || data->size != sizeof(DeviceNameHelperData)) {
   d80a4:	6840      	ldr	r0, [r0, #4]
   d80a6:	4d0d      	ldr	r5, [pc, #52]	; (d80dc <_ZN16DeviceNameHelper11commonSetupEv+0x3c>)
   d80a8:	6802      	ldr	r2, [r0, #0]
   d80aa:	42aa      	cmp	r2, r5
   d80ac:	d102      	bne.n	d80b4 <_ZN16DeviceNameHelper11commonSetupEv+0x14>
   d80ae:	7903      	ldrb	r3, [r0, #4]
   d80b0:	2b2c      	cmp	r3, #44	; 0x2c
   d80b2:	d008      	beq.n	d80c6 <_ZN16DeviceNameHelper11commonSetupEv+0x26>
        memset(data, 0, sizeof(DeviceNameHelperData));     
   d80b4:	262c      	movs	r6, #44	; 0x2c
   d80b6:	4632      	mov	r2, r6
   d80b8:	2100      	movs	r1, #0
   d80ba:	f003 fa81 	bl	db5c0 <memset>
        data->magic = DATA_MAGIC;
   d80be:	6863      	ldr	r3, [r4, #4]
   d80c0:	601d      	str	r5, [r3, #0]
        data->size = (uint8_t) sizeof(DeviceNameHelperData);
   d80c2:	6863      	ldr	r3, [r4, #4]
   d80c4:	711e      	strb	r6, [r3, #4]
    stateHandler = &DeviceNameHelper::stateStart;
   d80c6:	4b06      	ldr	r3, [pc, #24]	; (d80e0 <_ZN16DeviceNameHelper11commonSetupEv+0x40>)
   d80c8:	9300      	str	r3, [sp, #0]
   d80ca:	4669      	mov	r1, sp
   d80cc:	2300      	movs	r3, #0
   d80ce:	f104 0020 	add.w	r0, r4, #32
   d80d2:	9301      	str	r3, [sp, #4]
   d80d4:	f7ff ffbe 	bl	d8054 <_ZNSt8functionIFvR16DeviceNameHelperEEaSIMS0_FvvEEENSt9enable_ifIXsrNS3_9_CallableINSt5decayIT_E4typeESt15__invoke_resultIRSC_JS1_EEEE5valueERS3_E4typeEOSA_>
}
   d80d8:	b002      	add	sp, #8
   d80da:	bd70      	pop	{r4, r5, r6, pc}
   d80dc:	7787a2f2 	.word	0x7787a2f2
   d80e0:	000d80ed 	.word	0x000d80ed

000d80e4 <_ZN24DeviceNameHelperRetained5setupEP20DeviceNameHelperData>:
    this->data = retainedData;
   d80e4:	6041      	str	r1, [r0, #4]
    commonSetup();
   d80e6:	f7ff bfdb 	b.w	d80a0 <_ZN16DeviceNameHelper11commonSetupEv>
	...

000d80ec <_ZN16DeviceNameHelper10stateStartEv>:
void DeviceNameHelper::stateStart() {
   d80ec:	b537      	push	{r0, r1, r2, r4, r5, lr}
    if (data->name[0]) {
   d80ee:	6841      	ldr	r1, [r0, #4]
   d80f0:	7b0b      	ldrb	r3, [r1, #12]
void DeviceNameHelper::stateStart() {
   d80f2:	4604      	mov	r4, r0
   d80f4:	f100 0520 	add.w	r5, r0, #32
    if (data->name[0]) {
   d80f8:	b193      	cbz	r3, d8120 <_ZN16DeviceNameHelper10stateStartEv+0x34>
        if (nameCallback) {
   d80fa:	6983      	ldr	r3, [r0, #24]
   d80fc:	b11b      	cbz	r3, d8106 <_ZN16DeviceNameHelper10stateStartEv+0x1a>
            nameCallback(data->name);
   d80fe:	310c      	adds	r1, #12
   d8100:	3010      	adds	r0, #16
   d8102:	f7ff ff79 	bl	d7ff8 <_ZNKSt8functionIFvPKcEEclES1_>
        stateHandler = &DeviceNameHelper::stateWaitRecheck;
   d8106:	4b0a      	ldr	r3, [pc, #40]	; (d8130 <_ZN16DeviceNameHelper10stateStartEv+0x44>)
   d8108:	9300      	str	r3, [sp, #0]
   d810a:	4669      	mov	r1, sp
   d810c:	2300      	movs	r3, #0
   d810e:	4628      	mov	r0, r5
   d8110:	9301      	str	r3, [sp, #4]
   d8112:	f7ff ff9f 	bl	d8054 <_ZNSt8functionIFvR16DeviceNameHelperEEaSIMS0_FvvEEENSt9enable_ifIXsrNS3_9_CallableINSt5decayIT_E4typeESt15__invoke_resultIRSC_JS1_EEEE5valueERS3_E4typeEOSA_>
   d8116:	f000 f9dd 	bl	d84d4 <HAL_Timer_Get_Milli_Seconds>
        stateTime = millis();
   d811a:	6320      	str	r0, [r4, #48]	; 0x30
}
   d811c:	b003      	add	sp, #12
   d811e:	bd30      	pop	{r4, r5, pc}
    stateHandler = &DeviceNameHelper::stateSubscribe;
   d8120:	4a04      	ldr	r2, [pc, #16]	; (d8134 <_ZN16DeviceNameHelper10stateStartEv+0x48>)
   d8122:	4669      	mov	r1, sp
   d8124:	4628      	mov	r0, r5
   d8126:	e9cd 2300 	strd	r2, r3, [sp]
   d812a:	f7ff ff93 	bl	d8054 <_ZNSt8functionIFvR16DeviceNameHelperEEaSIMS0_FvvEEENSt9enable_ifIXsrNS3_9_CallableINSt5decayIT_E4typeESt15__invoke_resultIRSC_JS1_EEEE5valueERS3_E4typeEOSA_>
   d812e:	e7f5      	b.n	d811c <_ZN16DeviceNameHelper10stateStartEv+0x30>
   d8130:	000d8289 	.word	0x000d8289
   d8134:	000d8311 	.word	0x000d8311

000d8138 <_ZN16DeviceNameHelper18stateWaitConnectedEv>:
void DeviceNameHelper::stateWaitConnected() {
   d8138:	b513      	push	{r0, r1, r4, lr}
   d813a:	4604      	mov	r4, r0
   d813c:	f000 fbc8 	bl	d88d0 <spark_cloud_flag_connected>
    if (!Particle.connected() || !Time.isValid()) {
   d8140:	b170      	cbz	r0, d8160 <_ZN16DeviceNameHelper18stateWaitConnectedEv+0x28>
   d8142:	f002 f88d 	bl	da260 <_ZN9TimeClass7isValidEv>
   d8146:	b158      	cbz	r0, d8160 <_ZN16DeviceNameHelper18stateWaitConnectedEv+0x28>
    stateHandler = &DeviceNameHelper::stateWaitRequest;
   d8148:	4b06      	ldr	r3, [pc, #24]	; (d8164 <_ZN16DeviceNameHelper18stateWaitConnectedEv+0x2c>)
   d814a:	9300      	str	r3, [sp, #0]
   d814c:	4669      	mov	r1, sp
   d814e:	2300      	movs	r3, #0
   d8150:	f104 0020 	add.w	r0, r4, #32
   d8154:	9301      	str	r3, [sp, #4]
   d8156:	f7ff ff7d 	bl	d8054 <_ZNSt8functionIFvR16DeviceNameHelperEEaSIMS0_FvvEEENSt9enable_ifIXsrNS3_9_CallableINSt5decayIT_E4typeESt15__invoke_resultIRSC_JS1_EEEE5valueERS3_E4typeEOSA_>
   d815a:	f000 f9bb 	bl	d84d4 <HAL_Timer_Get_Milli_Seconds>
    stateTime = millis();
   d815e:	6320      	str	r0, [r4, #48]	; 0x30
}
   d8160:	b002      	add	sp, #8
   d8162:	bd10      	pop	{r4, pc}
   d8164:	000d8169 	.word	0x000d8169

000d8168 <_ZN16DeviceNameHelper16stateWaitRequestEv>:
void DeviceNameHelper::stateWaitRequest() {
   d8168:	b530      	push	{r4, r5, lr}
   d816a:	4605      	mov	r5, r0
   d816c:	b085      	sub	sp, #20
   d816e:	f000 f9b1 	bl	d84d4 <HAL_Timer_Get_Milli_Seconds>
    if (millis() - stateTime < POST_CONNECT_WAIT_MS) {
   d8172:	6b2b      	ldr	r3, [r5, #48]	; 0x30
   d8174:	1ac0      	subs	r0, r0, r3
   d8176:	f5b0 6ffa 	cmp.w	r0, #2000	; 0x7d0
   d817a:	d329      	bcc.n	d81d0 <_ZN16DeviceNameHelper16stateWaitRequestEv+0x68>
    gotResponse = false;
   d817c:	4b15      	ldr	r3, [pc, #84]	; (d81d4 <_ZN16DeviceNameHelper16stateWaitRequestEv+0x6c>)
        return publish_event(eventName, eventData, ttl, flags1 | flags2);
   d817e:	4916      	ldr	r1, [pc, #88]	; (d81d8 <_ZN16DeviceNameHelper16stateWaitRequestEv+0x70>)
   d8180:	781b      	ldrb	r3, [r3, #0]
   d8182:	f88d 3000 	strb.w	r3, [sp]
   d8186:	2200      	movs	r2, #0
   d8188:	f885 2035 	strb.w	r2, [r5, #53]	; 0x35
   d818c:	233c      	movs	r3, #60	; 0x3c
   d818e:	a802      	add	r0, sp, #8
   d8190:	f000 fe92 	bl	d8eb8 <_ZN10CloudClass13publish_eventEPKcS1_iN8particle5FlagsI15PublishFlagTypehEE>
	if (_M_pi != nullptr)
   d8194:	9c03      	ldr	r4, [sp, #12]
   d8196:	b17c      	cbz	r4, d81b8 <_ZN16DeviceNameHelper16stateWaitRequestEv+0x50>
      if (--_M_use_count == 0)
   d8198:	6863      	ldr	r3, [r4, #4]
   d819a:	3b01      	subs	r3, #1
   d819c:	6063      	str	r3, [r4, #4]
   d819e:	b95b      	cbnz	r3, d81b8 <_ZN16DeviceNameHelper16stateWaitRequestEv+0x50>
          _M_dispose();
   d81a0:	6823      	ldr	r3, [r4, #0]
   d81a2:	4620      	mov	r0, r4
   d81a4:	689b      	ldr	r3, [r3, #8]
   d81a6:	4798      	blx	r3
          if (--_M_weak_count == 0)
   d81a8:	68a3      	ldr	r3, [r4, #8]
   d81aa:	3b01      	subs	r3, #1
   d81ac:	60a3      	str	r3, [r4, #8]
   d81ae:	b91b      	cbnz	r3, d81b8 <_ZN16DeviceNameHelper16stateWaitRequestEv+0x50>
            _M_destroy();
   d81b0:	6823      	ldr	r3, [r4, #0]
   d81b2:	4620      	mov	r0, r4
   d81b4:	68db      	ldr	r3, [r3, #12]
   d81b6:	4798      	blx	r3
    stateHandler = &DeviceNameHelper::stateWaitResponse;
   d81b8:	4b08      	ldr	r3, [pc, #32]	; (d81dc <_ZN16DeviceNameHelper16stateWaitRequestEv+0x74>)
   d81ba:	9302      	str	r3, [sp, #8]
   d81bc:	a902      	add	r1, sp, #8
   d81be:	2300      	movs	r3, #0
   d81c0:	f105 0020 	add.w	r0, r5, #32
   d81c4:	9303      	str	r3, [sp, #12]
   d81c6:	f7ff ff45 	bl	d8054 <_ZNSt8functionIFvR16DeviceNameHelperEEaSIMS0_FvvEEENSt9enable_ifIXsrNS3_9_CallableINSt5decayIT_E4typeESt15__invoke_resultIRSC_JS1_EEEE5valueERS3_E4typeEOSA_>
   d81ca:	f000 f983 	bl	d84d4 <HAL_Timer_Get_Milli_Seconds>
    stateTime = millis();
   d81ce:	6328      	str	r0, [r5, #48]	; 0x30
}
   d81d0:	b005      	add	sp, #20
   d81d2:	bd30      	pop	{r4, r5, pc}
   d81d4:	2003e5d8 	.word	0x2003e5d8
   d81d8:	000de2c8 	.word	0x000de2c8
   d81dc:	000d81e1 	.word	0x000d81e1

000d81e0 <_ZN16DeviceNameHelper17stateWaitResponseEv>:
void DeviceNameHelper::stateWaitResponse() {
   d81e0:	b573      	push	{r0, r1, r4, r5, r6, lr}
    if (gotResponse) {
   d81e2:	f890 5035 	ldrb.w	r5, [r0, #53]	; 0x35
void DeviceNameHelper::stateWaitResponse() {
   d81e6:	4604      	mov	r4, r0
    if (gotResponse) {
   d81e8:	b31d      	cbz	r5, d8232 <_ZN16DeviceNameHelper17stateWaitResponseEv+0x52>
        if (data->name[0]) {
   d81ea:	6846      	ldr	r6, [r0, #4]
   d81ec:	7b33      	ldrb	r3, [r6, #12]
   d81ee:	f100 0520 	add.w	r5, r0, #32
   d81f2:	b1db      	cbz	r3, d822c <_ZN16DeviceNameHelper17stateWaitResponseEv+0x4c>
            data->lastCheck = Time.now();
   d81f4:	f002 f851 	bl	da29a <_ZN9TimeClass3nowEv>
   d81f8:	60b0      	str	r0, [r6, #8]
            save();
   d81fa:	6823      	ldr	r3, [r4, #0]
   d81fc:	4620      	mov	r0, r4
   d81fe:	689b      	ldr	r3, [r3, #8]
   d8200:	4798      	blx	r3
            if (nameCallback) {
   d8202:	69a3      	ldr	r3, [r4, #24]
   d8204:	b12b      	cbz	r3, d8212 <_ZN16DeviceNameHelper17stateWaitResponseEv+0x32>
                nameCallback(data->name);
   d8206:	6861      	ldr	r1, [r4, #4]
   d8208:	f104 0010 	add.w	r0, r4, #16
   d820c:	310c      	adds	r1, #12
   d820e:	f7ff fef3 	bl	d7ff8 <_ZNKSt8functionIFvPKcEEclES1_>
            stateHandler = &DeviceNameHelper::stateWaitRecheck;
   d8212:	4b0f      	ldr	r3, [pc, #60]	; (d8250 <_ZN16DeviceNameHelper17stateWaitResponseEv+0x70>)
   d8214:	9300      	str	r3, [sp, #0]
   d8216:	2300      	movs	r3, #0
            stateHandler = &DeviceNameHelper::stateWaitRetry;
   d8218:	9301      	str	r3, [sp, #4]
   d821a:	4669      	mov	r1, sp
   d821c:	4628      	mov	r0, r5
        stateHandler = &DeviceNameHelper::stateWaitRetry;
   d821e:	f7ff ff19 	bl	d8054 <_ZNSt8functionIFvR16DeviceNameHelperEEaSIMS0_FvvEEENSt9enable_ifIXsrNS3_9_CallableINSt5decayIT_E4typeESt15__invoke_resultIRSC_JS1_EEEE5valueERS3_E4typeEOSA_>
   d8222:	f000 f957 	bl	d84d4 <HAL_Timer_Get_Milli_Seconds>
        stateTime = millis();
   d8226:	6320      	str	r0, [r4, #48]	; 0x30
}
   d8228:	b002      	add	sp, #8
   d822a:	bd70      	pop	{r4, r5, r6, pc}
            stateHandler = &DeviceNameHelper::stateWaitRetry;
   d822c:	4a09      	ldr	r2, [pc, #36]	; (d8254 <_ZN16DeviceNameHelper17stateWaitResponseEv+0x74>)
   d822e:	9200      	str	r2, [sp, #0]
   d8230:	e7f2      	b.n	d8218 <_ZN16DeviceNameHelper17stateWaitResponseEv+0x38>
   d8232:	f000 f94f 	bl	d84d4 <HAL_Timer_Get_Milli_Seconds>
    if (millis() - stateTime >= RESPONSE_WAIT_MS) {
   d8236:	6b23      	ldr	r3, [r4, #48]	; 0x30
   d8238:	1ac0      	subs	r0, r0, r3
   d823a:	f643 2397 	movw	r3, #14999	; 0x3a97
   d823e:	4298      	cmp	r0, r3
   d8240:	d9f2      	bls.n	d8228 <_ZN16DeviceNameHelper17stateWaitResponseEv+0x48>
        stateHandler = &DeviceNameHelper::stateWaitRetry;
   d8242:	4b04      	ldr	r3, [pc, #16]	; (d8254 <_ZN16DeviceNameHelper17stateWaitResponseEv+0x74>)
   d8244:	4669      	mov	r1, sp
   d8246:	e9cd 3500 	strd	r3, r5, [sp]
   d824a:	f104 0020 	add.w	r0, r4, #32
   d824e:	e7e6      	b.n	d821e <_ZN16DeviceNameHelper17stateWaitResponseEv+0x3e>
   d8250:	000d8289 	.word	0x000d8289
   d8254:	000d8259 	.word	0x000d8259

000d8258 <_ZN16DeviceNameHelper14stateWaitRetryEv>:
void DeviceNameHelper::stateWaitRetry() {
   d8258:	b513      	push	{r0, r1, r4, lr}
   d825a:	4604      	mov	r4, r0
   d825c:	f000 f93a 	bl	d84d4 <HAL_Timer_Get_Milli_Seconds>
    if (millis() - stateTime >= RETRY_WAIT_MS) {
   d8260:	6b23      	ldr	r3, [r4, #48]	; 0x30
   d8262:	1ac0      	subs	r0, r0, r3
   d8264:	4b06      	ldr	r3, [pc, #24]	; (d8280 <_ZN16DeviceNameHelper14stateWaitRetryEv+0x28>)
   d8266:	4298      	cmp	r0, r3
   d8268:	d908      	bls.n	d827c <_ZN16DeviceNameHelper14stateWaitRetryEv+0x24>
        stateHandler = &DeviceNameHelper::stateWaitConnected;
   d826a:	4b06      	ldr	r3, [pc, #24]	; (d8284 <_ZN16DeviceNameHelper14stateWaitRetryEv+0x2c>)
   d826c:	9300      	str	r3, [sp, #0]
   d826e:	4669      	mov	r1, sp
   d8270:	2300      	movs	r3, #0
   d8272:	f104 0020 	add.w	r0, r4, #32
   d8276:	9301      	str	r3, [sp, #4]
   d8278:	f7ff feec 	bl	d8054 <_ZNSt8functionIFvR16DeviceNameHelperEEaSIMS0_FvvEEENSt9enable_ifIXsrNS3_9_CallableINSt5decayIT_E4typeESt15__invoke_resultIRSC_JS1_EEEE5valueERS3_E4typeEOSA_>
}
   d827c:	b002      	add	sp, #8
   d827e:	bd10      	pop	{r4, pc}
   d8280:	000493df 	.word	0x000493df
   d8284:	000d8139 	.word	0x000d8139

000d8288 <_ZN16DeviceNameHelper16stateWaitRecheckEv>:
void DeviceNameHelper::stateWaitRecheck() {
   d8288:	b5f7      	push	{r0, r1, r2, r4, r5, r6, r7, lr}
   d828a:	4604      	mov	r4, r0
   d828c:	f000 f922 	bl	d84d4 <HAL_Timer_Get_Milli_Seconds>
    if (millis() - stateTime < 10000) {
   d8290:	6b23      	ldr	r3, [r4, #48]	; 0x30
   d8292:	1ac0      	subs	r0, r0, r3
   d8294:	f242 730f 	movw	r3, #9999	; 0x270f
   d8298:	4298      	cmp	r0, r3
   d829a:	d91e      	bls.n	d82da <_ZN16DeviceNameHelper16stateWaitRecheckEv+0x52>
   d829c:	f000 f91a 	bl	d84d4 <HAL_Timer_Get_Milli_Seconds>
    if (forceCheck) {
   d82a0:	f894 5036 	ldrb.w	r5, [r4, #54]	; 0x36
    stateTime = millis();
   d82a4:	6320      	str	r0, [r4, #48]	; 0x30
    if (forceCheck) {
   d82a6:	b15d      	cbz	r5, d82c0 <_ZN16DeviceNameHelper16stateWaitRecheckEv+0x38>
        stateHandler = &DeviceNameHelper::stateSubscribe;
   d82a8:	4a18      	ldr	r2, [pc, #96]	; (d830c <_ZN16DeviceNameHelper16stateWaitRecheckEv+0x84>)
        forceCheck = false;
   d82aa:	2300      	movs	r3, #0
        stateHandler = &DeviceNameHelper::stateSubscribe;
   d82ac:	e9cd 2300 	strd	r2, r3, [sp]
        forceCheck = false;
   d82b0:	f884 3036 	strb.w	r3, [r4, #54]	; 0x36
        stateHandler = &DeviceNameHelper::stateSubscribe;
   d82b4:	4669      	mov	r1, sp
   d82b6:	f104 0020 	add.w	r0, r4, #32
   d82ba:	f7ff fecb 	bl	d8054 <_ZNSt8functionIFvR16DeviceNameHelperEEaSIMS0_FvvEEENSt9enable_ifIXsrNS3_9_CallableINSt5decayIT_E4typeESt15__invoke_resultIRSC_JS1_EEEE5valueERS3_E4typeEOSA_>
        return;
   d82be:	e00c      	b.n	d82da <_ZN16DeviceNameHelper16stateWaitRecheckEv+0x52>
    if (checkPeriod.count() == 0) {
   d82c0:	e9d4 2302 	ldrd	r2, r3, [r4, #8]
   d82c4:	4313      	orrs	r3, r2
   d82c6:	d10a      	bne.n	d82de <_ZN16DeviceNameHelper16stateWaitRecheckEv+0x56>
	if (_M_manager)
   d82c8:	6aa3      	ldr	r3, [r4, #40]	; 0x28
   d82ca:	b133      	cbz	r3, d82da <_ZN16DeviceNameHelper16stateWaitRecheckEv+0x52>
        stateHandler = 0;
   d82cc:	f104 0120 	add.w	r1, r4, #32
	    _M_manager(_M_functor, _M_functor, __destroy_functor);
   d82d0:	2203      	movs	r2, #3
   d82d2:	4608      	mov	r0, r1
   d82d4:	4798      	blx	r3
	    _M_invoker = nullptr;
   d82d6:	e9c4 550a 	strd	r5, r5, [r4, #40]	; 0x28
}
   d82da:	b003      	add	sp, #12
   d82dc:	bdf0      	pop	{r4, r5, r6, r7, pc}
    if (Time.isValid() && (data->lastCheck + checkPeriod.count()) < Time.now()) {
   d82de:	f001 ffbf 	bl	da260 <_ZN9TimeClass7isValidEv>
   d82e2:	2800      	cmp	r0, #0
   d82e4:	d0f9      	beq.n	d82da <_ZN16DeviceNameHelper16stateWaitRecheckEv+0x52>
   d82e6:	6863      	ldr	r3, [r4, #4]
   d82e8:	e9d4 6702 	ldrd	r6, r7, [r4, #8]
   d82ec:	689b      	ldr	r3, [r3, #8]
   d82ee:	18f6      	adds	r6, r6, r3
   d82f0:	eb47 77e3 	adc.w	r7, r7, r3, asr #31
   d82f4:	f001 ffd1 	bl	da29a <_ZN9TimeClass3nowEv>
   d82f8:	17c1      	asrs	r1, r0, #31
   d82fa:	4286      	cmp	r6, r0
   d82fc:	eb77 0301 	sbcs.w	r3, r7, r1
   d8300:	daeb      	bge.n	d82da <_ZN16DeviceNameHelper16stateWaitRecheckEv+0x52>
        stateHandler = &DeviceNameHelper::stateSubscribe;
   d8302:	4b02      	ldr	r3, [pc, #8]	; (d830c <_ZN16DeviceNameHelper16stateWaitRecheckEv+0x84>)
   d8304:	e9cd 3500 	strd	r3, r5, [sp]
   d8308:	e7d4      	b.n	d82b4 <_ZN16DeviceNameHelper16stateWaitRecheckEv+0x2c>
   d830a:	bf00      	nop
   d830c:	000d8311 	.word	0x000d8311

000d8310 <_ZN16DeviceNameHelper14stateSubscribeEv>:
void DeviceNameHelper::stateSubscribe() {
   d8310:	b530      	push	{r4, r5, lr}
    if (!hasSubscribed) {
   d8312:	f890 5034 	ldrb.w	r5, [r0, #52]	; 0x34
void DeviceNameHelper::stateSubscribe() {
   d8316:	b08b      	sub	sp, #44	; 0x2c
   d8318:	4604      	mov	r4, r0
    if (!hasSubscribed) {
   d831a:	bb6d      	cbnz	r5, d8378 <_ZN16DeviceNameHelper14stateSubscribeEv+0x68>
	{ __functor._M_access<_Functor*>() = new _Functor(std::move(__f)); }
   d831c:	200c      	movs	r0, #12
    _Function_base() : _M_manager(nullptr) { }
   d831e:	9504      	str	r5, [sp, #16]
	{ __functor._M_access<_Functor*>() = new _Functor(std::move(__f)); }
   d8320:	f7fb feb9 	bl	d4096 <_Znwj>
   d8324:	b118      	cbz	r0, d832e <_ZN16DeviceNameHelper14stateSubscribeEv+0x1e>
      : _M_f(std::move(__b._M_f)), _M_bound_args(std::move(__b._M_bound_args))
   d8326:	4b1a      	ldr	r3, [pc, #104]	; (d8390 <_ZN16DeviceNameHelper14stateSubscribeEv+0x80>)
   d8328:	6084      	str	r4, [r0, #8]
   d832a:	e9c0 3500 	strd	r3, r5, [r0]
	    _M_invoker = &_My_handler::_M_invoke;
   d832e:	4b19      	ldr	r3, [pc, #100]	; (d8394 <_ZN16DeviceNameHelper14stateSubscribeEv+0x84>)
	{ __functor._M_access<_Functor*>() = new _Functor(std::move(__f)); }
   d8330:	9002      	str	r0, [sp, #8]
	    _M_invoker = &_My_handler::_M_invoke;
   d8332:	9305      	str	r3, [sp, #20]
        return subscribe_wiring(eventName, handler, scope);
   d8334:	a902      	add	r1, sp, #8
	    _M_manager = &_My_handler::_M_manager;
   d8336:	4b18      	ldr	r3, [pc, #96]	; (d8398 <_ZN16DeviceNameHelper14stateSubscribeEv+0x88>)
   d8338:	9304      	str	r3, [sp, #16]
   d833a:	a806      	add	r0, sp, #24
   d833c:	f7ff fba8 	bl	d7a90 <_ZNSt8functionIFvPKcS1_EEC1ERKS3_>
        if (handler) // if the call-wrapper has wrapped a callable object
   d8340:	9b08      	ldr	r3, [sp, #32]
   d8342:	b183      	cbz	r3, d8366 <_ZN16DeviceNameHelper14stateSubscribeEv+0x56>
            auto wrapper = new wiring_event_handler_t(handler);
   d8344:	2010      	movs	r0, #16
   d8346:	f7fb fea6 	bl	d4096 <_Znwj>
   d834a:	4605      	mov	r5, r0
   d834c:	b158      	cbz	r0, d8366 <_ZN16DeviceNameHelper14stateSubscribeEv+0x56>
   d834e:	a906      	add	r1, sp, #24
   d8350:	f7ff fb9e 	bl	d7a90 <_ZNSt8functionIFvPKcS1_EEC1ERKS3_>
                success = spark_subscribe(eventName, (EventHandler)call_wiring_event_handler, wrapper, scope, deviceID, NULL);
   d8354:	2300      	movs	r3, #0
   d8356:	e9cd 3300 	strd	r3, r3, [sp]
   d835a:	4910      	ldr	r1, [pc, #64]	; (d839c <_ZN16DeviceNameHelper14stateSubscribeEv+0x8c>)
   d835c:	4810      	ldr	r0, [pc, #64]	; (d83a0 <_ZN16DeviceNameHelper14stateSubscribeEv+0x90>)
   d835e:	2301      	movs	r3, #1
   d8360:	462a      	mov	r2, r5
   d8362:	f000 facd 	bl	d8900 <spark_subscribe>
    class function<_Res(_ArgTypes...)>
   d8366:	a806      	add	r0, sp, #24
   d8368:	f7fb ffd2 	bl	d4310 <_ZNSt14_Function_baseD1Ev>
   d836c:	a802      	add	r0, sp, #8
   d836e:	f7fb ffcf 	bl	d4310 <_ZNSt14_Function_baseD1Ev>
        hasSubscribed = true;
   d8372:	2301      	movs	r3, #1
   d8374:	f884 3034 	strb.w	r3, [r4, #52]	; 0x34
    stateHandler = &DeviceNameHelper::stateWaitConnected;
   d8378:	4b0a      	ldr	r3, [pc, #40]	; (d83a4 <_ZN16DeviceNameHelper14stateSubscribeEv+0x94>)
   d837a:	9306      	str	r3, [sp, #24]
   d837c:	a906      	add	r1, sp, #24
   d837e:	2300      	movs	r3, #0
   d8380:	f104 0020 	add.w	r0, r4, #32
   d8384:	9307      	str	r3, [sp, #28]
   d8386:	f7ff fe65 	bl	d8054 <_ZNSt8functionIFvR16DeviceNameHelperEEaSIMS0_FvvEEENSt9enable_ifIXsrNS3_9_CallableINSt5decayIT_E4typeESt15__invoke_resultIRSC_JS1_EEEE5valueERS3_E4typeEOSA_>
}
   d838a:	b00b      	add	sp, #44	; 0x2c
   d838c:	bd30      	pop	{r4, r5, pc}
   d838e:	bf00      	nop
   d8390:	000d7e81 	.word	0x000d7e81
   d8394:	000d7f15 	.word	0x000d7f15
   d8398:	000d7ed7 	.word	0x000d7ed7
   d839c:	000d8cb7 	.word	0x000d8cb7
   d83a0:	000de2c8 	.word	0x000de2c8
   d83a4:	000d8139 	.word	0x000d8139

000d83a8 <_GLOBAL__sub_I__ZN16DeviceNameHelper9_instanceE>:
   d83a8:	4b01      	ldr	r3, [pc, #4]	; (d83b0 <_GLOBAL__sub_I__ZN16DeviceNameHelper9_instanceE+0x8>)
   d83aa:	2200      	movs	r2, #0
   d83ac:	701a      	strb	r2, [r3, #0]
    int fd = open(path, O_RDWR | O_CREAT);
    if (fd != -1) {
        write(fd, &fileData, sizeof(DeviceNameHelperData));
        close(fd);   
    }
}
   d83ae:	4770      	bx	lr
   d83b0:	2003e5d8 	.word	0x2003e5d8

000d83b4 <os_thread_create>:

DYNALIB_BEGIN(hal_concurrent)

#if PLATFORM_THREADING
DYNALIB_FN(0, hal_concurrent, __gthread_equal, bool(__gthread_t, __gthread_t))
DYNALIB_FN(1, hal_concurrent, os_thread_create, os_result_t(os_thread_t*, const char*, os_thread_prio_t, os_thread_fn_t, void*, size_t))
   d83b4:	b508      	push	{r3, lr}
   d83b6:	4b02      	ldr	r3, [pc, #8]	; (d83c0 <os_thread_create+0xc>)
   d83b8:	681b      	ldr	r3, [r3, #0]
   d83ba:	685b      	ldr	r3, [r3, #4]
   d83bc:	9301      	str	r3, [sp, #4]
   d83be:	bd08      	pop	{r3, pc}
   d83c0:	00030248 	.word	0x00030248

000d83c4 <os_thread_yield>:
DYNALIB_FN(2, hal_concurrent, os_thread_is_current, bool(os_thread_t))
DYNALIB_FN(3, hal_concurrent, os_thread_yield, os_result_t(void))
   d83c4:	b508      	push	{r3, lr}
   d83c6:	4b02      	ldr	r3, [pc, #8]	; (d83d0 <os_thread_yield+0xc>)
   d83c8:	681b      	ldr	r3, [r3, #0]
   d83ca:	68db      	ldr	r3, [r3, #12]
   d83cc:	9301      	str	r3, [sp, #4]
   d83ce:	bd08      	pop	{r3, pc}
   d83d0:	00030248 	.word	0x00030248

000d83d4 <os_thread_scheduling>:
DYNALIB_FN(4, hal_concurrent, os_thread_join, os_result_t(os_thread_t))
DYNALIB_FN(5, hal_concurrent, os_thread_cleanup, os_result_t(os_thread_t))
DYNALIB_FN(6, hal_concurrent, os_thread_delay_until, os_result_t(system_tick_t*, system_tick_t))
DYNALIB_FN(7, hal_concurrent, os_thread_scheduling, void(bool, void*))
   d83d4:	b508      	push	{r3, lr}
   d83d6:	4b02      	ldr	r3, [pc, #8]	; (d83e0 <os_thread_scheduling+0xc>)
   d83d8:	681b      	ldr	r3, [r3, #0]
   d83da:	69db      	ldr	r3, [r3, #28]
   d83dc:	9301      	str	r3, [sp, #4]
   d83de:	bd08      	pop	{r3, pc}
   d83e0:	00030248 	.word	0x00030248

000d83e4 <os_timer_create>:

DYNALIB_FN(8, hal_concurrent, os_timer_create, int(os_timer_t*, unsigned, void(*)(os_timer_t), void*, bool, void*))
   d83e4:	b508      	push	{r3, lr}
   d83e6:	4b02      	ldr	r3, [pc, #8]	; (d83f0 <os_timer_create+0xc>)
   d83e8:	681b      	ldr	r3, [r3, #0]
   d83ea:	6a1b      	ldr	r3, [r3, #32]
   d83ec:	9301      	str	r3, [sp, #4]
   d83ee:	bd08      	pop	{r3, pc}
   d83f0:	00030248 	.word	0x00030248

000d83f4 <os_timer_destroy>:
DYNALIB_FN(9, hal_concurrent, os_timer_destroy, int(os_timer_t, void*))
   d83f4:	b508      	push	{r3, lr}
   d83f6:	4b02      	ldr	r3, [pc, #8]	; (d8400 <os_timer_destroy+0xc>)
   d83f8:	681b      	ldr	r3, [r3, #0]
   d83fa:	6a5b      	ldr	r3, [r3, #36]	; 0x24
   d83fc:	9301      	str	r3, [sp, #4]
   d83fe:	bd08      	pop	{r3, pc}
   d8400:	00030248 	.word	0x00030248

000d8404 <os_timer_get_id>:
DYNALIB_FN(10, hal_concurrent, os_timer_get_id, int(os_timer_t, void**))
   d8404:	b508      	push	{r3, lr}
   d8406:	4b02      	ldr	r3, [pc, #8]	; (d8410 <os_timer_get_id+0xc>)
   d8408:	681b      	ldr	r3, [r3, #0]
   d840a:	6a9b      	ldr	r3, [r3, #40]	; 0x28
   d840c:	9301      	str	r3, [sp, #4]
   d840e:	bd08      	pop	{r3, pc}
   d8410:	00030248 	.word	0x00030248

000d8414 <os_timer_change>:
DYNALIB_FN(11, hal_concurrent, os_timer_change, int(os_timer_t, os_timer_change_t, bool, unsigned, unsigned, void*))
   d8414:	b508      	push	{r3, lr}
   d8416:	4b02      	ldr	r3, [pc, #8]	; (d8420 <os_timer_change+0xc>)
   d8418:	681b      	ldr	r3, [r3, #0]
   d841a:	6adb      	ldr	r3, [r3, #44]	; 0x2c
   d841c:	9301      	str	r3, [sp, #4]
   d841e:	bd08      	pop	{r3, pc}
   d8420:	00030248 	.word	0x00030248

000d8424 <os_mutex_create>:

DYNALIB_FN(12, hal_concurrent, os_mutex_create, int(os_mutex_t*))
   d8424:	b508      	push	{r3, lr}
   d8426:	4b02      	ldr	r3, [pc, #8]	; (d8430 <os_mutex_create+0xc>)
   d8428:	681b      	ldr	r3, [r3, #0]
   d842a:	6b1b      	ldr	r3, [r3, #48]	; 0x30
   d842c:	9301      	str	r3, [sp, #4]
   d842e:	bd08      	pop	{r3, pc}
   d8430:	00030248 	.word	0x00030248

000d8434 <os_mutex_lock>:
DYNALIB_FN(13, hal_concurrent, os_mutex_destroy, int(os_mutex_t))
DYNALIB_FN(14, hal_concurrent, os_mutex_lock, int(os_mutex_t))
   d8434:	b508      	push	{r3, lr}
   d8436:	4b02      	ldr	r3, [pc, #8]	; (d8440 <os_mutex_lock+0xc>)
   d8438:	681b      	ldr	r3, [r3, #0]
   d843a:	6b9b      	ldr	r3, [r3, #56]	; 0x38
   d843c:	9301      	str	r3, [sp, #4]
   d843e:	bd08      	pop	{r3, pc}
   d8440:	00030248 	.word	0x00030248

000d8444 <os_mutex_unlock>:
DYNALIB_FN(15, hal_concurrent, os_mutex_trylock, int(os_mutex_t))
DYNALIB_FN(16, hal_concurrent, os_mutex_unlock, int(os_mutex_t))
   d8444:	b508      	push	{r3, lr}
   d8446:	4b02      	ldr	r3, [pc, #8]	; (d8450 <os_mutex_unlock+0xc>)
   d8448:	681b      	ldr	r3, [r3, #0]
   d844a:	6c1b      	ldr	r3, [r3, #64]	; 0x40
   d844c:	9301      	str	r3, [sp, #4]
   d844e:	bd08      	pop	{r3, pc}
   d8450:	00030248 	.word	0x00030248

000d8454 <os_mutex_recursive_create>:

DYNALIB_FN(17, hal_concurrent, os_mutex_recursive_create, int(os_mutex_recursive_t*))
   d8454:	b508      	push	{r3, lr}
   d8456:	4b02      	ldr	r3, [pc, #8]	; (d8460 <os_mutex_recursive_create+0xc>)
   d8458:	681b      	ldr	r3, [r3, #0]
   d845a:	6c5b      	ldr	r3, [r3, #68]	; 0x44
   d845c:	9301      	str	r3, [sp, #4]
   d845e:	bd08      	pop	{r3, pc}
   d8460:	00030248 	.word	0x00030248

000d8464 <os_mutex_recursive_destroy>:
DYNALIB_FN(18, hal_concurrent, os_mutex_recursive_destroy, int(os_mutex_recursive_t))
   d8464:	b508      	push	{r3, lr}
   d8466:	4b02      	ldr	r3, [pc, #8]	; (d8470 <os_mutex_recursive_destroy+0xc>)
   d8468:	681b      	ldr	r3, [r3, #0]
   d846a:	6c9b      	ldr	r3, [r3, #72]	; 0x48
   d846c:	9301      	str	r3, [sp, #4]
   d846e:	bd08      	pop	{r3, pc}
   d8470:	00030248 	.word	0x00030248

000d8474 <os_thread_exit>:

DYNALIB_FN(23, hal_concurrent, os_queue_create, int(os_queue_t*, size_t, size_t, void*))
DYNALIB_FN(24, hal_concurrent, os_queue_destroy, int(os_queue_t, void*))
DYNALIB_FN(25, hal_concurrent, os_queue_put, int(os_queue_t, const void* item, system_tick_t, void*))
DYNALIB_FN(26, hal_concurrent, os_queue_take, int(os_queue_t, void* item, system_tick_t, void*))
DYNALIB_FN(27, hal_concurrent, os_thread_exit, os_result_t(os_thread_t))
   d8474:	b508      	push	{r3, lr}
   d8476:	4b02      	ldr	r3, [pc, #8]	; (d8480 <os_thread_exit+0xc>)
   d8478:	681b      	ldr	r3, [r3, #0]
   d847a:	6edb      	ldr	r3, [r3, #108]	; 0x6c
   d847c:	9301      	str	r3, [sp, #4]
   d847e:	bd08      	pop	{r3, pc}
   d8480:	00030248 	.word	0x00030248

000d8484 <os_timer_set_id>:

DYNALIB_FN(28, hal_concurrent, os_timer_set_id, int(os_timer_t, void*))
   d8484:	b508      	push	{r3, lr}
   d8486:	4b02      	ldr	r3, [pc, #8]	; (d8490 <os_timer_set_id+0xc>)
   d8488:	681b      	ldr	r3, [r3, #0]
   d848a:	6f1b      	ldr	r3, [r3, #112]	; 0x70
   d848c:	9301      	str	r3, [sp, #4]
   d848e:	bd08      	pop	{r3, pc}
   d8490:	00030248 	.word	0x00030248

000d8494 <HAL_Feature_Set>:
DYNALIB_FN(20, hal_core, HAL_Core_System_Reset_FlagSet, bool(RESET_TypeDef))
DYNALIB_FN(21, hal_core, HAL_Core_Runtime_Info, uint32_t(runtime_info_t*, void*))
DYNALIB_FN(22, hal_core, HAL_Set_System_Config, int(hal_system_config_t, const void*, unsigned))
DYNALIB_FN(23, hal_core, HAL_Core_Enter_Safe_Mode, void(void*))
DYNALIB_FN(24, hal_core, HAL_Feature_Get, bool(HAL_Feature))
DYNALIB_FN(25, hal_core, HAL_Feature_Set, int(HAL_Feature, bool))
   d8494:	b508      	push	{r3, lr}
   d8496:	4b02      	ldr	r3, [pc, #8]	; (d84a0 <HAL_Feature_Set+0xc>)
   d8498:	681b      	ldr	r3, [r3, #0]
   d849a:	6e5b      	ldr	r3, [r3, #100]	; 0x64
   d849c:	9301      	str	r3, [sp, #4]
   d849e:	bd08      	pop	{r3, pc}
   d84a0:	00030234 	.word	0x00030234

000d84a4 <HAL_RNG_GetRandomNumber>:

DYNALIB_BEGIN(hal)

#if PLATFORM_ID > 3
DYNALIB_FN(0, hal, HAL_RNG_Configuration, void(void))
DYNALIB_FN(1, hal, HAL_RNG_GetRandomNumber, uint32_t(void))
   d84a4:	b508      	push	{r3, lr}
   d84a6:	4b02      	ldr	r3, [pc, #8]	; (d84b0 <HAL_RNG_GetRandomNumber+0xc>)
   d84a8:	681b      	ldr	r3, [r3, #0]
   d84aa:	685b      	ldr	r3, [r3, #4]
   d84ac:	9301      	str	r3, [sp, #4]
   d84ae:	bd08      	pop	{r3, pc}
   d84b0:	00030218 	.word	0x00030218

000d84b4 <HAL_Delay_Milliseconds>:
#define BASE_IDX 2 // Base index for all subsequent functions
#else
#define BASE_IDX 0
#endif

DYNALIB_FN(BASE_IDX + 0, hal, HAL_Delay_Milliseconds, void(uint32_t))
   d84b4:	b508      	push	{r3, lr}
   d84b6:	4b02      	ldr	r3, [pc, #8]	; (d84c0 <HAL_Delay_Milliseconds+0xc>)
   d84b8:	681b      	ldr	r3, [r3, #0]
   d84ba:	689b      	ldr	r3, [r3, #8]
   d84bc:	9301      	str	r3, [sp, #4]
   d84be:	bd08      	pop	{r3, pc}
   d84c0:	00030218 	.word	0x00030218

000d84c4 <HAL_Delay_Microseconds>:
DYNALIB_FN(BASE_IDX + 1, hal, HAL_Delay_Microseconds, void(uint32_t))
   d84c4:	b508      	push	{r3, lr}
   d84c6:	4b02      	ldr	r3, [pc, #8]	; (d84d0 <HAL_Delay_Microseconds+0xc>)
   d84c8:	681b      	ldr	r3, [r3, #0]
   d84ca:	68db      	ldr	r3, [r3, #12]
   d84cc:	9301      	str	r3, [sp, #4]
   d84ce:	bd08      	pop	{r3, pc}
   d84d0:	00030218 	.word	0x00030218

000d84d4 <HAL_Timer_Get_Milli_Seconds>:
DYNALIB_FN(BASE_IDX + 2, hal, HAL_Timer_Get_Micro_Seconds, system_tick_t(void))
DYNALIB_FN(BASE_IDX + 3, hal, HAL_Timer_Get_Milli_Seconds, system_tick_t(void))
   d84d4:	b508      	push	{r3, lr}
   d84d6:	4b02      	ldr	r3, [pc, #8]	; (d84e0 <HAL_Timer_Get_Milli_Seconds+0xc>)
   d84d8:	681b      	ldr	r3, [r3, #0]
   d84da:	695b      	ldr	r3, [r3, #20]
   d84dc:	9301      	str	r3, [sp, #4]
   d84de:	bd08      	pop	{r3, pc}
   d84e0:	00030218 	.word	0x00030218

000d84e4 <hal_rtc_time_is_valid>:
DYNALIB_FN(BASE_IDX + 15, hal, HAL_EEPROM_Get, void(uint32_t, void *, size_t))
DYNALIB_FN(BASE_IDX + 16, hal, HAL_EEPROM_Put, void(uint32_t, const void *, size_t))
DYNALIB_FN(BASE_IDX + 17, hal, HAL_EEPROM_Clear, void(void))
DYNALIB_FN(BASE_IDX + 18, hal, HAL_EEPROM_Has_Pending_Erase, bool(void))
DYNALIB_FN(BASE_IDX + 19, hal, HAL_EEPROM_Perform_Pending_Erase, void(void))
DYNALIB_FN(BASE_IDX + 20, hal, hal_rtc_time_is_valid, bool(void*))
   d84e4:	b508      	push	{r3, lr}
   d84e6:	4b02      	ldr	r3, [pc, #8]	; (d84f0 <hal_rtc_time_is_valid+0xc>)
   d84e8:	681b      	ldr	r3, [r3, #0]
   d84ea:	6d9b      	ldr	r3, [r3, #88]	; 0x58
   d84ec:	9301      	str	r3, [sp, #4]
   d84ee:	bd08      	pop	{r3, pc}
   d84f0:	00030218 	.word	0x00030218

000d84f4 <hal_timer_millis>:

DYNALIB_FN(BASE_IDX + 21, hal, hal_timer_millis, uint64_t(void*))
   d84f4:	b508      	push	{r3, lr}
   d84f6:	4b02      	ldr	r3, [pc, #8]	; (d8500 <hal_timer_millis+0xc>)
   d84f8:	681b      	ldr	r3, [r3, #0]
   d84fa:	6ddb      	ldr	r3, [r3, #92]	; 0x5c
   d84fc:	9301      	str	r3, [sp, #4]
   d84fe:	bd08      	pop	{r3, pc}
   d8500:	00030218 	.word	0x00030218

000d8504 <hal_rtc_get_time>:
DYNALIB_FN(BASE_IDX + 22, hal, hal_timer_micros, uint64_t(void*))

DYNALIB_FN(BASE_IDX + 23, hal, hal_rtc_get_time, int(struct timeval*, void*))
   d8504:	b508      	push	{r3, lr}
   d8506:	4b02      	ldr	r3, [pc, #8]	; (d8510 <hal_rtc_get_time+0xc>)
   d8508:	681b      	ldr	r3, [r3, #0]
   d850a:	6e5b      	ldr	r3, [r3, #100]	; 0x64
   d850c:	9301      	str	r3, [sp, #4]
   d850e:	bd08      	pop	{r3, pc}
   d8510:	00030218 	.word	0x00030218

000d8514 <hal_rtc_set_time>:
DYNALIB_FN(BASE_IDX + 24, hal, hal_rtc_set_time, int(const struct timeval*, void*))
   d8514:	b508      	push	{r3, lr}
   d8516:	4b02      	ldr	r3, [pc, #8]	; (d8520 <hal_rtc_set_time+0xc>)
   d8518:	681b      	ldr	r3, [r3, #0]
   d851a:	6e9b      	ldr	r3, [r3, #104]	; 0x68
   d851c:	9301      	str	r3, [sp, #4]
   d851e:	bd08      	pop	{r3, pc}
   d8520:	00030218 	.word	0x00030218

000d8524 <HAL_Validate_Pin_Function>:
// GNINRAW

DYNALIB_BEGIN(hal_gpio)

DYNALIB_FN(0, hal_gpio, HAL_Pin_Map, Hal_Pin_Info*(void))
DYNALIB_FN(1, hal_gpio, HAL_Validate_Pin_Function, PinFunction(pin_t, PinFunction))
   d8524:	b508      	push	{r3, lr}
   d8526:	4b02      	ldr	r3, [pc, #8]	; (d8530 <HAL_Validate_Pin_Function+0xc>)
   d8528:	681b      	ldr	r3, [r3, #0]
   d852a:	685b      	ldr	r3, [r3, #4]
   d852c:	9301      	str	r3, [sp, #4]
   d852e:	bd08      	pop	{r3, pc}
   d8530:	0003022c 	.word	0x0003022c

000d8534 <HAL_Pin_Mode>:
DYNALIB_FN(2, hal_gpio, HAL_Pin_Mode, void(pin_t, PinMode))
   d8534:	b508      	push	{r3, lr}
   d8536:	4b02      	ldr	r3, [pc, #8]	; (d8540 <HAL_Pin_Mode+0xc>)
   d8538:	681b      	ldr	r3, [r3, #0]
   d853a:	689b      	ldr	r3, [r3, #8]
   d853c:	9301      	str	r3, [sp, #4]
   d853e:	bd08      	pop	{r3, pc}
   d8540:	0003022c 	.word	0x0003022c

000d8544 <HAL_Get_Pin_Mode>:
DYNALIB_FN(3, hal_gpio, HAL_Get_Pin_Mode, PinMode(pin_t))
   d8544:	b508      	push	{r3, lr}
   d8546:	4b02      	ldr	r3, [pc, #8]	; (d8550 <HAL_Get_Pin_Mode+0xc>)
   d8548:	681b      	ldr	r3, [r3, #0]
   d854a:	68db      	ldr	r3, [r3, #12]
   d854c:	9301      	str	r3, [sp, #4]
   d854e:	bd08      	pop	{r3, pc}
   d8550:	0003022c 	.word	0x0003022c

000d8554 <HAL_GPIO_Write>:
DYNALIB_FN(4, hal_gpio, HAL_GPIO_Write, void(pin_t, uint8_t))
   d8554:	b508      	push	{r3, lr}
   d8556:	4b02      	ldr	r3, [pc, #8]	; (d8560 <HAL_GPIO_Write+0xc>)
   d8558:	681b      	ldr	r3, [r3, #0]
   d855a:	691b      	ldr	r3, [r3, #16]
   d855c:	9301      	str	r3, [sp, #4]
   d855e:	bd08      	pop	{r3, pc}
   d8560:	0003022c 	.word	0x0003022c

000d8564 <HAL_Interrupts_Attach>:
DYNALIB_FN(5, hal_gpio, HAL_GPIO_Read, int32_t(pin_t))
DYNALIB_FN(6, hal_gpio, HAL_Interrupts_Attach, int(uint16_t, HAL_InterruptHandler, void*, InterruptMode, HAL_InterruptExtraConfiguration*))
   d8564:	b508      	push	{r3, lr}
   d8566:	4b02      	ldr	r3, [pc, #8]	; (d8570 <HAL_Interrupts_Attach+0xc>)
   d8568:	681b      	ldr	r3, [r3, #0]
   d856a:	699b      	ldr	r3, [r3, #24]
   d856c:	9301      	str	r3, [sp, #4]
   d856e:	bd08      	pop	{r3, pc}
   d8570:	0003022c 	.word	0x0003022c

000d8574 <HAL_Interrupts_Detach>:
DYNALIB_FN(7, hal_gpio, HAL_Interrupts_Detach, int(uint16_t))
   d8574:	b508      	push	{r3, lr}
   d8576:	4b02      	ldr	r3, [pc, #8]	; (d8580 <HAL_Interrupts_Detach+0xc>)
   d8578:	681b      	ldr	r3, [r3, #0]
   d857a:	69db      	ldr	r3, [r3, #28]
   d857c:	9301      	str	r3, [sp, #4]
   d857e:	bd08      	pop	{r3, pc}
   d8580:	0003022c 	.word	0x0003022c

000d8584 <hal_adc_read>:
DYNALIB_FN(8, hal_gpio, HAL_Interrupts_Enable_All, void(void))
DYNALIB_FN(9, hal_gpio, HAL_Interrupts_Disable_All, void(void))

DYNALIB_FN(10, hal_gpio, HAL_DAC_Write, void(pin_t, uint16_t))
DYNALIB_FN(11, hal_gpio, hal_adc_set_sample_time, void(uint8_t))
DYNALIB_FN(12, hal_gpio, hal_adc_read, int32_t(uint16_t))
   d8584:	b508      	push	{r3, lr}
   d8586:	4b02      	ldr	r3, [pc, #8]	; (d8590 <hal_adc_read+0xc>)
   d8588:	681b      	ldr	r3, [r3, #0]
   d858a:	6b1b      	ldr	r3, [r3, #48]	; 0x30
   d858c:	9301      	str	r3, [sp, #4]
   d858e:	bd08      	pop	{r3, pc}
   d8590:	0003022c 	.word	0x0003022c

000d8594 <hal_i2c_begin>:
#endif

DYNALIB_FN(BASE_IDX + 0, hal_i2c, hal_i2c_set_speed, void(hal_i2c_interface_t, uint32_t, void*))
DYNALIB_FN(BASE_IDX + 1, hal_i2c, hal_i2c_enable_dma_mode, void(hal_i2c_interface_t, bool, void*))
DYNALIB_FN(BASE_IDX + 2, hal_i2c, hal_i2c_stretch_clock, void(hal_i2c_interface_t, bool, void*))
DYNALIB_FN(BASE_IDX + 3, hal_i2c, hal_i2c_begin, void(hal_i2c_interface_t, hal_i2c_mode_t, uint8_t, void*))
   d8594:	b508      	push	{r3, lr}
   d8596:	4b02      	ldr	r3, [pc, #8]	; (d85a0 <hal_i2c_begin+0xc>)
   d8598:	681b      	ldr	r3, [r3, #0]
   d859a:	68db      	ldr	r3, [r3, #12]
   d859c:	9301      	str	r3, [sp, #4]
   d859e:	bd08      	pop	{r3, pc}
   d85a0:	00030228 	.word	0x00030228

000d85a4 <hal_i2c_begin_transmission>:
DYNALIB_FN(BASE_IDX + 4, hal_i2c, hal_i2c_end, void(hal_i2c_interface_t, void*))
DYNALIB_FN(BASE_IDX + 5, hal_i2c, hal_i2c_request, uint32_t(hal_i2c_interface_t, uint8_t, uint8_t, uint8_t, void*))
DYNALIB_FN(BASE_IDX + 6, hal_i2c, hal_i2c_begin_transmission, void(hal_i2c_interface_t, uint8_t, const hal_i2c_transmission_config_t*))
   d85a4:	b508      	push	{r3, lr}
   d85a6:	4b02      	ldr	r3, [pc, #8]	; (d85b0 <hal_i2c_begin_transmission+0xc>)
   d85a8:	681b      	ldr	r3, [r3, #0]
   d85aa:	699b      	ldr	r3, [r3, #24]
   d85ac:	9301      	str	r3, [sp, #4]
   d85ae:	bd08      	pop	{r3, pc}
   d85b0:	00030228 	.word	0x00030228

000d85b4 <hal_i2c_end_transmission>:
DYNALIB_FN(BASE_IDX + 7, hal_i2c, hal_i2c_end_transmission, uint8_t(hal_i2c_interface_t, uint8_t, void*))
   d85b4:	b508      	push	{r3, lr}
   d85b6:	4b02      	ldr	r3, [pc, #8]	; (d85c0 <hal_i2c_end_transmission+0xc>)
   d85b8:	681b      	ldr	r3, [r3, #0]
   d85ba:	69db      	ldr	r3, [r3, #28]
   d85bc:	9301      	str	r3, [sp, #4]
   d85be:	bd08      	pop	{r3, pc}
   d85c0:	00030228 	.word	0x00030228

000d85c4 <hal_i2c_write>:
DYNALIB_FN(BASE_IDX + 8, hal_i2c, hal_i2c_write, uint32_t(hal_i2c_interface_t, uint8_t, void*))
   d85c4:	b508      	push	{r3, lr}
   d85c6:	4b02      	ldr	r3, [pc, #8]	; (d85d0 <hal_i2c_write+0xc>)
   d85c8:	681b      	ldr	r3, [r3, #0]
   d85ca:	6a1b      	ldr	r3, [r3, #32]
   d85cc:	9301      	str	r3, [sp, #4]
   d85ce:	bd08      	pop	{r3, pc}
   d85d0:	00030228 	.word	0x00030228

000d85d4 <hal_i2c_available>:
DYNALIB_FN(BASE_IDX + 9, hal_i2c, hal_i2c_available, int32_t(hal_i2c_interface_t, void*))
   d85d4:	b508      	push	{r3, lr}
   d85d6:	4b02      	ldr	r3, [pc, #8]	; (d85e0 <hal_i2c_available+0xc>)
   d85d8:	681b      	ldr	r3, [r3, #0]
   d85da:	6a5b      	ldr	r3, [r3, #36]	; 0x24
   d85dc:	9301      	str	r3, [sp, #4]
   d85de:	bd08      	pop	{r3, pc}
   d85e0:	00030228 	.word	0x00030228

000d85e4 <hal_i2c_read>:
DYNALIB_FN(BASE_IDX + 10, hal_i2c, hal_i2c_read, int32_t(hal_i2c_interface_t, void*))
   d85e4:	b508      	push	{r3, lr}
   d85e6:	4b02      	ldr	r3, [pc, #8]	; (d85f0 <hal_i2c_read+0xc>)
   d85e8:	681b      	ldr	r3, [r3, #0]
   d85ea:	6a9b      	ldr	r3, [r3, #40]	; 0x28
   d85ec:	9301      	str	r3, [sp, #4]
   d85ee:	bd08      	pop	{r3, pc}
   d85f0:	00030228 	.word	0x00030228

000d85f4 <hal_i2c_peek>:
DYNALIB_FN(BASE_IDX + 11, hal_i2c, hal_i2c_peek, int32_t(hal_i2c_interface_t, void*))
   d85f4:	b508      	push	{r3, lr}
   d85f6:	4b02      	ldr	r3, [pc, #8]	; (d8600 <hal_i2c_peek+0xc>)
   d85f8:	681b      	ldr	r3, [r3, #0]
   d85fa:	6adb      	ldr	r3, [r3, #44]	; 0x2c
   d85fc:	9301      	str	r3, [sp, #4]
   d85fe:	bd08      	pop	{r3, pc}
   d8600:	00030228 	.word	0x00030228

000d8604 <hal_i2c_flush>:
DYNALIB_FN(BASE_IDX + 12, hal_i2c, hal_i2c_flush, void(hal_i2c_interface_t, void*))
   d8604:	b508      	push	{r3, lr}
   d8606:	4b02      	ldr	r3, [pc, #8]	; (d8610 <hal_i2c_flush+0xc>)
   d8608:	681b      	ldr	r3, [r3, #0]
   d860a:	6b1b      	ldr	r3, [r3, #48]	; 0x30
   d860c:	9301      	str	r3, [sp, #4]
   d860e:	bd08      	pop	{r3, pc}
   d8610:	00030228 	.word	0x00030228

000d8614 <hal_i2c_is_enabled>:
DYNALIB_FN(BASE_IDX + 13, hal_i2c, hal_i2c_is_enabled, bool(hal_i2c_interface_t, void*))
   d8614:	b508      	push	{r3, lr}
   d8616:	4b02      	ldr	r3, [pc, #8]	; (d8620 <hal_i2c_is_enabled+0xc>)
   d8618:	681b      	ldr	r3, [r3, #0]
   d861a:	6b5b      	ldr	r3, [r3, #52]	; 0x34
   d861c:	9301      	str	r3, [sp, #4]
   d861e:	bd08      	pop	{r3, pc}
   d8620:	00030228 	.word	0x00030228

000d8624 <hal_i2c_init>:
DYNALIB_FN(BASE_IDX + 14, hal_i2c, hal_i2c_set_callback_on_received, void(hal_i2c_interface_t, void(*)(int), void*))
DYNALIB_FN(BASE_IDX + 15, hal_i2c, hal_i2c_set_callback_on_requested, void(hal_i2c_interface_t, void(*)(void), void*))
DYNALIB_FN(BASE_IDX + 16, hal_i2c, hal_i2c_init, int(hal_i2c_interface_t, const hal_i2c_config_t*))
   d8624:	b508      	push	{r3, lr}
   d8626:	4b02      	ldr	r3, [pc, #8]	; (d8630 <hal_i2c_init+0xc>)
   d8628:	681b      	ldr	r3, [r3, #0]
   d862a:	6c1b      	ldr	r3, [r3, #64]	; 0x40
   d862c:	9301      	str	r3, [sp, #4]
   d862e:	bd08      	pop	{r3, pc}
   d8630:	00030228 	.word	0x00030228

000d8634 <hal_i2c_lock>:
DYNALIB_FN(BASE_IDX + 17, hal_i2c, hal_i2c_reset, uint8_t(hal_i2c_interface_t, uint32_t, void*))
DYNALIB_FN(BASE_IDX + 18, hal_i2c, hal_i2c_lock, int32_t(hal_i2c_interface_t, void*))
   d8634:	b508      	push	{r3, lr}
   d8636:	4b02      	ldr	r3, [pc, #8]	; (d8640 <hal_i2c_lock+0xc>)
   d8638:	681b      	ldr	r3, [r3, #0]
   d863a:	6c9b      	ldr	r3, [r3, #72]	; 0x48
   d863c:	9301      	str	r3, [sp, #4]
   d863e:	bd08      	pop	{r3, pc}
   d8640:	00030228 	.word	0x00030228

000d8644 <hal_i2c_unlock>:
DYNALIB_FN(BASE_IDX + 19, hal_i2c, hal_i2c_unlock, int32_t(hal_i2c_interface_t, void*))
   d8644:	b508      	push	{r3, lr}
   d8646:	4b02      	ldr	r3, [pc, #8]	; (d8650 <hal_i2c_unlock+0xc>)
   d8648:	681b      	ldr	r3, [r3, #0]
   d864a:	6cdb      	ldr	r3, [r3, #76]	; 0x4c
   d864c:	9301      	str	r3, [sp, #4]
   d864e:	bd08      	pop	{r3, pc}
   d8650:	00030228 	.word	0x00030228

000d8654 <hal_i2c_request_ex>:
DYNALIB_FN(BASE_IDX + 20, hal_i2c, hal_i2c_request_ex, int32_t(hal_i2c_interface_t, const hal_i2c_transmission_config_t*, void*))
   d8654:	b508      	push	{r3, lr}
   d8656:	4b02      	ldr	r3, [pc, #8]	; (d8660 <hal_i2c_request_ex+0xc>)
   d8658:	681b      	ldr	r3, [r3, #0]
   d865a:	6d1b      	ldr	r3, [r3, #80]	; 0x50
   d865c:	9301      	str	r3, [sp, #4]
   d865e:	bd08      	pop	{r3, pc}
   d8660:	00030228 	.word	0x00030228

000d8664 <inet_inet_ntop>:
DYNALIB_FN(0, hal_inet, inet_inet_addr, in_addr_t(const char*))
DYNALIB_FN(1, hal_inet, inet_inet_aton, int(const char*, struct in_addr*))
DYNALIB_FN(2, hal_inet, inet_inet_network, in_addr_t(const char*))
DYNALIB_FN(3, hal_inet, inet_inet_ntoa, char*(struct in_addr))
DYNALIB_FN(4, hal_inet, inet_inet_ntoa_r, char*(struct in_addr, char*, socklen_t))
DYNALIB_FN(5, hal_inet, inet_inet_ntop, const char*(int, const void*, char*, socklen_t))
   d8664:	b508      	push	{r3, lr}
   d8666:	4b02      	ldr	r3, [pc, #8]	; (d8670 <inet_inet_ntop+0xc>)
   d8668:	681b      	ldr	r3, [r3, #0]
   d866a:	695b      	ldr	r3, [r3, #20]
   d866c:	9301      	str	r3, [sp, #4]
   d866e:	bd08      	pop	{r3, pc}
   d8670:	00030264 	.word	0x00030264

000d8674 <netdb_freeaddrinfo>:

DYNALIB_BEGIN(hal_netdb)

DYNALIB_FN(0, hal_netdb, netdb_gethostbyname, struct hostent*(const char*))
DYNALIB_FN(1, hal_netdb, netdb_gethostbyname_r, int(const char*, struct hostent*, char*, size_t, struct hostent**, int*))
DYNALIB_FN(2, hal_netdb, netdb_freeaddrinfo, void(struct addrinfo*))
   d8674:	b508      	push	{r3, lr}
   d8676:	4b02      	ldr	r3, [pc, #8]	; (d8680 <netdb_freeaddrinfo+0xc>)
   d8678:	681b      	ldr	r3, [r3, #0]
   d867a:	689b      	ldr	r3, [r3, #8]
   d867c:	9301      	str	r3, [sp, #4]
   d867e:	bd08      	pop	{r3, pc}
   d8680:	00030268 	.word	0x00030268

000d8684 <netdb_getaddrinfo>:
DYNALIB_FN(3, hal_netdb, netdb_getaddrinfo, int(const char*, const char*, const struct addrinfo*, struct addrinfo**))
   d8684:	b508      	push	{r3, lr}
   d8686:	4b02      	ldr	r3, [pc, #8]	; (d8690 <netdb_getaddrinfo+0xc>)
   d8688:	681b      	ldr	r3, [r3, #0]
   d868a:	68db      	ldr	r3, [r3, #12]
   d868c:	9301      	str	r3, [sp, #4]
   d868e:	bd08      	pop	{r3, pc}
   d8690:	00030268 	.word	0x00030268

000d8694 <hal_spi_init>:
DYNALIB_FN(2, hal_spi, hal_spi_set_bit_order, void(hal_spi_interface_t, uint8_t))
DYNALIB_FN(3, hal_spi, hal_spi_set_data_mode, void(hal_spi_interface_t, uint8_t))
DYNALIB_FN(4, hal_spi, hal_spi_set_clock_divider, void(hal_spi_interface_t, uint8_t))
DYNALIB_FN(5, hal_spi, hal_spi_transfer, uint16_t(hal_spi_interface_t, uint16_t))
DYNALIB_FN(6, hal_spi, hal_spi_is_enabled_deprecated, bool(void))
DYNALIB_FN(7, hal_spi, hal_spi_init, void(hal_spi_interface_t))
   d8694:	b508      	push	{r3, lr}
   d8696:	4b02      	ldr	r3, [pc, #8]	; (d86a0 <hal_spi_init+0xc>)
   d8698:	681b      	ldr	r3, [r3, #0]
   d869a:	69db      	ldr	r3, [r3, #28]
   d869c:	9301      	str	r3, [sp, #4]
   d869e:	bd08      	pop	{r3, pc}
   d86a0:	00030230 	.word	0x00030230

000d86a4 <hal_spi_is_enabled>:
DYNALIB_FN(8, hal_spi, hal_spi_is_enabled, bool(hal_spi_interface_t))
   d86a4:	b508      	push	{r3, lr}
   d86a6:	4b02      	ldr	r3, [pc, #8]	; (d86b0 <hal_spi_is_enabled+0xc>)
   d86a8:	681b      	ldr	r3, [r3, #0]
   d86aa:	6a1b      	ldr	r3, [r3, #32]
   d86ac:	9301      	str	r3, [sp, #4]
   d86ae:	bd08      	pop	{r3, pc}
   d86b0:	00030230 	.word	0x00030230

000d86b4 <hal_usart_init>:
#define BASE_IDX 6 // Base index for all subsequent functions
#else
#define BASE_IDX 0
#endif

DYNALIB_FN(BASE_IDX + 0, hal_usart, hal_usart_init, void(hal_usart_interface_t, hal_usart_ring_buffer_t*, hal_usart_ring_buffer_t*))
   d86b4:	b508      	push	{r3, lr}
   d86b6:	4b02      	ldr	r3, [pc, #8]	; (d86c0 <hal_usart_init+0xc>)
   d86b8:	681b      	ldr	r3, [r3, #0]
   d86ba:	681b      	ldr	r3, [r3, #0]
   d86bc:	9301      	str	r3, [sp, #4]
   d86be:	bd08      	pop	{r3, pc}
   d86c0:	0003023c 	.word	0x0003023c

000d86c4 <hal_usart_write>:
DYNALIB_FN(BASE_IDX + 1, hal_usart, hal_usart_begin, void(hal_usart_interface_t, uint32_t))
DYNALIB_FN(BASE_IDX + 2, hal_usart, hal_usart_end, void(hal_usart_interface_t))
DYNALIB_FN(BASE_IDX + 3, hal_usart, hal_usart_write, uint32_t(hal_usart_interface_t, uint8_t))
   d86c4:	b508      	push	{r3, lr}
   d86c6:	4b02      	ldr	r3, [pc, #8]	; (d86d0 <hal_usart_write+0xc>)
   d86c8:	681b      	ldr	r3, [r3, #0]
   d86ca:	68db      	ldr	r3, [r3, #12]
   d86cc:	9301      	str	r3, [sp, #4]
   d86ce:	bd08      	pop	{r3, pc}
   d86d0:	0003023c 	.word	0x0003023c

000d86d4 <hal_usart_available>:
DYNALIB_FN(BASE_IDX + 4, hal_usart, hal_usart_available, int32_t(hal_usart_interface_t))
   d86d4:	b508      	push	{r3, lr}
   d86d6:	4b02      	ldr	r3, [pc, #8]	; (d86e0 <hal_usart_available+0xc>)
   d86d8:	681b      	ldr	r3, [r3, #0]
   d86da:	691b      	ldr	r3, [r3, #16]
   d86dc:	9301      	str	r3, [sp, #4]
   d86de:	bd08      	pop	{r3, pc}
   d86e0:	0003023c 	.word	0x0003023c

000d86e4 <hal_usart_read>:
DYNALIB_FN(BASE_IDX + 5, hal_usart, hal_usart_read, int32_t(hal_usart_interface_t))
   d86e4:	b508      	push	{r3, lr}
   d86e6:	4b02      	ldr	r3, [pc, #8]	; (d86f0 <hal_usart_read+0xc>)
   d86e8:	681b      	ldr	r3, [r3, #0]
   d86ea:	695b      	ldr	r3, [r3, #20]
   d86ec:	9301      	str	r3, [sp, #4]
   d86ee:	bd08      	pop	{r3, pc}
   d86f0:	0003023c 	.word	0x0003023c

000d86f4 <hal_usart_peek>:
DYNALIB_FN(BASE_IDX + 6, hal_usart, hal_usart_peek, int32_t(hal_usart_interface_t))
   d86f4:	b508      	push	{r3, lr}
   d86f6:	4b02      	ldr	r3, [pc, #8]	; (d8700 <hal_usart_peek+0xc>)
   d86f8:	681b      	ldr	r3, [r3, #0]
   d86fa:	699b      	ldr	r3, [r3, #24]
   d86fc:	9301      	str	r3, [sp, #4]
   d86fe:	bd08      	pop	{r3, pc}
   d8700:	0003023c 	.word	0x0003023c

000d8704 <hal_usart_flush>:
DYNALIB_FN(BASE_IDX + 7, hal_usart, hal_usart_flush, void(hal_usart_interface_t))
   d8704:	b508      	push	{r3, lr}
   d8706:	4b02      	ldr	r3, [pc, #8]	; (d8710 <hal_usart_flush+0xc>)
   d8708:	681b      	ldr	r3, [r3, #0]
   d870a:	69db      	ldr	r3, [r3, #28]
   d870c:	9301      	str	r3, [sp, #4]
   d870e:	bd08      	pop	{r3, pc}
   d8710:	0003023c 	.word	0x0003023c

000d8714 <hal_usart_is_enabled>:
DYNALIB_FN(BASE_IDX + 8, hal_usart, hal_usart_is_enabled, bool(hal_usart_interface_t))
   d8714:	b508      	push	{r3, lr}
   d8716:	4b02      	ldr	r3, [pc, #8]	; (d8720 <hal_usart_is_enabled+0xc>)
   d8718:	681b      	ldr	r3, [r3, #0]
   d871a:	6a1b      	ldr	r3, [r3, #32]
   d871c:	9301      	str	r3, [sp, #4]
   d871e:	bd08      	pop	{r3, pc}
   d8720:	0003023c 	.word	0x0003023c

000d8724 <hal_usart_available_data_for_write>:
DYNALIB_FN(BASE_IDX + 9, hal_usart, hal_usart_half_duplex, void(hal_usart_interface_t, bool))
DYNALIB_FN(BASE_IDX + 10, hal_usart, hal_usart_available_data_for_write, int32_t(hal_usart_interface_t))
   d8724:	b508      	push	{r3, lr}
   d8726:	4b02      	ldr	r3, [pc, #8]	; (d8730 <hal_usart_available_data_for_write+0xc>)
   d8728:	681b      	ldr	r3, [r3, #0]
   d872a:	6a9b      	ldr	r3, [r3, #40]	; 0x28
   d872c:	9301      	str	r3, [sp, #4]
   d872e:	bd08      	pop	{r3, pc}
   d8730:	0003023c 	.word	0x0003023c

000d8734 <HAL_USB_USART_Init>:
#endif

DYNALIB_BEGIN(hal_usb)

#ifdef USB_CDC_ENABLE
DYNALIB_FN(0, hal_usb, HAL_USB_USART_Init, void(HAL_USB_USART_Serial, const HAL_USB_USART_Config*))
   d8734:	b508      	push	{r3, lr}
   d8736:	4b02      	ldr	r3, [pc, #8]	; (d8740 <HAL_USB_USART_Init+0xc>)
   d8738:	681b      	ldr	r3, [r3, #0]
   d873a:	681b      	ldr	r3, [r3, #0]
   d873c:	9301      	str	r3, [sp, #4]
   d873e:	bd08      	pop	{r3, pc}
   d8740:	0003024c 	.word	0x0003024c

000d8744 <HAL_USB_USART_Available_Data>:
DYNALIB_FN(1, hal_usb, HAL_USB_USART_Begin, void(HAL_USB_USART_Serial, uint32_t, void *))
DYNALIB_FN(2, hal_usb, HAL_USB_USART_End, void(HAL_USB_USART_Serial))
DYNALIB_FN(3, hal_usb, HAL_USB_USART_Baud_Rate, unsigned int(HAL_USB_USART_Serial))
DYNALIB_FN(4, hal_usb, HAL_USB_USART_Available_Data, int32_t(HAL_USB_USART_Serial))
   d8744:	b508      	push	{r3, lr}
   d8746:	4b02      	ldr	r3, [pc, #8]	; (d8750 <HAL_USB_USART_Available_Data+0xc>)
   d8748:	681b      	ldr	r3, [r3, #0]
   d874a:	691b      	ldr	r3, [r3, #16]
   d874c:	9301      	str	r3, [sp, #4]
   d874e:	bd08      	pop	{r3, pc}
   d8750:	0003024c 	.word	0x0003024c

000d8754 <HAL_USB_USART_Available_Data_For_Write>:
DYNALIB_FN(5, hal_usb, HAL_USB_USART_Available_Data_For_Write, int32_t(HAL_USB_USART_Serial))
   d8754:	b508      	push	{r3, lr}
   d8756:	4b02      	ldr	r3, [pc, #8]	; (d8760 <HAL_USB_USART_Available_Data_For_Write+0xc>)
   d8758:	681b      	ldr	r3, [r3, #0]
   d875a:	695b      	ldr	r3, [r3, #20]
   d875c:	9301      	str	r3, [sp, #4]
   d875e:	bd08      	pop	{r3, pc}
   d8760:	0003024c 	.word	0x0003024c

000d8764 <HAL_USB_USART_Receive_Data>:
DYNALIB_FN(6, hal_usb, HAL_USB_USART_Receive_Data, int32_t(HAL_USB_USART_Serial, uint8_t))
   d8764:	b508      	push	{r3, lr}
   d8766:	4b02      	ldr	r3, [pc, #8]	; (d8770 <HAL_USB_USART_Receive_Data+0xc>)
   d8768:	681b      	ldr	r3, [r3, #0]
   d876a:	699b      	ldr	r3, [r3, #24]
   d876c:	9301      	str	r3, [sp, #4]
   d876e:	bd08      	pop	{r3, pc}
   d8770:	0003024c 	.word	0x0003024c

000d8774 <HAL_USB_USART_Send_Data>:
DYNALIB_FN(7, hal_usb, HAL_USB_USART_Send_Data, int32_t(HAL_USB_USART_Serial, uint8_t))
   d8774:	b508      	push	{r3, lr}
   d8776:	4b02      	ldr	r3, [pc, #8]	; (d8780 <HAL_USB_USART_Send_Data+0xc>)
   d8778:	681b      	ldr	r3, [r3, #0]
   d877a:	69db      	ldr	r3, [r3, #28]
   d877c:	9301      	str	r3, [sp, #4]
   d877e:	bd08      	pop	{r3, pc}
   d8780:	0003024c 	.word	0x0003024c

000d8784 <HAL_USB_USART_Flush_Data>:
DYNALIB_FN(8, hal_usb, HAL_USB_USART_Flush_Data, void(HAL_USB_USART_Serial))
   d8784:	b508      	push	{r3, lr}
   d8786:	4b02      	ldr	r3, [pc, #8]	; (d8790 <HAL_USB_USART_Flush_Data+0xc>)
   d8788:	681b      	ldr	r3, [r3, #0]
   d878a:	6a1b      	ldr	r3, [r3, #32]
   d878c:	9301      	str	r3, [sp, #4]
   d878e:	bd08      	pop	{r3, pc}
   d8790:	0003024c 	.word	0x0003024c

000d8794 <panic_>:
DYNALIB_FN(9, services, LED_Toggle, void(Led_TypeDef))
DYNALIB_FN(10, services, LED_Fade, void(Led_TypeDef))
DYNALIB_FN(11, services, Get_LED_Brightness, uint8_t(void))

DYNALIB_FN(12, services, set_logger_output, void(debug_output_fn, LoggerOutputLevel)) // Deprecated
DYNALIB_FN(13, services, panic_, void(ePanicCode, void*, void(*)(uint32_t)))
   d8794:	b508      	push	{r3, lr}
   d8796:	4b02      	ldr	r3, [pc, #8]	; (d87a0 <panic_+0xc>)
   d8798:	681b      	ldr	r3, [r3, #0]
   d879a:	6b5b      	ldr	r3, [r3, #52]	; 0x34
   d879c:	9301      	str	r3, [sp, #4]
   d879e:	bd08      	pop	{r3, pc}
   d87a0:	00030260 	.word	0x00030260

000d87a4 <jsmn_init>:

DYNALIB_FN(14, services, jsmn_init, void(jsmn_parser*, void*))
   d87a4:	b508      	push	{r3, lr}
   d87a6:	4b02      	ldr	r3, [pc, #8]	; (d87b0 <jsmn_init+0xc>)
   d87a8:	681b      	ldr	r3, [r3, #0]
   d87aa:	6b9b      	ldr	r3, [r3, #56]	; 0x38
   d87ac:	9301      	str	r3, [sp, #4]
   d87ae:	bd08      	pop	{r3, pc}
   d87b0:	00030260 	.word	0x00030260

000d87b4 <jsmn_parse>:
DYNALIB_FN(15, services, jsmn_parse, jsmnerr_t(jsmn_parser*, const char*, size_t, jsmntok_t*, unsigned int, void*))
   d87b4:	b508      	push	{r3, lr}
   d87b6:	4b02      	ldr	r3, [pc, #8]	; (d87c0 <jsmn_parse+0xc>)
   d87b8:	681b      	ldr	r3, [r3, #0]
   d87ba:	6bdb      	ldr	r3, [r3, #60]	; 0x3c
   d87bc:	9301      	str	r3, [sp, #4]
   d87be:	bd08      	pop	{r3, pc}
   d87c0:	00030260 	.word	0x00030260

000d87c4 <log_message_v>:
DYNALIB_FN(17, services, LED_RGB_SetChangeHandler, void(led_update_handler_fn, void*))
DYNALIB_FN(18, services, log_print_direct_, void(int, void*, const char*, ...)) // Deprecated
DYNALIB_FN(19, services, LED_GetColor, uint32_t(uint32_t, void*))

DYNALIB_FN(20, services, log_message, void(int, const char*, LogAttributes*, void*, const char*, ...))
DYNALIB_FN(21, services, log_message_v, void(int, const char*, LogAttributes*, void*, const char*, va_list))
   d87c4:	b508      	push	{r3, lr}
   d87c6:	4b02      	ldr	r3, [pc, #8]	; (d87d0 <log_message_v+0xc>)
   d87c8:	681b      	ldr	r3, [r3, #0]
   d87ca:	6d5b      	ldr	r3, [r3, #84]	; 0x54
   d87cc:	9301      	str	r3, [sp, #4]
   d87ce:	bd08      	pop	{r3, pc}
   d87d0:	00030260 	.word	0x00030260

000d87d4 <system_mode>:
#include "system_power.h"
#endif

DYNALIB_BEGIN(system)

DYNALIB_FN(0, system, system_mode, System_Mode_TypeDef(void))
   d87d4:	b508      	push	{r3, lr}
   d87d6:	4b02      	ldr	r3, [pc, #8]	; (d87e0 <system_mode+0xc>)
   d87d8:	681b      	ldr	r3, [r3, #0]
   d87da:	681b      	ldr	r3, [r3, #0]
   d87dc:	9301      	str	r3, [sp, #4]
   d87de:	bd08      	pop	{r3, pc}
   d87e0:	00030220 	.word	0x00030220

000d87e4 <set_system_mode>:
DYNALIB_FN(1, system, set_system_mode, void(System_Mode_TypeDef))
   d87e4:	b508      	push	{r3, lr}
   d87e6:	4b02      	ldr	r3, [pc, #8]	; (d87f0 <set_system_mode+0xc>)
   d87e8:	681b      	ldr	r3, [r3, #0]
   d87ea:	685b      	ldr	r3, [r3, #4]
   d87ec:	9301      	str	r3, [sp, #4]
   d87ee:	bd08      	pop	{r3, pc}
   d87f0:	00030220 	.word	0x00030220

000d87f4 <system_delay_ms>:

DYNALIB_FN(2, system, set_ymodem_serial_flash_update_handler, void(ymodem_serial_flash_update_handler))
DYNALIB_FN(3, system, system_firmwareUpdate, bool(Stream*, void*))
DYNALIB_FN(4, system, system_fileTransfer, bool(system_file_transfer_t*, void*))

DYNALIB_FN(5, system, system_delay_ms, void(unsigned long, bool))
   d87f4:	b508      	push	{r3, lr}
   d87f6:	4b02      	ldr	r3, [pc, #8]	; (d8800 <system_delay_ms+0xc>)
   d87f8:	681b      	ldr	r3, [r3, #0]
   d87fa:	695b      	ldr	r3, [r3, #20]
   d87fc:	9301      	str	r3, [sp, #4]
   d87fe:	bd08      	pop	{r3, pc}
   d8800:	00030220 	.word	0x00030220

000d8804 <system_thread_set_state>:
DYNALIB_FN(6, system, system_sleep, int(Spark_Sleep_TypeDef, long, uint32_t, void*))
DYNALIB_FN(7, system, system_sleep_pin, int(uint16_t, uint16_t, long, uint32_t, void*))
DYNALIB_FN(8, system, system_subscribe_event, int(system_event_t, system_event_handler_t*, SystemEventContext*))
DYNALIB_FN(9, system, system_unsubscribe_event, void(system_event_t, system_event_handler_t*, void*))
DYNALIB_FN(10, system, system_button_pushed_duration, uint16_t(uint8_t, void*))
DYNALIB_FN(11, system, system_thread_set_state, void(spark::feature::State, void*))
   d8804:	b508      	push	{r3, lr}
   d8806:	4b02      	ldr	r3, [pc, #8]	; (d8810 <system_thread_set_state+0xc>)
   d8808:	681b      	ldr	r3, [r3, #0]
   d880a:	6adb      	ldr	r3, [r3, #44]	; 0x2c
   d880c:	9301      	str	r3, [sp, #4]
   d880e:	bd08      	pop	{r3, pc}
   d8810:	00030220 	.word	0x00030220

000d8814 <application_thread_current>:
DYNALIB_FN(15, system, system_get_flag, int(system_flag_t, uint8_t*, void*))
DYNALIB_FN(16, system, Spark_Prepare_For_Firmware_Update, int(FileTransfer::Descriptor&, uint32_t, void*))
DYNALIB_FN(17, system, Spark_Save_Firmware_Chunk, int(FileTransfer::Descriptor&, const uint8_t*, void*))
DYNALIB_FN(18, system, Spark_Finish_Firmware_Update, int(FileTransfer::Descriptor&, uint32_t, void*))

DYNALIB_FN(19, system, application_thread_current, uint8_t(void*))
   d8814:	b508      	push	{r3, lr}
   d8816:	4b02      	ldr	r3, [pc, #8]	; (d8820 <application_thread_current+0xc>)
   d8818:	681b      	ldr	r3, [r3, #0]
   d881a:	6cdb      	ldr	r3, [r3, #76]	; 0x4c
   d881c:	9301      	str	r3, [sp, #4]
   d881e:	bd08      	pop	{r3, pc}
   d8820:	00030220 	.word	0x00030220

000d8824 <application_thread_invoke>:
DYNALIB_FN(20, system, system_thread_current, uint8_t(void*))
DYNALIB_FN(21, system, application_thread_invoke, uint8_t(void(*)(void*), void*, void*))
   d8824:	b508      	push	{r3, lr}
   d8826:	4b02      	ldr	r3, [pc, #8]	; (d8830 <application_thread_invoke+0xc>)
   d8828:	681b      	ldr	r3, [r3, #0]
   d882a:	6d5b      	ldr	r3, [r3, #84]	; 0x54
   d882c:	9301      	str	r3, [sp, #4]
   d882e:	bd08      	pop	{r3, pc}
   d8830:	00030220 	.word	0x00030220

000d8834 <system_thread_get_state>:
DYNALIB_FN(22, system, system_thread_get_state, spark::feature::State(void*))
   d8834:	b508      	push	{r3, lr}
   d8836:	4b02      	ldr	r3, [pc, #8]	; (d8840 <system_thread_get_state+0xc>)
   d8838:	681b      	ldr	r3, [r3, #0]
   d883a:	6d9b      	ldr	r3, [r3, #88]	; 0x58
   d883c:	9301      	str	r3, [sp, #4]
   d883e:	bd08      	pop	{r3, pc}
   d8840:	00030220 	.word	0x00030220

000d8844 <system_notify_time_changed>:
DYNALIB_FN(23, system, system_notify_time_changed, void(uint32_t, void*, void*))
   d8844:	b508      	push	{r3, lr}
   d8846:	4b02      	ldr	r3, [pc, #8]	; (d8850 <system_notify_time_changed+0xc>)
   d8848:	681b      	ldr	r3, [r3, #0]
   d884a:	6ddb      	ldr	r3, [r3, #92]	; 0x5c
   d884c:	9301      	str	r3, [sp, #4]
   d884e:	bd08      	pop	{r3, pc}
   d8850:	00030220 	.word	0x00030220

000d8854 <system_ctrl_set_app_request_handler>:
DYNALIB_FN(BASE_IDX + 6, system, led_pattern_period, uint16_t(int, int, void*))
DYNALIB_FN(BASE_IDX + 7, system, system_set_tester_handlers, int(system_tester_handlers_t*, void*))
DYNALIB_FN(BASE_IDX + 8, system, system_format_diag_data, int(const uint16_t*, size_t, unsigned, appender_fn, void*, void*))

// Control requests
DYNALIB_FN(BASE_IDX + 9, system, system_ctrl_set_app_request_handler, int(ctrl_request_handler_fn, void*))
   d8854:	b508      	push	{r3, lr}
   d8856:	4b03      	ldr	r3, [pc, #12]	; (d8864 <system_ctrl_set_app_request_handler+0x10>)
   d8858:	681b      	ldr	r3, [r3, #0]
   d885a:	f8d3 3088 	ldr.w	r3, [r3, #136]	; 0x88
   d885e:	9301      	str	r3, [sp, #4]
   d8860:	bd08      	pop	{r3, pc}
   d8862:	0000      	.short	0x0000
   d8864:	00030220 	.word	0x00030220

000d8868 <system_ctrl_set_result>:
DYNALIB_FN(BASE_IDX + 10, system, system_ctrl_alloc_reply_data, int(ctrl_request*, size_t, void*))
DYNALIB_FN(BASE_IDX + 11, system, system_ctrl_free_request_data, void(ctrl_request*, void*))
DYNALIB_FN(BASE_IDX + 12, system, system_ctrl_set_result, void(ctrl_request*, int, ctrl_completion_handler_fn, void*, void*))
   d8868:	b508      	push	{r3, lr}
   d886a:	4b03      	ldr	r3, [pc, #12]	; (d8878 <system_ctrl_set_result+0x10>)
   d886c:	681b      	ldr	r3, [r3, #0]
   d886e:	f8d3 3094 	ldr.w	r3, [r3, #148]	; 0x94
   d8872:	9301      	str	r3, [sp, #4]
   d8874:	bd08      	pop	{r3, pc}
   d8876:	0000      	.short	0x0000
   d8878:	00030220 	.word	0x00030220

000d887c <system_reset>:
#else
#define BASE_IDX1 (BASE_IDX + 17)
#endif // HAL_PLATFORM_POWER_MANAGEMENT

DYNALIB_FN(BASE_IDX1 + 0, system, system_sleep_ext, int(const hal_sleep_config_t*, hal_wakeup_source_base_t**, void*))
DYNALIB_FN(BASE_IDX1 + 1, system, system_reset, int(unsigned, unsigned, unsigned, unsigned, void*))
   d887c:	b508      	push	{r3, lr}
   d887e:	4b03      	ldr	r3, [pc, #12]	; (d888c <system_reset+0x10>)
   d8880:	681b      	ldr	r3, [r3, #0]
   d8882:	f8d3 30b0 	ldr.w	r3, [r3, #176]	; 0xb0
   d8886:	9301      	str	r3, [sp, #4]
   d8888:	bd08      	pop	{r3, pc}
   d888a:	0000      	.short	0x0000
   d888c:	00030220 	.word	0x00030220

000d8890 <spark_variable>:
#endif


DYNALIB_BEGIN(system_cloud)

DYNALIB_FN(0, system_cloud, spark_variable, bool(const char*, const void*, Spark_Data_TypeDef, spark_variable_t*))
   d8890:	b508      	push	{r3, lr}
   d8892:	4b02      	ldr	r3, [pc, #8]	; (d889c <spark_variable+0xc>)
   d8894:	681b      	ldr	r3, [r3, #0]
   d8896:	681b      	ldr	r3, [r3, #0]
   d8898:	9301      	str	r3, [sp, #4]
   d889a:	bd08      	pop	{r3, pc}
   d889c:	00030244 	.word	0x00030244

000d88a0 <spark_function>:
DYNALIB_FN(1, system_cloud, spark_function, bool(const char*, p_user_function_int_str_t, void*))
   d88a0:	b508      	push	{r3, lr}
   d88a2:	4b02      	ldr	r3, [pc, #8]	; (d88ac <spark_function+0xc>)
   d88a4:	681b      	ldr	r3, [r3, #0]
   d88a6:	685b      	ldr	r3, [r3, #4]
   d88a8:	9301      	str	r3, [sp, #4]
   d88aa:	bd08      	pop	{r3, pc}
   d88ac:	00030244 	.word	0x00030244

000d88b0 <spark_process>:
DYNALIB_FN(2, system_cloud, spark_process, void(void))
   d88b0:	b508      	push	{r3, lr}
   d88b2:	4b02      	ldr	r3, [pc, #8]	; (d88bc <spark_process+0xc>)
   d88b4:	681b      	ldr	r3, [r3, #0]
   d88b6:	689b      	ldr	r3, [r3, #8]
   d88b8:	9301      	str	r3, [sp, #4]
   d88ba:	bd08      	pop	{r3, pc}
   d88bc:	00030244 	.word	0x00030244

000d88c0 <spark_cloud_flag_connect>:
DYNALIB_FN(3, system_cloud, spark_cloud_flag_connect, void(void))
   d88c0:	b508      	push	{r3, lr}
   d88c2:	4b02      	ldr	r3, [pc, #8]	; (d88cc <spark_cloud_flag_connect+0xc>)
   d88c4:	681b      	ldr	r3, [r3, #0]
   d88c6:	68db      	ldr	r3, [r3, #12]
   d88c8:	9301      	str	r3, [sp, #4]
   d88ca:	bd08      	pop	{r3, pc}
   d88cc:	00030244 	.word	0x00030244

000d88d0 <spark_cloud_flag_connected>:
DYNALIB_FN(4, system_cloud, spark_cloud_flag_disconnect, void(void))
DYNALIB_FN(5, system_cloud, spark_cloud_flag_connected, bool(void))
   d88d0:	b508      	push	{r3, lr}
   d88d2:	4b02      	ldr	r3, [pc, #8]	; (d88dc <spark_cloud_flag_connected+0xc>)
   d88d4:	681b      	ldr	r3, [r3, #0]
   d88d6:	695b      	ldr	r3, [r3, #20]
   d88d8:	9301      	str	r3, [sp, #4]
   d88da:	bd08      	pop	{r3, pc}
   d88dc:	00030244 	.word	0x00030244

000d88e0 <spark_deviceID>:
DYNALIB_FN(6, system_cloud, system_cloud_protocol_instance, ProtocolFacade*(void))
DYNALIB_FN(7, system_cloud, spark_deviceID, String(void))
   d88e0:	b508      	push	{r3, lr}
   d88e2:	4b02      	ldr	r3, [pc, #8]	; (d88ec <spark_deviceID+0xc>)
   d88e4:	681b      	ldr	r3, [r3, #0]
   d88e6:	69db      	ldr	r3, [r3, #28]
   d88e8:	9301      	str	r3, [sp, #4]
   d88ea:	bd08      	pop	{r3, pc}
   d88ec:	00030244 	.word	0x00030244

000d88f0 <spark_send_event>:
DYNALIB_FN(8, system_cloud, spark_send_event, bool(const char*, const char*, int, uint32_t, void*))
   d88f0:	b508      	push	{r3, lr}
   d88f2:	4b02      	ldr	r3, [pc, #8]	; (d88fc <spark_send_event+0xc>)
   d88f4:	681b      	ldr	r3, [r3, #0]
   d88f6:	6a1b      	ldr	r3, [r3, #32]
   d88f8:	9301      	str	r3, [sp, #4]
   d88fa:	bd08      	pop	{r3, pc}
   d88fc:	00030244 	.word	0x00030244

000d8900 <spark_subscribe>:
DYNALIB_FN(9, system_cloud, spark_subscribe, bool(const char*, EventHandler, void*, Spark_Subscription_Scope_TypeDef, const char*, void*))
   d8900:	b508      	push	{r3, lr}
   d8902:	4b02      	ldr	r3, [pc, #8]	; (d890c <spark_subscribe+0xc>)
   d8904:	681b      	ldr	r3, [r3, #0]
   d8906:	6a5b      	ldr	r3, [r3, #36]	; 0x24
   d8908:	9301      	str	r3, [sp, #4]
   d890a:	bd08      	pop	{r3, pc}
   d890c:	00030244 	.word	0x00030244

000d8910 <spark_sync_time>:
DYNALIB_FN(10, system_cloud, spark_unsubscribe, void(void*))
DYNALIB_FN(11, system_cloud, spark_sync_time, bool(void*))
   d8910:	b508      	push	{r3, lr}
   d8912:	4b02      	ldr	r3, [pc, #8]	; (d891c <spark_sync_time+0xc>)
   d8914:	681b      	ldr	r3, [r3, #0]
   d8916:	6adb      	ldr	r3, [r3, #44]	; 0x2c
   d8918:	9301      	str	r3, [sp, #4]
   d891a:	bd08      	pop	{r3, pc}
   d891c:	00030244 	.word	0x00030244

000d8920 <spark_sync_time_pending>:
DYNALIB_FN(12, system_cloud, spark_sync_time_pending, bool(void*))
   d8920:	b508      	push	{r3, lr}
   d8922:	4b02      	ldr	r3, [pc, #8]	; (d892c <spark_sync_time_pending+0xc>)
   d8924:	681b      	ldr	r3, [r3, #0]
   d8926:	6b1b      	ldr	r3, [r3, #48]	; 0x30
   d8928:	9301      	str	r3, [sp, #4]
   d892a:	bd08      	pop	{r3, pc}
   d892c:	00030244 	.word	0x00030244

000d8930 <spark_sync_time_last>:
DYNALIB_FN(13, system_cloud, spark_sync_time_last, system_tick_t(time32_t*, time_t*))
   d8930:	b508      	push	{r3, lr}
   d8932:	4b02      	ldr	r3, [pc, #8]	; (d893c <spark_sync_time_last+0xc>)
   d8934:	681b      	ldr	r3, [r3, #0]
   d8936:	6b5b      	ldr	r3, [r3, #52]	; 0x34
   d8938:	9301      	str	r3, [sp, #4]
   d893a:	bd08      	pop	{r3, pc}
   d893c:	00030244 	.word	0x00030244

000d8940 <spark_set_connection_property>:
DYNALIB_FN(14, system_cloud, spark_set_connection_property, int(unsigned, unsigned, const void*, void*))
   d8940:	b508      	push	{r3, lr}
   d8942:	4b02      	ldr	r3, [pc, #8]	; (d894c <spark_set_connection_property+0xc>)
   d8944:	681b      	ldr	r3, [r3, #0]
   d8946:	6b9b      	ldr	r3, [r3, #56]	; 0x38
   d8948:	9301      	str	r3, [sp, #4]
   d894a:	bd08      	pop	{r3, pc}
   d894c:	00030244 	.word	0x00030244

000d8950 <spark_set_random_seed_from_cloud_handler>:
DYNALIB_FN(15, system_cloud, spark_set_random_seed_from_cloud_handler, int(void (*handler)(unsigned int), void*))
   d8950:	b508      	push	{r3, lr}
   d8952:	4b02      	ldr	r3, [pc, #8]	; (d895c <spark_set_random_seed_from_cloud_handler+0xc>)
   d8954:	681b      	ldr	r3, [r3, #0]
   d8956:	6bdb      	ldr	r3, [r3, #60]	; 0x3c
   d8958:	9301      	str	r3, [sp, #4]
   d895a:	bd08      	pop	{r3, pc}
   d895c:	00030244 	.word	0x00030244

000d8960 <network_connect>:
#endif

DYNALIB_BEGIN(system_net)

DYNALIB_FN(0, system_net, network_config, const void*(network_handle_t, uint32_t, void*))
DYNALIB_FN(1, system_net, network_connect, void(network_handle_t, uint32_t, uint32_t, void*))
   d8960:	b508      	push	{r3, lr}
   d8962:	4b02      	ldr	r3, [pc, #8]	; (d896c <network_connect+0xc>)
   d8964:	681b      	ldr	r3, [r3, #0]
   d8966:	685b      	ldr	r3, [r3, #4]
   d8968:	9301      	str	r3, [sp, #4]
   d896a:	bd08      	pop	{r3, pc}
   d896c:	00030240 	.word	0x00030240

000d8970 <network_connecting>:
DYNALIB_FN(2, system_net, network_connecting, bool(network_handle_t, uint32_t, void*))
   d8970:	b508      	push	{r3, lr}
   d8972:	4b02      	ldr	r3, [pc, #8]	; (d897c <network_connecting+0xc>)
   d8974:	681b      	ldr	r3, [r3, #0]
   d8976:	689b      	ldr	r3, [r3, #8]
   d8978:	9301      	str	r3, [sp, #4]
   d897a:	bd08      	pop	{r3, pc}
   d897c:	00030240 	.word	0x00030240

000d8980 <network_disconnect>:
DYNALIB_FN(3, system_net, network_disconnect, void(network_handle_t, uint32_t, void*))
   d8980:	b508      	push	{r3, lr}
   d8982:	4b02      	ldr	r3, [pc, #8]	; (d898c <network_disconnect+0xc>)
   d8984:	681b      	ldr	r3, [r3, #0]
   d8986:	68db      	ldr	r3, [r3, #12]
   d8988:	9301      	str	r3, [sp, #4]
   d898a:	bd08      	pop	{r3, pc}
   d898c:	00030240 	.word	0x00030240

000d8990 <network_ready>:
DYNALIB_FN(4, system_net, network_ready, bool(network_handle_t, uint32_t, void*))
   d8990:	b508      	push	{r3, lr}
   d8992:	4b02      	ldr	r3, [pc, #8]	; (d899c <network_ready+0xc>)
   d8994:	681b      	ldr	r3, [r3, #0]
   d8996:	691b      	ldr	r3, [r3, #16]
   d8998:	9301      	str	r3, [sp, #4]
   d899a:	bd08      	pop	{r3, pc}
   d899c:	00030240 	.word	0x00030240

000d89a0 <network_on>:
DYNALIB_FN(5, system_net, network_on, void(network_handle_t, uint32_t, uint32_t, void*))
   d89a0:	b508      	push	{r3, lr}
   d89a2:	4b02      	ldr	r3, [pc, #8]	; (d89ac <network_on+0xc>)
   d89a4:	681b      	ldr	r3, [r3, #0]
   d89a6:	695b      	ldr	r3, [r3, #20]
   d89a8:	9301      	str	r3, [sp, #4]
   d89aa:	bd08      	pop	{r3, pc}
   d89ac:	00030240 	.word	0x00030240

000d89b0 <network_off>:
DYNALIB_FN(6, system_net, network_off, void(network_handle_t, uint32_t, uint32_t, void*))
   d89b0:	b508      	push	{r3, lr}
   d89b2:	4b02      	ldr	r3, [pc, #8]	; (d89bc <network_off+0xc>)
   d89b4:	681b      	ldr	r3, [r3, #0]
   d89b6:	699b      	ldr	r3, [r3, #24]
   d89b8:	9301      	str	r3, [sp, #4]
   d89ba:	bd08      	pop	{r3, pc}
   d89bc:	00030240 	.word	0x00030240

000d89c0 <network_listen>:
DYNALIB_FN(7, system_net, network_listen, void(network_handle_t, uint32_t, void*))
   d89c0:	b508      	push	{r3, lr}
   d89c2:	4b02      	ldr	r3, [pc, #8]	; (d89cc <network_listen+0xc>)
   d89c4:	681b      	ldr	r3, [r3, #0]
   d89c6:	69db      	ldr	r3, [r3, #28]
   d89c8:	9301      	str	r3, [sp, #4]
   d89ca:	bd08      	pop	{r3, pc}
   d89cc:	00030240 	.word	0x00030240

000d89d0 <network_listening>:
DYNALIB_FN(8, system_net, network_listening, bool(network_handle_t, uint32_t, void*))
   d89d0:	b508      	push	{r3, lr}
   d89d2:	4b02      	ldr	r3, [pc, #8]	; (d89dc <network_listening+0xc>)
   d89d4:	681b      	ldr	r3, [r3, #0]
   d89d6:	6a1b      	ldr	r3, [r3, #32]
   d89d8:	9301      	str	r3, [sp, #4]
   d89da:	bd08      	pop	{r3, pc}
   d89dc:	00030240 	.word	0x00030240

000d89e0 <network_set_listen_timeout>:
DYNALIB_FN(9, system_net, network_has_credentials, bool(network_handle_t, uint32_t, void*))
DYNALIB_FN(10, system_net, network_set_credentials, int(network_handle_t, uint32_t, NetworkCredentials*, void*))
DYNALIB_FN(11, system_net, network_clear_credentials, bool(network_handle_t, uint32_t, NetworkCredentials*, void*))
DYNALIB_FN(12, system_net, network_set_listen_timeout, void(network_handle_t, uint16_t, void*))
   d89e0:	b508      	push	{r3, lr}
   d89e2:	4b02      	ldr	r3, [pc, #8]	; (d89ec <network_set_listen_timeout+0xc>)
   d89e4:	681b      	ldr	r3, [r3, #0]
   d89e6:	6b1b      	ldr	r3, [r3, #48]	; 0x30
   d89e8:	9301      	str	r3, [sp, #4]
   d89ea:	bd08      	pop	{r3, pc}
   d89ec:	00030240 	.word	0x00030240

000d89f0 <network_get_listen_timeout>:
DYNALIB_FN(13, system_net, network_get_listen_timeout, uint16_t(network_handle_t, uint32_t, void*))
   d89f0:	b508      	push	{r3, lr}
   d89f2:	4b02      	ldr	r3, [pc, #8]	; (d89fc <network_get_listen_timeout+0xc>)
   d89f4:	681b      	ldr	r3, [r3, #0]
   d89f6:	6b5b      	ldr	r3, [r3, #52]	; 0x34
   d89f8:	9301      	str	r3, [sp, #4]
   d89fa:	bd08      	pop	{r3, pc}
   d89fc:	00030240 	.word	0x00030240

000d8a00 <network_is_on>:
DYNALIB_FN(14, system_net, network_set_hostname, int(network_handle_t, uint32_t, const char*, void*))
DYNALIB_FN(15, system_net, network_get_hostname, int(network_handle_t, uint32_t, char*, size_t, void*))
DYNALIB_FN(16, system_net, network_is_on, bool(network_handle_t, void*))
   d8a00:	b508      	push	{r3, lr}
   d8a02:	4b02      	ldr	r3, [pc, #8]	; (d8a0c <network_is_on+0xc>)
   d8a04:	681b      	ldr	r3, [r3, #0]
   d8a06:	6c1b      	ldr	r3, [r3, #64]	; 0x40
   d8a08:	9301      	str	r3, [sp, #4]
   d8a0a:	bd08      	pop	{r3, pc}
   d8a0c:	00030240 	.word	0x00030240

000d8a10 <network_is_off>:
DYNALIB_FN(17, system_net, network_is_off, bool(network_handle_t, void*))
   d8a10:	b508      	push	{r3, lr}
   d8a12:	4b02      	ldr	r3, [pc, #8]	; (d8a1c <network_is_off+0xc>)
   d8a14:	681b      	ldr	r3, [r3, #0]
   d8a16:	6c5b      	ldr	r3, [r3, #68]	; 0x44
   d8a18:	9301      	str	r3, [sp, #4]
   d8a1a:	bd08      	pop	{r3, pc}
   d8a1c:	00030240 	.word	0x00030240

000d8a20 <malloc>:
#include "hal_platform.h"
#endif // defined(DYNALIB_EXPORT) || (defined(DYNALIB_IMPORT) && !defined(RT_DYNALIB_NO_DEPENDENCY_BREAKING_IMPORTS))

DYNALIB_BEGIN(rt)

DYNALIB_FN(0, rt, malloc, void*(size_t))
   d8a20:	b508      	push	{r3, lr}
   d8a22:	4b02      	ldr	r3, [pc, #8]	; (d8a2c <malloc+0xc>)
   d8a24:	681b      	ldr	r3, [r3, #0]
   d8a26:	681b      	ldr	r3, [r3, #0]
   d8a28:	9301      	str	r3, [sp, #4]
   d8a2a:	bd08      	pop	{r3, pc}
   d8a2c:	0003021c 	.word	0x0003021c

000d8a30 <free>:
DYNALIB_FN(1, rt, free, void(void*))
   d8a30:	b508      	push	{r3, lr}
   d8a32:	4b02      	ldr	r3, [pc, #8]	; (d8a3c <free+0xc>)
   d8a34:	681b      	ldr	r3, [r3, #0]
   d8a36:	685b      	ldr	r3, [r3, #4]
   d8a38:	9301      	str	r3, [sp, #4]
   d8a3a:	bd08      	pop	{r3, pc}
   d8a3c:	0003021c 	.word	0x0003021c

000d8a40 <realloc>:
DYNALIB_FN(2, rt, realloc, void*(void*, size_t))
   d8a40:	b508      	push	{r3, lr}
   d8a42:	4b02      	ldr	r3, [pc, #8]	; (d8a4c <realloc+0xc>)
   d8a44:	681b      	ldr	r3, [r3, #0]
   d8a46:	689b      	ldr	r3, [r3, #8]
   d8a48:	9301      	str	r3, [sp, #4]
   d8a4a:	bd08      	pop	{r3, pc}
   d8a4c:	0003021c 	.word	0x0003021c

000d8a50 <siprintf>:
DYNALIB_FN(3, rt, sprintf, int(char*, const char*, ...))
DYNALIB_FN(4, rt, siprintf, int(char*, const char*, ...))
   d8a50:	b508      	push	{r3, lr}
   d8a52:	4b02      	ldr	r3, [pc, #8]	; (d8a5c <siprintf+0xc>)
   d8a54:	681b      	ldr	r3, [r3, #0]
   d8a56:	691b      	ldr	r3, [r3, #16]
   d8a58:	9301      	str	r3, [sp, #4]
   d8a5a:	bd08      	pop	{r3, pc}
   d8a5c:	0003021c 	.word	0x0003021c

000d8a60 <snprintf>:
DYNALIB_FN(5, rt, sscanf, int(const char*, const char*, ...))
DYNALIB_FN(6, rt, siscanf, int(const char*, const char*, ...))
DYNALIB_FN(7, rt, snprintf, int(char*, size_t, const char*, ...))
   d8a60:	b508      	push	{r3, lr}
   d8a62:	4b02      	ldr	r3, [pc, #8]	; (d8a6c <snprintf+0xc>)
   d8a64:	681b      	ldr	r3, [r3, #0]
   d8a66:	69db      	ldr	r3, [r3, #28]
   d8a68:	9301      	str	r3, [sp, #4]
   d8a6a:	bd08      	pop	{r3, pc}
   d8a6c:	0003021c 	.word	0x0003021c

000d8a70 <vsnprintf>:
DYNALIB_FN(8, rt, sniprintf, int(char*, size_t, const char*, ...))
DYNALIB_FN(9, rt, vsnprintf, int(char*, size_t, const char*, va_list))
   d8a70:	b508      	push	{r3, lr}
   d8a72:	4b02      	ldr	r3, [pc, #8]	; (d8a7c <vsnprintf+0xc>)
   d8a74:	681b      	ldr	r3, [r3, #0]
   d8a76:	6a5b      	ldr	r3, [r3, #36]	; 0x24
   d8a78:	9301      	str	r3, [sp, #4]
   d8a7a:	bd08      	pop	{r3, pc}
   d8a7c:	0003021c 	.word	0x0003021c

000d8a80 <abort>:
DYNALIB_FN(10, rt, vsniprintf, int(char*, size_t, const char*, va_list))
DYNALIB_FN(11, rt, abort, void(void))
   d8a80:	b508      	push	{r3, lr}
   d8a82:	4b02      	ldr	r3, [pc, #8]	; (d8a8c <abort+0xc>)
   d8a84:	681b      	ldr	r3, [r3, #0]
   d8a86:	6adb      	ldr	r3, [r3, #44]	; 0x2c
   d8a88:	9301      	str	r3, [sp, #4]
   d8a8a:	bd08      	pop	{r3, pc}
   d8a8c:	0003021c 	.word	0x0003021c

000d8a90 <_malloc_r>:
DYNALIB_FN(12, rt, _malloc_r, void*(struct _reent*, size_t))
   d8a90:	b508      	push	{r3, lr}
   d8a92:	4b02      	ldr	r3, [pc, #8]	; (d8a9c <_malloc_r+0xc>)
   d8a94:	681b      	ldr	r3, [r3, #0]
   d8a96:	6b1b      	ldr	r3, [r3, #48]	; 0x30
   d8a98:	9301      	str	r3, [sp, #4]
   d8a9a:	bd08      	pop	{r3, pc}
   d8a9c:	0003021c 	.word	0x0003021c

000d8aa0 <__errno>:
DYNALIB_FN(13, rt, _free_r, void(struct _reent*, void*))
DYNALIB_FN(14, rt, _realloc_r, void*(struct _reent*, void*, size_t))
DYNALIB_FN(15, rt, __errno, int*())
   d8aa0:	b508      	push	{r3, lr}
   d8aa2:	4b02      	ldr	r3, [pc, #8]	; (d8aac <__errno+0xc>)
   d8aa4:	681b      	ldr	r3, [r3, #0]
   d8aa6:	6bdb      	ldr	r3, [r3, #60]	; 0x3c
   d8aa8:	9301      	str	r3, [sp, #4]
   d8aaa:	bd08      	pop	{r3, pc}
   d8aac:	0003021c 	.word	0x0003021c

000d8ab0 <newlib_impure_ptr_callback>:
// RT is currently being imported into system-part1 from system-part2,
// which is the reverse direction.

#if defined(DYNALIB_EXPORT) || (defined(DYNALIB_IMPORT) && !defined(RT_DYNALIB_NO_DEPENDENCY_BREAKING_IMPORTS))
DYNALIB_FN(16, rt, __assert_func, void(const char*, int, const char*, const char*))
DYNALIB_FN(17, rt, newlib_impure_ptr_callback, void(void (*)(struct _reent*, size_t, uint32_t, void*), void*))
   d8ab0:	b508      	push	{r3, lr}
   d8ab2:	4b02      	ldr	r3, [pc, #8]	; (d8abc <newlib_impure_ptr_callback+0xc>)
   d8ab4:	681b      	ldr	r3, [r3, #0]
   d8ab6:	6c5b      	ldr	r3, [r3, #68]	; 0x44
   d8ab8:	9301      	str	r3, [sp, #4]
   d8aba:	bd08      	pop	{r3, pc}
   d8abc:	0003021c 	.word	0x0003021c

000d8ac0 <strftime>:
// Electron has some of these exported from a different system part through services2 dynalib
// Photon/P1 do not have enough space in system-part2
#if HAL_PLATFORM_EXPORT_STDLIB_RT_DYNALIB
DYNALIB_FN(18, rt, strftime, size_t(char* __restrict, size_t, const char* __restrict, const struct tm* __restrict))
   d8ac0:	b508      	push	{r3, lr}
   d8ac2:	4b02      	ldr	r3, [pc, #8]	; (d8acc <strftime+0xc>)
   d8ac4:	681b      	ldr	r3, [r3, #0]
   d8ac6:	6c9b      	ldr	r3, [r3, #72]	; 0x48
   d8ac8:	9301      	str	r3, [sp, #4]
   d8aca:	bd08      	pop	{r3, pc}
   d8acc:	0003021c 	.word	0x0003021c

000d8ad0 <localtime_r>:
DYNALIB_FN(19, rt, localtime_r, struct tm*(const time_t* __restrict, struct tm* __restrict))
   d8ad0:	b508      	push	{r3, lr}
   d8ad2:	4b02      	ldr	r3, [pc, #8]	; (d8adc <localtime_r+0xc>)
   d8ad4:	681b      	ldr	r3, [r3, #0]
   d8ad6:	6cdb      	ldr	r3, [r3, #76]	; 0x4c
   d8ad8:	9301      	str	r3, [sp, #4]
   d8ada:	bd08      	pop	{r3, pc}
   d8adc:	0003021c 	.word	0x0003021c

000d8ae0 <gmtime_r>:
DYNALIB_FN(20, rt, gmtime_r, struct tm*(const time_t* __restrict, struct tm* __restrict))
   d8ae0:	b508      	push	{r3, lr}
   d8ae2:	4b02      	ldr	r3, [pc, #8]	; (d8aec <gmtime_r+0xc>)
   d8ae4:	681b      	ldr	r3, [r3, #0]
   d8ae6:	6d1b      	ldr	r3, [r3, #80]	; 0x50
   d8ae8:	9301      	str	r3, [sp, #4]
   d8aea:	bd08      	pop	{r3, pc}
   d8aec:	0003021c 	.word	0x0003021c

000d8af0 <mktime>:
DYNALIB_FN(21, rt, mktime, time_t(struct tm*))
   d8af0:	b508      	push	{r3, lr}
   d8af2:	4b02      	ldr	r3, [pc, #8]	; (d8afc <mktime+0xc>)
   d8af4:	681b      	ldr	r3, [r3, #0]
   d8af6:	6d5b      	ldr	r3, [r3, #84]	; 0x54
   d8af8:	9301      	str	r3, [sp, #4]
   d8afa:	bd08      	pop	{r3, pc}
   d8afc:	0003021c 	.word	0x0003021c

000d8b00 <delay>:
    return (value - fromStart) * (toEnd - toStart) / (fromEnd - fromStart) + toStart;
}

void delay(unsigned long ms)
{
    system_delay_ms(ms, false);
   d8b00:	2100      	movs	r1, #0
   d8b02:	f7ff be77 	b.w	d87f4 <system_delay_ms>

000d8b06 <_ZN8particle6detail21futureCallbackWrapperEPv>:
 * License along with this library; if not, see <http://www.gnu.org/licenses/>.
 */

#include "spark_wiring_async.h"

void particle::detail::futureCallbackWrapper(void* data) {
   d8b06:	b510      	push	{r4, lr}
      if (_M_empty())
   d8b08:	6883      	ldr	r3, [r0, #8]
   d8b0a:	4604      	mov	r4, r0
   d8b0c:	b90b      	cbnz	r3, d8b12 <_ZN8particle6detail21futureCallbackWrapperEPv+0xc>
	__throw_bad_function_call();
   d8b0e:	f001 fec0 	bl	da892 <_ZSt25__throw_bad_function_callv>
      return _M_invoker(_M_functor, std::forward<_ArgTypes>(__args)...);
   d8b12:	68c3      	ldr	r3, [r0, #12]
   d8b14:	4798      	blx	r3
      if (_M_manager)
   d8b16:	68a3      	ldr	r3, [r4, #8]
   d8b18:	b11b      	cbz	r3, d8b22 <_ZN8particle6detail21futureCallbackWrapperEPv+0x1c>
	_M_manager(_M_functor, _M_functor, __destroy_functor);
   d8b1a:	2203      	movs	r2, #3
   d8b1c:	4621      	mov	r1, r4
   d8b1e:	4620      	mov	r0, r4
   d8b20:	4798      	blx	r3
    auto callbackPtr = static_cast<const std::function<void()>*>(data);
    (*callbackPtr)();
    delete callbackPtr;
   d8b22:	4620      	mov	r0, r4
   d8b24:	2110      	movs	r1, #16
}
   d8b26:	e8bd 4010 	ldmia.w	sp!, {r4, lr}
    delete callbackPtr;
   d8b2a:	f001 beac 	b.w	da886 <_ZdlPvj>

000d8b2e <_ZN14RecursiveMutexD1Ev>:
    RecursiveMutex() : handle_(nullptr)
    {
        os_mutex_recursive_create(&handle_);
    }

    ~RecursiveMutex() {
   d8b2e:	b510      	push	{r4, lr}
   d8b30:	4604      	mov	r4, r0
        dispose();
    }

    void dispose()
    {
        if (handle_) {
   d8b32:	6800      	ldr	r0, [r0, #0]
   d8b34:	b108      	cbz	r0, d8b3a <_ZN14RecursiveMutexD1Ev+0xc>
            os_mutex_recursive_destroy(handle_);
   d8b36:	f7ff fc95 	bl	d8464 <os_mutex_recursive_destroy>
    }
   d8b3a:	4620      	mov	r0, r4
   d8b3c:	bd10      	pop	{r4, pc}
	...

000d8b40 <_GLOBAL__sub_I__ZN8particle3ble13WiringBleLock6mutex_E>:
BleCharacteristic BleLocalDevice::addCharacteristic(EnumFlags<BleCharacteristicProperty> properties, const String& desc, const BleOnDataReceivedStdFunction& callback) {
    WiringBleLock lk;
    return addCharacteristic(properties, desc.c_str(), callback);
}

} /* namespace particle */
   d8b40:	b510      	push	{r4, lr}
    RecursiveMutex() : handle_(nullptr)
   d8b42:	4c06      	ldr	r4, [pc, #24]	; (d8b5c <_GLOBAL__sub_I__ZN8particle3ble13WiringBleLock6mutex_E+0x1c>)
   d8b44:	2300      	movs	r3, #0
        os_mutex_recursive_create(&handle_);
   d8b46:	4620      	mov	r0, r4
    RecursiveMutex() : handle_(nullptr)
   d8b48:	6023      	str	r3, [r4, #0]
        os_mutex_recursive_create(&handle_);
   d8b4a:	f7ff fc83 	bl	d8454 <os_mutex_recursive_create>
RecursiveMutex WiringBleLock::mutex_;
   d8b4e:	4620      	mov	r0, r4
   d8b50:	4a03      	ldr	r2, [pc, #12]	; (d8b60 <_GLOBAL__sub_I__ZN8particle3ble13WiringBleLock6mutex_E+0x20>)
   d8b52:	4904      	ldr	r1, [pc, #16]	; (d8b64 <_GLOBAL__sub_I__ZN8particle3ble13WiringBleLock6mutex_E+0x24>)
} /* namespace particle */
   d8b54:	e8bd 4010 	ldmia.w	sp!, {r4, lr}
RecursiveMutex WiringBleLock::mutex_;
   d8b58:	f001 be90 	b.w	da87c <__aeabi_atexit>
   d8b5c:	2003e5e0 	.word	0x2003e5e0
   d8b60:	2003dee0 	.word	0x2003dee0
   d8b64:	000d8b2f 	.word	0x000d8b2f

000d8b68 <_ZN5spark13CellularClass5readyEv>:
        return network_listening(*this, 0, NULL);
    }

    bool ready()
    {
        return network_ready(*this, 0,  NULL);
   d8b68:	2200      	movs	r2, #0
   d8b6a:	6840      	ldr	r0, [r0, #4]
   d8b6c:	4611      	mov	r1, r2
   d8b6e:	f7ff bf0f 	b.w	d8990 <network_ready>

000d8b72 <_ZN5spark13CellularClass9listeningEv>:
        return network_listening(*this, 0, NULL);
   d8b72:	2200      	movs	r2, #0
   d8b74:	6840      	ldr	r0, [r0, #4]
   d8b76:	4611      	mov	r1, r2
   d8b78:	f7ff bf2a 	b.w	d89d0 <network_listening>

000d8b7c <_ZN5spark13CellularClass16getListenTimeoutEv>:
        return network_get_listen_timeout(*this, 0, NULL);
   d8b7c:	2200      	movs	r2, #0
   d8b7e:	6840      	ldr	r0, [r0, #4]
   d8b80:	4611      	mov	r1, r2
   d8b82:	f7ff bf35 	b.w	d89f0 <network_get_listen_timeout>

000d8b86 <_ZN5spark13CellularClass16setListenTimeoutEt>:
        network_set_listen_timeout(*this, timeout, NULL);
   d8b86:	6840      	ldr	r0, [r0, #4]
   d8b88:	2200      	movs	r2, #0
   d8b8a:	f7ff bf29 	b.w	d89e0 <network_set_listen_timeout>

000d8b8e <_ZN5spark13CellularClass6listenEb>:
        network_listen(*this, begin ? 0 : 1, NULL);
   d8b8e:	6840      	ldr	r0, [r0, #4]
   d8b90:	2200      	movs	r2, #0
   d8b92:	f081 0101 	eor.w	r1, r1, #1
   d8b96:	f7ff bf13 	b.w	d89c0 <network_listen>

000d8b9a <_ZN5spark13CellularClass3offEv>:
        network_off(*this, 0, 0, NULL);
   d8b9a:	2300      	movs	r3, #0
   d8b9c:	6840      	ldr	r0, [r0, #4]
   d8b9e:	461a      	mov	r2, r3
   d8ba0:	4619      	mov	r1, r3
   d8ba2:	f7ff bf05 	b.w	d89b0 <network_off>

000d8ba6 <_ZN5spark13CellularClass2onEv>:
        network_on(*this, 0, 0, NULL);
   d8ba6:	2300      	movs	r3, #0
   d8ba8:	6840      	ldr	r0, [r0, #4]
   d8baa:	461a      	mov	r2, r3
   d8bac:	4619      	mov	r1, r3
   d8bae:	f7ff bef7 	b.w	d89a0 <network_on>

000d8bb2 <_ZN5spark13CellularClass10connectingEv>:
        return network_connecting(*this, 0, NULL);
   d8bb2:	2200      	movs	r2, #0
   d8bb4:	6840      	ldr	r0, [r0, #4]
   d8bb6:	4611      	mov	r1, r2
   d8bb8:	f7ff beda 	b.w	d8970 <network_connecting>

000d8bbc <_ZN5spark13CellularClass10disconnectEv>:
        network_disconnect(*this, NETWORK_DISCONNECT_REASON_USER, NULL);
   d8bbc:	6840      	ldr	r0, [r0, #4]
   d8bbe:	2200      	movs	r2, #0
   d8bc0:	2102      	movs	r1, #2
   d8bc2:	f7ff bedd 	b.w	d8980 <network_disconnect>

000d8bc6 <_ZN5spark13CellularClass7connectEj>:
        network_connect(*this, flags, 0, NULL);
   d8bc6:	2300      	movs	r3, #0
   d8bc8:	6840      	ldr	r0, [r0, #4]
   d8bca:	461a      	mov	r2, r3
   d8bcc:	f7ff bec8 	b.w	d8960 <network_connect>

000d8bd0 <_GLOBAL__sub_I__ZN5spark13CellularClass4RSSIEv>:
    int tx_total;
    int rx_total;

    CellularDataHal()
    {
        memset(this, 0, sizeof(*this));
   d8bd0:	4b08      	ldr	r3, [pc, #32]	; (d8bf4 <_GLOBAL__sub_I__ZN5spark13CellularClass4RSSIEv+0x24>)
        return (band_get.ok = true);
    }

    CellularClass Cellular;
    // NetworkClass& Network = Cellular;
}
   d8bd2:	b510      	push	{r4, lr}
   d8bd4:	2428      	movs	r4, #40	; 0x28
   d8bd6:	4622      	mov	r2, r4
   d8bd8:	4618      	mov	r0, r3
   d8bda:	2100      	movs	r1, #0
   d8bdc:	f002 fcf0 	bl	db5c0 <memset>
    static NetworkClass& from(network_interface_t nif);

    virtual IPAddress resolve(const char* name);

    explicit NetworkClass(network_interface_t iface)
            : iface_(iface) {
   d8be0:	4b05      	ldr	r3, [pc, #20]	; (d8bf8 <_GLOBAL__sub_I__ZN5spark13CellularClass4RSSIEv+0x28>)
        cid = -1;
        size = sizeof(*this);
   d8be2:	8004      	strh	r4, [r0, #0]
        cid = -1;
   d8be4:	f04f 32ff 	mov.w	r2, #4294967295	; 0xffffffff
   d8be8:	6042      	str	r2, [r0, #4]
   d8bea:	2204      	movs	r2, #4
   d8bec:	605a      	str	r2, [r3, #4]
            NetworkClass(NETWORK_INTERFACE_CELLULAR) {
   d8bee:	4a03      	ldr	r2, [pc, #12]	; (d8bfc <_GLOBAL__sub_I__ZN5spark13CellularClass4RSSIEv+0x2c>)
   d8bf0:	601a      	str	r2, [r3, #0]
   d8bf2:	bd10      	pop	{r4, pc}
   d8bf4:	2003e5ec 	.word	0x2003e5ec
   d8bf8:	2003e5e4 	.word	0x2003e5e4
   d8bfc:	000de310 	.word	0x000de310

000d8c00 <_ZNSt15_Sp_counted_ptrIPN8particle6detail10FutureImplIbNS1_13FutureContextEEELN9__gnu_cxx12_Lock_policyE0EED1Ev>:
    class _Sp_counted_ptr final : public _Sp_counted_base<_Lp>
   d8c00:	4770      	bx	lr

000d8c02 <_ZNSt15_Sp_counted_ptrIPN8particle6detail10FutureImplIbNS1_13FutureContextEEELN9__gnu_cxx12_Lock_policyE0EE14_M_get_deleterERKSt9type_info>:
      { return nullptr; }
   d8c02:	2000      	movs	r0, #0
   d8c04:	4770      	bx	lr

000d8c06 <_ZNSt15_Sp_counted_ptrIPN8particle6detail10FutureImplIbNS1_13FutureContextEEELN9__gnu_cxx12_Lock_policyE0EED0Ev>:
    class _Sp_counted_ptr final : public _Sp_counted_base<_Lp>
   d8c06:	b510      	push	{r4, lr}
   d8c08:	2110      	movs	r1, #16
   d8c0a:	4604      	mov	r4, r0
   d8c0c:	f001 fe3b 	bl	da886 <_ZdlPvj>
   d8c10:	4620      	mov	r0, r4
   d8c12:	bd10      	pop	{r4, pc}

000d8c14 <_ZNSt15_Sp_counted_ptrIPN8particle6detail10FutureImplIbNS1_13FutureContextEEELN9__gnu_cxx12_Lock_policyE0EE10_M_destroyEv>:
      _M_destroy() noexcept
   d8c14:	b508      	push	{r3, lr}
      { delete this; }
   d8c16:	f7ff fff6 	bl	d8c06 <_ZNSt15_Sp_counted_ptrIPN8particle6detail10FutureImplIbNS1_13FutureContextEEELN9__gnu_cxx12_Lock_policyE0EED0Ev>
   d8c1a:	bd08      	pop	{r3, pc}

000d8c1c <_ZN8particle5ErrorC1EOS0_>:

inline particle::Error::Error(const Error& error) :
        Error(error.type_, error.msg_) {
}

inline particle::Error::Error(Error&& error) :
   d8c1c:	b530      	push	{r4, r5, lr}
        type_(type) {
   d8c1e:	2200      	movs	r2, #0
   d8c20:	f64f 749c 	movw	r4, #65436	; 0xff9c
   d8c24:	6002      	str	r2, [r0, #0]
   d8c26:	8084      	strh	r4, [r0, #4]
   d8c28:	888d      	ldrh	r5, [r1, #4]
      __b = _GLIBCXX_MOVE(__tmp);
   d8c2a:	808c      	strh	r4, [r1, #4]
      __a = _GLIBCXX_MOVE(__b);
   d8c2c:	680c      	ldr	r4, [r1, #0]
   d8c2e:	8085      	strh	r5, [r0, #4]
   d8c30:	6004      	str	r4, [r0, #0]
      __b = _GLIBCXX_MOVE(__tmp);
   d8c32:	600a      	str	r2, [r1, #0]
        Error() {
    swap(*this, error);
}
   d8c34:	bd30      	pop	{r4, r5, pc}

000d8c36 <_ZN8particle5ErrorD1Ev>:

inline particle::Error::~Error() {
   d8c36:	b510      	push	{r4, lr}
   d8c38:	4604      	mov	r4, r0
    free((void*)msg_);
   d8c3a:	6800      	ldr	r0, [r0, #0]
   d8c3c:	f7ff fef8 	bl	d8a30 <free>
}
   d8c40:	4620      	mov	r0, r4
   d8c42:	bd10      	pop	{r4, pc}

000d8c44 <_ZNSt15_Sp_counted_ptrIPN8particle6detail10FutureImplIbNS1_13FutureContextEEELN9__gnu_cxx12_Lock_policyE0EE10_M_disposeEv>:
      _M_dispose() noexcept
   d8c44:	b538      	push	{r3, r4, r5, lr}
      { delete _M_ptr; }
   d8c46:	68c4      	ldr	r4, [r0, #12]
   d8c48:	b1f4      	cbz	r4, d8c88 <_ZNSt15_Sp_counted_ptrIPN8particle6detail10FutureImplIbNS1_13FutureContextEEELN9__gnu_cxx12_Lock_policyE0EE10_M_disposeEv+0x44>
   d8c4a:	7823      	ldrb	r3, [r4, #0]
    ~FutureImpl() {
        // Call destructor of the appropriate unnamed enum's field
        const State s = this->state();
        if (s == State::SUCCEEDED) {
            result_.~ResultT();
        } else if (s == State::FAILED) {
   d8c4c:	2b02      	cmp	r3, #2
   d8c4e:	d103      	bne.n	d8c58 <_ZNSt15_Sp_counted_ptrIPN8particle6detail10FutureImplIbNS1_13FutureContextEEELN9__gnu_cxx12_Lock_policyE0EE10_M_disposeEv+0x14>
            error_.~Error();
   d8c50:	f104 000c 	add.w	r0, r4, #12
   d8c54:	f7ff ffef 	bl	d8c36 <_ZN8particle5ErrorD1Ev>
      {
	memory_order __b = __m & __memory_order_mask;
	__glibcxx_assert(__b != memory_order_release);
	__glibcxx_assert(__b != memory_order_acq_rel);

	return __atomic_load_n(&_M_p, int(__m));
   d8c58:	6865      	ldr	r5, [r4, #4]
        delete onSuccess_.load(std::memory_order_relaxed);
   d8c5a:	b135      	cbz	r5, d8c6a <_ZNSt15_Sp_counted_ptrIPN8particle6detail10FutureImplIbNS1_13FutureContextEEELN9__gnu_cxx12_Lock_policyE0EE10_M_disposeEv+0x26>
    class function<_Res(_ArgTypes...)>
   d8c5c:	4628      	mov	r0, r5
   d8c5e:	f7fb fb57 	bl	d4310 <_ZNSt14_Function_baseD1Ev>
   d8c62:	2110      	movs	r1, #16
   d8c64:	4628      	mov	r0, r5
   d8c66:	f001 fe0e 	bl	da886 <_ZdlPvj>
   d8c6a:	68a5      	ldr	r5, [r4, #8]
        delete onError_.load(std::memory_order_relaxed);
   d8c6c:	b135      	cbz	r5, d8c7c <_ZNSt15_Sp_counted_ptrIPN8particle6detail10FutureImplIbNS1_13FutureContextEEELN9__gnu_cxx12_Lock_policyE0EE10_M_disposeEv+0x38>
   d8c6e:	4628      	mov	r0, r5
   d8c70:	f7fb fb4e 	bl	d4310 <_ZNSt14_Function_baseD1Ev>
   d8c74:	2110      	movs	r1, #16
   d8c76:	4628      	mov	r0, r5
   d8c78:	f001 fe05 	bl	da886 <_ZdlPvj>
   d8c7c:	4620      	mov	r0, r4
   d8c7e:	2114      	movs	r1, #20
   d8c80:	e8bd 4038 	ldmia.w	sp!, {r3, r4, r5, lr}
   d8c84:	f001 bdff 	b.w	da886 <_ZdlPvj>
   d8c88:	bd38      	pop	{r3, r4, r5, pc}

000d8c8a <_ZN10CloudClass22call_raw_user_functionEPvPKcS0_>:
{
    return CloudDisconnectOptions(options->flags, options->timeout, options->graceful);
}

int CloudClass::call_raw_user_function(void* data, const char* param, void* reserved)
{
   d8c8a:	b510      	push	{r4, lr}
   d8c8c:	b088      	sub	sp, #32
   d8c8e:	4604      	mov	r4, r0
    user_function_int_str_t* fn = (user_function_int_str_t*)(data);
    String p(param);
   d8c90:	4668      	mov	r0, sp
   d8c92:	f001 f8ac 	bl	d9dee <_ZN6StringC1EPKc>
    return (*fn)(p);
   d8c96:	4669      	mov	r1, sp
   d8c98:	a804      	add	r0, sp, #16
   d8c9a:	f001 f8cb 	bl	d9e34 <_ZN6StringC1ERKS_>
   d8c9e:	a804      	add	r0, sp, #16
   d8ca0:	47a0      	blx	r4
   d8ca2:	4604      	mov	r4, r0
   d8ca4:	a804      	add	r0, sp, #16
   d8ca6:	f001 f857 	bl	d9d58 <_ZN6StringD1Ev>
    String p(param);
   d8caa:	4668      	mov	r0, sp
   d8cac:	f001 f854 	bl	d9d58 <_ZN6StringD1Ev>
}
   d8cb0:	4620      	mov	r0, r4
   d8cb2:	b008      	add	sp, #32
   d8cb4:	bd10      	pop	{r4, pc}

000d8cb6 <_ZN10CloudClass25call_wiring_event_handlerEPKvPKcS3_>:
    user_std_function_int_str_t* fn = (user_std_function_int_str_t*)(data);
    return (*fn)(String(param));
}

void CloudClass::call_wiring_event_handler(const void* handler_data, const char *event_name, const char *data)
{
   d8cb6:	b507      	push	{r0, r1, r2, lr}
   d8cb8:	e9cd 1200 	strd	r1, r2, [sp]
      if (_M_empty())
   d8cbc:	6882      	ldr	r2, [r0, #8]
   d8cbe:	b90a      	cbnz	r2, d8cc4 <_ZN10CloudClass25call_wiring_event_handlerEPKvPKcS3_+0xe>
	__throw_bad_function_call();
   d8cc0:	f001 fde7 	bl	da892 <_ZSt25__throw_bad_function_callv>
      return _M_invoker(_M_functor, std::forward<_ArgTypes>(__args)...);
   d8cc4:	68c3      	ldr	r3, [r0, #12]
   d8cc6:	aa01      	add	r2, sp, #4
   d8cc8:	4669      	mov	r1, sp
   d8cca:	4798      	blx	r3
    wiring_event_handler_t* fn = (wiring_event_handler_t*)(handler_data);
    (*fn)(event_name, data);
}
   d8ccc:	b003      	add	sp, #12
   d8cce:	f85d fb04 	ldr.w	pc, [sp], #4

000d8cd2 <_ZN10CloudClass17register_functionEPFiPvPKcS0_ES0_S2_>:

bool CloudClass::register_function(cloud_function_t fn, void* data, const char* funcKey)
{
   d8cd2:	b51f      	push	{r0, r1, r2, r3, r4, lr}
    const char *funcKey;
    cloud_function_t fn;
    void* data;

     cloud_function_descriptor() {
         memset(this, 0, sizeof(*this));
   d8cd4:	2300      	movs	r3, #0
    cloud_function_descriptor desc = {};
    desc.size = sizeof(desc);
    desc.fn = fn;
    desc.data = (void*)data;
   d8cd6:	e9cd 0102 	strd	r0, r1, [sp, #8]
    desc.funcKey = funcKey;
   d8cda:	9201      	str	r2, [sp, #4]
         size = sizeof(*this);
   d8cdc:	2410      	movs	r4, #16
    return spark_function(NULL, (user_function_int_str_t*)&desc, NULL);
   d8cde:	461a      	mov	r2, r3
   d8ce0:	4669      	mov	r1, sp
   d8ce2:	4618      	mov	r0, r3
         memset(this, 0, sizeof(*this));
   d8ce4:	f8ad 3002 	strh.w	r3, [sp, #2]
         size = sizeof(*this);
   d8ce8:	f8ad 4000 	strh.w	r4, [sp]
   d8cec:	f7ff fdd8 	bl	d88a0 <spark_function>
}
   d8cf0:	b004      	add	sp, #16
   d8cf2:	bd10      	pop	{r4, pc}

000d8cf4 <_ZN8particle11PromiseBaseIbNS_6detail13FutureContextEE11fromDataPtrEPv>:
        // TODO: Use custom reference counting object to avoid unnecessary memory allocation
        return new detail::FutureImplPtr<ResultT, ContextT>(p_);
    }

    // Unwraps promise from an object pointer created via dataPtr() method
    static Promise<ResultT, ContextT> fromDataPtr(void* data) {
   d8cf4:	b573      	push	{r0, r1, r4, r5, r6, lr}
      __shared_ptr(const __shared_ptr&) noexcept = default;
   d8cf6:	460e      	mov	r6, r1
   d8cf8:	4604      	mov	r4, r0
   d8cfa:	f856 3b04 	ldr.w	r3, [r6], #4
   d8cfe:	9300      	str	r3, [sp, #0]
   d8d00:	460d      	mov	r5, r1
   d8d02:	a801      	add	r0, sp, #4
   d8d04:	4631      	mov	r1, r6
   d8d06:	f7fe ff0d 	bl	d7b24 <_ZNSt14__shared_countILN9__gnu_cxx12_Lock_policyE0EEC1ERKS2_>
	_Sp_counted_base<_Lp>* __tmp = __r._M_pi;
   d8d0a:	9a01      	ldr	r2, [sp, #4]
      : _M_ptr(__r._M_ptr), _M_refcount()
   d8d0c:	9b00      	ldr	r3, [sp, #0]
	_M_pi = __tmp;
   d8d0e:	6062      	str	r2, [r4, #4]
      : _M_ptr(__r._M_ptr), _M_refcount()
   d8d10:	6023      	str	r3, [r4, #0]
      ~__shared_ptr() = default;
   d8d12:	a801      	add	r0, sp, #4
	__r._M_pi = _M_pi;
   d8d14:	2300      	movs	r3, #0
   d8d16:	9301      	str	r3, [sp, #4]
	__r._M_ptr = 0;
   d8d18:	9300      	str	r3, [sp, #0]
      ~__shared_ptr() = default;
   d8d1a:	f7fc fc4b 	bl	d55b4 <_ZNSt14__shared_countILN9__gnu_cxx12_Lock_policyE0EED1Ev>
   d8d1e:	4630      	mov	r0, r6
   d8d20:	f7fc fc48 	bl	d55b4 <_ZNSt14__shared_countILN9__gnu_cxx12_Lock_policyE0EED1Ev>
        auto d = static_cast<detail::FutureImplPtr<ResultT, ContextT>*>(data);
        const Promise<ResultT, ContextT> p(*d);
        delete d;
   d8d24:	4628      	mov	r0, r5
   d8d26:	2108      	movs	r1, #8
   d8d28:	f001 fdad 	bl	da886 <_ZdlPvj>
        return p;
    }
   d8d2c:	4620      	mov	r0, r4
   d8d2e:	b002      	add	sp, #8
   d8d30:	bd70      	pop	{r4, r5, r6, pc}

000d8d32 <_ZNKSt8functionIFvRKN8particle5ErrorEEEclES3_>:
      if (_M_empty())
   d8d32:	6882      	ldr	r2, [r0, #8]
    function<_Res(_ArgTypes...)>::
   d8d34:	b510      	push	{r4, lr}
      if (_M_empty())
   d8d36:	b90a      	cbnz	r2, d8d3c <_ZNKSt8functionIFvRKN8particle5ErrorEEEclES3_+0xa>
	__throw_bad_function_call();
   d8d38:	f001 fdab 	bl	da892 <_ZSt25__throw_bad_function_callv>
    }
   d8d3c:	e8bd 4010 	ldmia.w	sp!, {r4, lr}
      return _M_invoker(_M_functor, std::forward<_ArgTypes>(__args)...);
   d8d40:	68c3      	ldr	r3, [r0, #12]
   d8d42:	4718      	bx	r3

000d8d44 <_ZNSt17_Function_handlerIFvvESt5_BindIFSt8functionIFvRKN8particle5ErrorEEES4_EEE9_M_invokeERKSt9_Any_data>:
      _M_invoke(const _Any_data& __functor, _ArgTypes&&... __args)
   d8d44:	b508      	push	{r3, lr}
	    return __source._M_access<_Functor*>();
   d8d46:	6800      	ldr	r0, [r0, #0]
    { return std::forward<_Fn>(__f)(std::forward<_Args>(__args)...); }
   d8d48:	f100 0110 	add.w	r1, r0, #16
   d8d4c:	f7ff fff1 	bl	d8d32 <_ZNKSt8functionIFvRKN8particle5ErrorEEEclES3_>
      }
   d8d50:	bd08      	pop	{r3, pc}

000d8d52 <_ZNKSt8functionIFvRKbEEclES1_>:
      if (_M_empty())
   d8d52:	6882      	ldr	r2, [r0, #8]
    function<_Res(_ArgTypes...)>::
   d8d54:	b510      	push	{r4, lr}
      if (_M_empty())
   d8d56:	b90a      	cbnz	r2, d8d5c <_ZNKSt8functionIFvRKbEEclES1_+0xa>
	__throw_bad_function_call();
   d8d58:	f001 fd9b 	bl	da892 <_ZSt25__throw_bad_function_callv>
    }
   d8d5c:	e8bd 4010 	ldmia.w	sp!, {r4, lr}
      return _M_invoker(_M_functor, std::forward<_ArgTypes>(__args)...);
   d8d60:	68c3      	ldr	r3, [r0, #12]
   d8d62:	4718      	bx	r3

000d8d64 <_ZNSt17_Function_handlerIFvvESt5_BindIFSt8functionIFvRKbEEbEEE9_M_invokeERKSt9_Any_data>:
      _M_invoke(const _Any_data& __functor, _ArgTypes&&... __args)
   d8d64:	b508      	push	{r3, lr}
	    return __source._M_access<_Functor*>();
   d8d66:	6800      	ldr	r0, [r0, #0]
   d8d68:	f100 0110 	add.w	r1, r0, #16
   d8d6c:	f7ff fff1 	bl	d8d52 <_ZNKSt8functionIFvRKbEEclES1_>
      }
   d8d70:	bd08      	pop	{r3, pc}
	...

000d8d74 <_ZNSt14__shared_countILN9__gnu_cxx12_Lock_policyE0EEC1IPN8particle6detail10FutureImplIbNS5_13FutureContextEEEEET_>:
	__shared_count(_Ptr __p) : _M_pi(0)
   d8d74:	b538      	push	{r3, r4, r5, lr}
   d8d76:	2300      	movs	r3, #0
   d8d78:	4604      	mov	r4, r0
   d8d7a:	6003      	str	r3, [r0, #0]
	      _M_pi = new _Sp_counted_ptr<_Ptr, _Lp>(__p);
   d8d7c:	2010      	movs	r0, #16
	__shared_count(_Ptr __p) : _M_pi(0)
   d8d7e:	460d      	mov	r5, r1
	      _M_pi = new _Sp_counted_ptr<_Ptr, _Lp>(__p);
   d8d80:	f7fb f989 	bl	d4096 <_Znwj>
   d8d84:	b128      	cbz	r0, d8d92 <_ZNSt14__shared_countILN9__gnu_cxx12_Lock_policyE0EEC1IPN8particle6detail10FutureImplIbNS5_13FutureContextEEEEET_+0x1e>
      : _M_use_count(1), _M_weak_count(1) { }
   d8d86:	2301      	movs	r3, #1
   d8d88:	e9c0 3301 	strd	r3, r3, [r0, #4]
      : _M_ptr(__p) { }
   d8d8c:	4b02      	ldr	r3, [pc, #8]	; (d8d98 <_ZNSt14__shared_countILN9__gnu_cxx12_Lock_policyE0EEC1IPN8particle6detail10FutureImplIbNS5_13FutureContextEEEEET_+0x24>)
   d8d8e:	6003      	str	r3, [r0, #0]
   d8d90:	60c5      	str	r5, [r0, #12]
	      _M_pi = new _Sp_counted_ptr<_Ptr, _Lp>(__p);
   d8d92:	6020      	str	r0, [r4, #0]
	}
   d8d94:	4620      	mov	r0, r4
   d8d96:	bd38      	pop	{r3, r4, r5, pc}
   d8d98:	000de34c 	.word	0x000de34c

000d8d9c <_ZNSt8functionIFvRKN8particle5ErrorEEEC1ERKS5_>:
    function<_Res(_ArgTypes...)>::
   d8d9c:	b538      	push	{r3, r4, r5, lr}
    _Function_base() : _M_manager(nullptr) { }
   d8d9e:	2300      	movs	r3, #0
   d8da0:	6083      	str	r3, [r0, #8]
      { return !_M_empty(); }
   d8da2:	688b      	ldr	r3, [r1, #8]
    function<_Res(_ArgTypes...)>::
   d8da4:	4604      	mov	r4, r0
   d8da6:	460d      	mov	r5, r1
      if (static_cast<bool>(__x))
   d8da8:	b12b      	cbz	r3, d8db6 <_ZNSt8functionIFvRKN8particle5ErrorEEEC1ERKS5_+0x1a>
	  __x._M_manager(_M_functor, __x._M_functor, __clone_functor);
   d8daa:	2202      	movs	r2, #2
   d8dac:	4798      	blx	r3
	  _M_invoker = __x._M_invoker;
   d8dae:	68eb      	ldr	r3, [r5, #12]
   d8db0:	60e3      	str	r3, [r4, #12]
	  _M_manager = __x._M_manager;
   d8db2:	68ab      	ldr	r3, [r5, #8]
   d8db4:	60a3      	str	r3, [r4, #8]
    }
   d8db6:	4620      	mov	r0, r4
   d8db8:	bd38      	pop	{r3, r4, r5, pc}
	...

000d8dbc <_ZN8particle11PromiseBaseIbNS_6detail13FutureContextEE8setErrorENS_5ErrorE>:
    void setError(Error error) {
   d8dbc:	b5f0      	push	{r4, r5, r6, r7, lr}
   d8dbe:	b089      	sub	sp, #36	; 0x24
      { return static_cast<const __shared_ptr<_Tp, _Lp>*>(this)->get(); }
   d8dc0:	6804      	ldr	r4, [r0, #0]
        p_->setError(std::move(error));
   d8dc2:	4668      	mov	r0, sp
   d8dc4:	f7ff ff2a 	bl	d8c1c <_ZN8particle5ErrorC1EOS0_>

      bool
      compare_exchange_strong(_Tp& __e, _Tp __i, memory_order __s,
			      memory_order __f) noexcept
      {
	return __atomic_compare_exchange(std::__addressof(_M_i),
   d8dc8:	f04f 0302 	mov.w	r3, #2
   d8dcc:	e8d4 2f4f 	ldrexb	r2, [r4]
   d8dd0:	2a00      	cmp	r2, #0
   d8dd2:	d103      	bne.n	d8ddc <_ZN8particle11PromiseBaseIbNS_6detail13FutureContextEE8setErrorENS_5ErrorE+0x20>
   d8dd4:	e8c4 3f41 	strexb	r1, r3, [r4]
   d8dd8:	2900      	cmp	r1, #0
   d8dda:	d1f7      	bne.n	d8dcc <_ZN8particle11PromiseBaseIbNS_6detail13FutureContextEE8setErrorENS_5ErrorE+0x10>
        if (this->changeState(State::FAILED)) {
   d8ddc:	d125      	bne.n	d8e2a <_ZN8particle11PromiseBaseIbNS_6detail13FutureContextEE8setErrorENS_5ErrorE+0x6e>
            new(&error_) Error(std::move(error));
   d8dde:	f104 050c 	add.w	r5, r4, #12
   d8de2:	4669      	mov	r1, sp
   d8de4:	4628      	mov	r0, r5
   d8de6:	f7ff ff19 	bl	d8c1c <_ZN8particle5ErrorC1EOS0_>
	__atomic_store_n(&_M_i, __i, int(__m));
   d8dea:	f3bf 8f5b 	dmb	ish
   d8dee:	2301      	movs	r3, #1
   d8df0:	7063      	strb	r3, [r4, #1]

      _GLIBCXX_ALWAYS_INLINE __pointer_type
      exchange(__pointer_type __p,
	       memory_order __m = memory_order_seq_cst) noexcept
      {
	return __atomic_exchange_n(&_M_p, __p, int(__m));
   d8df2:	2000      	movs	r0, #0
   d8df4:	f104 0308 	add.w	r3, r4, #8
   d8df8:	f3bf 8f5b 	dmb	ish
   d8dfc:	e853 6f00 	ldrex	r6, [r3]
   d8e00:	e843 0200 	strex	r2, r0, [r3]
   d8e04:	2a00      	cmp	r2, #0
   d8e06:	d1f9      	bne.n	d8dfc <_ZN8particle11PromiseBaseIbNS_6detail13FutureContextEE8setErrorENS_5ErrorE+0x40>
   d8e08:	f3bf 8f5b 	dmb	ish
        if (callbackPtr) {
   d8e0c:	b16e      	cbz	r6, d8e2a <_ZN8particle11PromiseBaseIbNS_6detail13FutureContextEE8setErrorENS_5ErrorE+0x6e>
        return (application_thread_current(nullptr) != 0);
   d8e0e:	f7ff fd01 	bl	d8814 <application_thread_current>
        if (ContextT::isApplicationThreadCurrent()) {
   d8e12:	b178      	cbz	r0, d8e34 <_ZN8particle11PromiseBaseIbNS_6detail13FutureContextEE8setErrorENS_5ErrorE+0x78>
            callback(std::forward<ArgsT>(args)...); // Synchronous call
   d8e14:	4629      	mov	r1, r5
   d8e16:	4630      	mov	r0, r6
   d8e18:	f7ff ff8b 	bl	d8d32 <_ZNKSt8functionIFvRKN8particle5ErrorEEEclES3_>
    class function<_Res(_ArgTypes...)>
   d8e1c:	4630      	mov	r0, r6
   d8e1e:	f7fb fa77 	bl	d4310 <_ZNSt14_Function_baseD1Ev>
            delete callbackPtr;
   d8e22:	2110      	movs	r1, #16
   d8e24:	4630      	mov	r0, r6
   d8e26:	f001 fd2e 	bl	da886 <_ZdlPvj>
        p_->setError(std::move(error));
   d8e2a:	4668      	mov	r0, sp
   d8e2c:	f7ff ff03 	bl	d8c36 <_ZN8particle5ErrorD1Ev>
    }
   d8e30:	b009      	add	sp, #36	; 0x24
   d8e32:	bdf0      	pop	{r4, r5, r6, r7, pc}
	: _M_f(__f), _M_bound_args(std::forward<_Args>(__args)...)
   d8e34:	4631      	mov	r1, r6
   d8e36:	a802      	add	r0, sp, #8
   d8e38:	f7ff ffb0 	bl	d8d9c <_ZNSt8functionIFvRKN8particle5ErrorEEEC1ERKS5_>
        Error(error.type_, error.msg_) {
   d8e3c:	68e0      	ldr	r0, [r4, #12]
   d8e3e:	f9b4 5010 	ldrsh.w	r5, [r4, #16]
        msg_(msg ? (const char*)strdup(msg) : nullptr),
   d8e42:	b108      	cbz	r0, d8e48 <_ZN8particle11PromiseBaseIbNS_6detail13FutureContextEE8setErrorENS_5ErrorE+0x8c>
   d8e44:	f002 fbfa 	bl	db63c <strdup>
        type_(type) {
   d8e48:	9006      	str	r0, [sp, #24]
            auto callbackPtr = new std::function<void()>(std::bind(callback, std::forward<ArgsT>(args)...));
   d8e4a:	2010      	movs	r0, #16
   d8e4c:	f8ad 501c 	strh.w	r5, [sp, #28]
   d8e50:	f7fb f921 	bl	d4096 <_Znwj>
   d8e54:	4605      	mov	r5, r0
   d8e56:	b1e8      	cbz	r0, d8e94 <_ZN8particle11PromiseBaseIbNS_6detail13FutureContextEE8setErrorENS_5ErrorE+0xd8>
    _Function_base() : _M_manager(nullptr) { }
   d8e58:	2700      	movs	r7, #0
   d8e5a:	6087      	str	r7, [r0, #8]
	{ __functor._M_access<_Functor*>() = new _Functor(std::move(__f)); }
   d8e5c:	2018      	movs	r0, #24
   d8e5e:	f7fb f91a 	bl	d4096 <_Znwj>
   d8e62:	4604      	mov	r4, r0
   d8e64:	b188      	cbz	r0, d8e8a <_ZN8particle11PromiseBaseIbNS_6detail13FutureContextEE8setErrorENS_5ErrorE+0xce>
	std::swap(_M_functor, __x._M_functor);
   d8e66:	4601      	mov	r1, r0
    _Function_base() : _M_manager(nullptr) { }
   d8e68:	6087      	str	r7, [r0, #8]
	std::swap(_M_functor, __x._M_functor);
   d8e6a:	a802      	add	r0, sp, #8
   d8e6c:	f7fd f814 	bl	d5e98 <_ZSt4swapISt9_Any_dataENSt9enable_ifIXsrSt6__and_IJSt6__not_ISt15__is_tuple_likeIT_EESt21is_move_constructibleIS5_ESt18is_move_assignableIS5_EEE5valueEvE4typeERS5_SF_>
      _Tp __tmp = _GLIBCXX_MOVE(__a);
   d8e70:	9b04      	ldr	r3, [sp, #16]
      __a = _GLIBCXX_MOVE(__b);
   d8e72:	68a2      	ldr	r2, [r4, #8]
      __b = _GLIBCXX_MOVE(__tmp);
   d8e74:	60a3      	str	r3, [r4, #8]
      _Tp __tmp = _GLIBCXX_MOVE(__a);
   d8e76:	9b05      	ldr	r3, [sp, #20]
      __a = _GLIBCXX_MOVE(__b);
   d8e78:	9204      	str	r2, [sp, #16]
   d8e7a:	a906      	add	r1, sp, #24
   d8e7c:	68e2      	ldr	r2, [r4, #12]
      __b = _GLIBCXX_MOVE(__tmp);
   d8e7e:	60e3      	str	r3, [r4, #12]
   d8e80:	f104 0010 	add.w	r0, r4, #16
      __a = _GLIBCXX_MOVE(__b);
   d8e84:	9205      	str	r2, [sp, #20]
   d8e86:	f7ff fec9 	bl	d8c1c <_ZN8particle5ErrorC1EOS0_>
	    _M_invoker = &_My_handler::_M_invoke;
   d8e8a:	4b08      	ldr	r3, [pc, #32]	; (d8eac <_ZN8particle11PromiseBaseIbNS_6detail13FutureContextEE8setErrorENS_5ErrorE+0xf0>)
   d8e8c:	60eb      	str	r3, [r5, #12]
	    _M_manager = &_My_handler::_M_manager;
   d8e8e:	4b08      	ldr	r3, [pc, #32]	; (d8eb0 <_ZN8particle11PromiseBaseIbNS_6detail13FutureContextEE8setErrorENS_5ErrorE+0xf4>)
	{ __functor._M_access<_Functor*>() = new _Functor(std::move(__f)); }
   d8e90:	602c      	str	r4, [r5, #0]
	    _M_manager = &_My_handler::_M_manager;
   d8e92:	60ab      	str	r3, [r5, #8]
    struct _Head_base<_Idx, _Head, false>
   d8e94:	a806      	add	r0, sp, #24
   d8e96:	f7ff fece 	bl	d8c36 <_ZN8particle5ErrorD1Ev>
    class function<_Res(_ArgTypes...)>
   d8e9a:	a802      	add	r0, sp, #8
   d8e9c:	f7fb fa38 	bl	d4310 <_ZNSt14_Function_baseD1Ev>
        return (application_thread_invoke(callback, data, nullptr) == 0);
   d8ea0:	2200      	movs	r2, #0
   d8ea2:	4629      	mov	r1, r5
   d8ea4:	4803      	ldr	r0, [pc, #12]	; (d8eb4 <_ZN8particle11PromiseBaseIbNS_6detail13FutureContextEE8setErrorENS_5ErrorE+0xf8>)
   d8ea6:	f7ff fcbd 	bl	d8824 <application_thread_invoke>
   d8eaa:	e7b7      	b.n	d8e1c <_ZN8particle11PromiseBaseIbNS_6detail13FutureContextEE8setErrorENS_5ErrorE+0x60>
   d8eac:	000d8d45 	.word	0x000d8d45
   d8eb0:	000d8fdd 	.word	0x000d8fdd
   d8eb4:	000d8b07 	.word	0x000d8b07

000d8eb8 <_ZN10CloudClass13publish_eventEPKcS1_iN8particle5FlagsI15PublishFlagTypehEE>:

Future<bool> CloudClass::publish_event(const char *eventName, const char *eventData, int ttl, PublishFlags flags) {
   d8eb8:	e92d 47f0 	stmdb	sp!, {r4, r5, r6, r7, r8, r9, sl, lr}
   d8ebc:	b08a      	sub	sp, #40	; 0x28
   d8ebe:	4605      	mov	r5, r0
   d8ec0:	f89d 9048 	ldrb.w	r9, [sp, #72]	; 0x48
   d8ec4:	460c      	mov	r4, r1
   d8ec6:	4617      	mov	r7, r2
   d8ec8:	4698      	mov	r8, r3
    static void sleep(Spark_Sleep_TypeDef sleepMode, long seconds=0) __attribute__ ((deprecated("Please use System.sleep() instead.")))
    { SystemClass::sleep(sleepMode, seconds); }
    static void sleep(uint16_t wakeUpPin, InterruptMode edgeTriggerMode, long seconds=0) __attribute__ ((deprecated("Please use System.sleep() instead.")))
    { SystemClass::sleep(wakeUpPin, edgeTriggerMode, seconds); }

    static bool connected(void) { return spark_cloud_flag_connected(); }
   d8eca:	f7ff fd01 	bl	d88d0 <spark_cloud_flag_connected>
   d8ece:	ae07      	add	r6, sp, #28
    if (!connected()) {
   d8ed0:	4682      	mov	sl, r0
   d8ed2:	bb38      	cbnz	r0, d8f24 <_ZN10CloudClass13publish_eventEPKcS1_iN8particle5FlagsI15PublishFlagTypehEE+0x6c>
        type_(type) {
   d8ed4:	f64f 732e 	movw	r3, #65326	; 0xff2e
   d8ed8:	9005      	str	r0, [sp, #20]
    typedef typename detail::FutureImpl<ResultT, ContextT>::OnSuccessCallback OnSuccessCallback;
    typedef typename detail::FutureImpl<ResultT, ContextT>::OnErrorCallback OnErrorCallback;

    // Construct failed future
    explicit FutureBase(Error error) :
            p_(new detail::FutureImpl<ResultT, ContextT>(std::move(error))) {
   d8eda:	a905      	add	r1, sp, #20
   d8edc:	4630      	mov	r0, r6
   d8ede:	f8ad 3018 	strh.w	r3, [sp, #24]
   d8ee2:	f7ff fe9b 	bl	d8c1c <_ZN8particle5ErrorC1EOS0_>
   d8ee6:	2014      	movs	r0, #20
   d8ee8:	f7fb f8d5 	bl	d4096 <_Znwj>
   d8eec:	4604      	mov	r4, r0
   d8eee:	b148      	cbz	r0, d8f04 <_ZN10CloudClass13publish_eventEPKcS1_iN8particle5FlagsI15PublishFlagTypehEE+0x4c>
      constexpr atomic(_Tp __i) noexcept : _M_i(__i) { }
   d8ef0:	2302      	movs	r3, #2
   d8ef2:	7003      	strb	r3, [r0, #0]
      constexpr __atomic_base(__int_type __i) noexcept : _M_i (__i) { }
   d8ef4:	2301      	movs	r3, #1
      constexpr __atomic_base(__pointer_type __p) noexcept : _M_p (__p) { }
   d8ef6:	e9c0 aa01 	strd	sl, sl, [r0, #4]
      constexpr __atomic_base(__int_type __i) noexcept : _M_i (__i) { }
   d8efa:	7043      	strb	r3, [r0, #1]
            error_(std::move(error)) {
   d8efc:	4631      	mov	r1, r6
   d8efe:	300c      	adds	r0, #12
   d8f00:	f7ff fe8c 	bl	d8c1c <_ZN8particle5ErrorC1EOS0_>
	: _M_ptr(__p), _M_refcount(__p, typename is_array<_Tp>::type())
   d8f04:	4628      	mov	r0, r5
	: __shared_count(__p)
   d8f06:	4621      	mov	r1, r4
	: _M_ptr(__p), _M_refcount(__p, typename is_array<_Tp>::type())
   d8f08:	f840 4b04 	str.w	r4, [r0], #4
	: __shared_count(__p)
   d8f0c:	f7ff ff32 	bl	d8d74 <_ZNSt14__shared_countILN9__gnu_cxx12_Lock_policyE0EEC1IPN8particle6detail10FutureImplIbNS5_13FutureContextEEEEET_>
            p_(new detail::FutureImpl<ResultT, ContextT>(std::move(error))) {
   d8f10:	4630      	mov	r0, r6
   d8f12:	f7ff fe90 	bl	d8c36 <_ZN8particle5ErrorD1Ev>
    }

    explicit FutureBase(Error::Type error) :
            FutureBase(Error(error)) {
   d8f16:	a805      	add	r0, sp, #20
   d8f18:	f7ff fe8d 	bl	d8c36 <_ZN8particle5ErrorD1Ev>
        p.setError(Error::UNKNOWN);
        p.fromDataPtr(d.handler_data); // Free wrapper object
    }

    return p.future();
}
   d8f1c:	4628      	mov	r0, r5
   d8f1e:	b00a      	add	sp, #40	; 0x28
   d8f20:	e8bd 87f0 	ldmia.w	sp!, {r4, r5, r6, r7, r8, r9, sl, pc}
    spark_send_event_data d = { sizeof(spark_send_event_data) };
   d8f24:	230c      	movs	r3, #12
   d8f26:	f04f 0a00 	mov.w	sl, #0
            p_(new detail::FutureImpl<ResultT, ContextT>(State::RUNNING)) {
   d8f2a:	2014      	movs	r0, #20
   d8f2c:	e9cd aa08 	strd	sl, sl, [sp, #32]
   d8f30:	9307      	str	r3, [sp, #28]
   d8f32:	f7fb f8b0 	bl	d4096 <_Znwj>
   d8f36:	4601      	mov	r1, r0
   d8f38:	b128      	cbz	r0, d8f46 <_ZN10CloudClass13publish_eventEPKcS1_iN8particle5FlagsI15PublishFlagTypehEE+0x8e>
      constexpr __atomic_base(__pointer_type __p) noexcept : _M_p (__p) { }
   d8f3a:	e9c0 aa01 	strd	sl, sl, [r0, #4]
   d8f3e:	f880 a000 	strb.w	sl, [r0]
      constexpr __atomic_base(__int_type __i) noexcept : _M_i (__i) { }
   d8f42:	f880 a001 	strb.w	sl, [r0, #1]
   d8f46:	a804      	add	r0, sp, #16
	: _M_ptr(__p), _M_refcount(__p, typename is_array<_Tp>::type())
   d8f48:	9103      	str	r1, [sp, #12]
	: __shared_count(__p)
   d8f4a:	f7ff ff13 	bl	d8d74 <_ZNSt14__shared_countILN9__gnu_cxx12_Lock_policyE0EEC1IPN8particle6detail10FutureImplIbNS5_13FutureContextEEEEET_>
    d.handler_callback = publishCompletionCallback;
   d8f4e:	4b22      	ldr	r3, [pc, #136]	; (d8fd8 <_ZN10CloudClass13publish_eventEPKcS1_iN8particle5FlagsI15PublishFlagTypehEE+0x120>)
   d8f50:	9308      	str	r3, [sp, #32]
        return new detail::FutureImplPtr<ResultT, ContextT>(p_);
   d8f52:	2008      	movs	r0, #8
   d8f54:	f7fb f89f 	bl	d4096 <_Znwj>
   d8f58:	4682      	mov	sl, r0
   d8f5a:	b128      	cbz	r0, d8f68 <_ZN10CloudClass13publish_eventEPKcS1_iN8particle5FlagsI15PublishFlagTypehEE+0xb0>
      __shared_ptr(const __shared_ptr&) noexcept = default;
   d8f5c:	9b03      	ldr	r3, [sp, #12]
   d8f5e:	f840 3b04 	str.w	r3, [r0], #4
   d8f62:	a904      	add	r1, sp, #16
   d8f64:	f7fe fdde 	bl	d7b24 <_ZNSt14__shared_countILN9__gnu_cxx12_Lock_policyE0EEC1ERKS2_>
    if (!spark_send_event(eventName, eventData, ttl, flags.value(), &d) && !p.isDone()) {
   d8f68:	9600      	str	r6, [sp, #0]
   d8f6a:	fa5f f389 	uxtb.w	r3, r9
   d8f6e:	4642      	mov	r2, r8
   d8f70:	4639      	mov	r1, r7
   d8f72:	4620      	mov	r0, r4
    d.handler_data = p.dataPtr();
   d8f74:	f8cd a024 	str.w	sl, [sp, #36]	; 0x24
    if (!spark_send_event(eventName, eventData, ttl, flags.value(), &d) && !p.isDone()) {
   d8f78:	f7ff fcba 	bl	d88f0 <spark_send_event>
   d8f7c:	b9b8      	cbnz	r0, d8fae <_ZN10CloudClass13publish_eventEPKcS1_iN8particle5FlagsI15PublishFlagTypehEE+0xf6>
	return __atomic_load_n(&_M_i, int(__m));
   d8f7e:	9b03      	ldr	r3, [sp, #12]
   d8f80:	785b      	ldrb	r3, [r3, #1]
   d8f82:	f003 02ff 	and.w	r2, r3, #255	; 0xff
   d8f86:	b993      	cbnz	r3, d8fae <_ZN10CloudClass13publish_eventEPKcS1_iN8particle5FlagsI15PublishFlagTypehEE+0xf6>
   d8f88:	f64f 739c 	movw	r3, #65436	; 0xff9c
        p.setError(Error::UNKNOWN);
   d8f8c:	a905      	add	r1, sp, #20
   d8f8e:	a803      	add	r0, sp, #12
   d8f90:	9205      	str	r2, [sp, #20]
   d8f92:	f8ad 3018 	strh.w	r3, [sp, #24]
   d8f96:	f7ff ff11 	bl	d8dbc <_ZN8particle11PromiseBaseIbNS_6detail13FutureContextEE8setErrorENS_5ErrorE>
   d8f9a:	a805      	add	r0, sp, #20
   d8f9c:	f7ff fe4b 	bl	d8c36 <_ZN8particle5ErrorD1Ev>
        p.fromDataPtr(d.handler_data); // Free wrapper object
   d8fa0:	a805      	add	r0, sp, #20
   d8fa2:	9909      	ldr	r1, [sp, #36]	; 0x24
   d8fa4:	f7ff fea6 	bl	d8cf4 <_ZN8particle11PromiseBaseIbNS_6detail13FutureContextEE11fromDataPtrEPv>
      ~__shared_ptr() = default;
   d8fa8:	a806      	add	r0, sp, #24
   d8faa:	f7fc fb03 	bl	d55b4 <_ZNSt14__shared_countILN9__gnu_cxx12_Lock_policyE0EED1Ev>
      __shared_ptr(const __shared_ptr&) noexcept = default;
   d8fae:	9b03      	ldr	r3, [sp, #12]
   d8fb0:	9305      	str	r3, [sp, #20]
   d8fb2:	a904      	add	r1, sp, #16
   d8fb4:	a806      	add	r0, sp, #24
   d8fb6:	f7fe fdb5 	bl	d7b24 <_ZNSt14__shared_countILN9__gnu_cxx12_Lock_policyE0EEC1ERKS2_>
      : _M_ptr(__r._M_ptr), _M_refcount()
   d8fba:	9b05      	ldr	r3, [sp, #20]
	_Sp_counted_base<_Lp>* __tmp = __r._M_pi;
   d8fbc:	9a06      	ldr	r2, [sp, #24]
      : _M_ptr(__r._M_ptr), _M_refcount()
   d8fbe:	602b      	str	r3, [r5, #0]
	_M_pi = __tmp;
   d8fc0:	606a      	str	r2, [r5, #4]
	__r._M_pi = _M_pi;
   d8fc2:	2300      	movs	r3, #0
      ~__shared_ptr() = default;
   d8fc4:	a806      	add	r0, sp, #24
	__r._M_pi = _M_pi;
   d8fc6:	9306      	str	r3, [sp, #24]
	__r._M_ptr = 0;
   d8fc8:	9305      	str	r3, [sp, #20]
      ~__shared_ptr() = default;
   d8fca:	f7fc faf3 	bl	d55b4 <_ZNSt14__shared_countILN9__gnu_cxx12_Lock_policyE0EED1Ev>
   d8fce:	a804      	add	r0, sp, #16
   d8fd0:	f7fc faf0 	bl	d55b4 <_ZNSt14__shared_countILN9__gnu_cxx12_Lock_policyE0EED1Ev>
class Promise: public PromiseBase<ResultT, ContextT> {
   d8fd4:	e7a2      	b.n	d8f1c <_ZN10CloudClass13publish_eventEPKcS1_iN8particle5FlagsI15PublishFlagTypehEE+0x64>
   d8fd6:	bf00      	nop
   d8fd8:	000d90a1 	.word	0x000d90a1

000d8fdc <_ZNSt14_Function_base13_Base_managerISt5_BindIFSt8functionIFvRKN8particle5ErrorEEES4_EEE10_M_managerERSt9_Any_dataRKSC_St18_Manager_operation>:
	  switch (__op)
   d8fdc:	2a02      	cmp	r2, #2
	_M_manager(_Any_data& __dest, const _Any_data& __source,
   d8fde:	b5f8      	push	{r3, r4, r5, r6, r7, lr}
   d8fe0:	4605      	mov	r5, r0
	  switch (__op)
   d8fe2:	d007      	beq.n	d8ff4 <_ZNSt14_Function_base13_Base_managerISt5_BindIFSt8functionIFvRKN8particle5ErrorEEES4_EEE10_M_managerERSt9_Any_dataRKSC_St18_Manager_operation+0x18>
   d8fe4:	2a03      	cmp	r2, #3
   d8fe6:	d018      	beq.n	d901a <_ZNSt14_Function_base13_Base_managerISt5_BindIFSt8functionIFvRKN8particle5ErrorEEES4_EEE10_M_managerERSt9_Any_dataRKSC_St18_Manager_operation+0x3e>
   d8fe8:	2a01      	cmp	r2, #1
   d8fea:	d101      	bne.n	d8ff0 <_ZNSt14_Function_base13_Base_managerISt5_BindIFSt8functionIFvRKN8particle5ErrorEEES4_EEE10_M_managerERSt9_Any_dataRKSC_St18_Manager_operation+0x14>
	    return __source._M_access<_Functor*>();
   d8fec:	680b      	ldr	r3, [r1, #0]
	      __dest._M_access<_Functor*>() = _M_get_pointer(__source);
   d8fee:	6003      	str	r3, [r0, #0]
	}
   d8ff0:	2000      	movs	r0, #0
   d8ff2:	bdf8      	pop	{r3, r4, r5, r6, r7, pc}
	    new _Functor(*__source._M_access<const _Functor*>());
   d8ff4:	2018      	movs	r0, #24
	  __dest._M_access<_Functor*>() =
   d8ff6:	680e      	ldr	r6, [r1, #0]
	    new _Functor(*__source._M_access<const _Functor*>());
   d8ff8:	f7fb f84d 	bl	d4096 <_Znwj>
   d8ffc:	4604      	mov	r4, r0
   d8ffe:	b150      	cbz	r0, d9016 <_ZNSt14_Function_base13_Base_managerISt5_BindIFSt8functionIFvRKN8particle5ErrorEEES4_EEE10_M_managerERSt9_Any_dataRKSC_St18_Manager_operation+0x3a>
      _Bind(const _Bind&) = default;
   d9000:	4631      	mov	r1, r6
   d9002:	f7ff fecb 	bl	d8d9c <_ZNSt8functionIFvRKN8particle5ErrorEEEC1ERKS5_>
        Error(error.type_, error.msg_) {
   d9006:	6930      	ldr	r0, [r6, #16]
   d9008:	f9b6 7014 	ldrsh.w	r7, [r6, #20]
        msg_(msg ? (const char*)strdup(msg) : nullptr),
   d900c:	b108      	cbz	r0, d9012 <_ZNSt14_Function_base13_Base_managerISt5_BindIFSt8functionIFvRKN8particle5ErrorEEES4_EEE10_M_managerERSt9_Any_dataRKSC_St18_Manager_operation+0x36>
   d900e:	f002 fb15 	bl	db63c <strdup>
        type_(type) {
   d9012:	6120      	str	r0, [r4, #16]
   d9014:	82a7      	strh	r7, [r4, #20]
	  __dest._M_access<_Functor*>() =
   d9016:	602c      	str	r4, [r5, #0]
	}
   d9018:	e7ea      	b.n	d8ff0 <_ZNSt14_Function_base13_Base_managerISt5_BindIFSt8functionIFvRKN8particle5ErrorEEES4_EEE10_M_managerERSt9_Any_dataRKSC_St18_Manager_operation+0x14>
	  delete __victim._M_access<_Functor*>();
   d901a:	6804      	ldr	r4, [r0, #0]
   d901c:	2c00      	cmp	r4, #0
   d901e:	d0e7      	beq.n	d8ff0 <_ZNSt14_Function_base13_Base_managerISt5_BindIFSt8functionIFvRKN8particle5ErrorEEES4_EEE10_M_managerERSt9_Any_dataRKSC_St18_Manager_operation+0x14>
   d9020:	f104 0010 	add.w	r0, r4, #16
   d9024:	f7ff fe07 	bl	d8c36 <_ZN8particle5ErrorD1Ev>
    class function<_Res(_ArgTypes...)>
   d9028:	4620      	mov	r0, r4
   d902a:	f7fb f971 	bl	d4310 <_ZNSt14_Function_baseD1Ev>
	  delete __victim._M_access<_Functor*>();
   d902e:	2118      	movs	r1, #24
   d9030:	4620      	mov	r0, r4
   d9032:	f001 fc28 	bl	da886 <_ZdlPvj>
   d9036:	e7db      	b.n	d8ff0 <_ZNSt14_Function_base13_Base_managerISt5_BindIFSt8functionIFvRKN8particle5ErrorEEES4_EEE10_M_managerERSt9_Any_dataRKSC_St18_Manager_operation+0x14>

000d9038 <_ZNSt8functionIFvRKbEEC1ERKS3_>:
    function<_Res(_ArgTypes...)>::
   d9038:	b538      	push	{r3, r4, r5, lr}
    _Function_base() : _M_manager(nullptr) { }
   d903a:	2300      	movs	r3, #0
   d903c:	6083      	str	r3, [r0, #8]
      { return !_M_empty(); }
   d903e:	688b      	ldr	r3, [r1, #8]
    function<_Res(_ArgTypes...)>::
   d9040:	4604      	mov	r4, r0
   d9042:	460d      	mov	r5, r1
      if (static_cast<bool>(__x))
   d9044:	b12b      	cbz	r3, d9052 <_ZNSt8functionIFvRKbEEC1ERKS3_+0x1a>
	  __x._M_manager(_M_functor, __x._M_functor, __clone_functor);
   d9046:	2202      	movs	r2, #2
   d9048:	4798      	blx	r3
	  _M_invoker = __x._M_invoker;
   d904a:	68eb      	ldr	r3, [r5, #12]
   d904c:	60e3      	str	r3, [r4, #12]
	  _M_manager = __x._M_manager;
   d904e:	68ab      	ldr	r3, [r5, #8]
   d9050:	60a3      	str	r3, [r4, #8]
    }
   d9052:	4620      	mov	r0, r4
   d9054:	bd38      	pop	{r3, r4, r5, pc}

000d9056 <_ZNSt14_Function_base13_Base_managerISt5_BindIFSt8functionIFvRKbEEbEEE10_M_managerERSt9_Any_dataRKSA_St18_Manager_operation>:
	  switch (__op)
   d9056:	2a02      	cmp	r2, #2
	_M_manager(_Any_data& __dest, const _Any_data& __source,
   d9058:	b570      	push	{r4, r5, r6, lr}
   d905a:	4604      	mov	r4, r0
	  switch (__op)
   d905c:	d007      	beq.n	d906e <_ZNSt14_Function_base13_Base_managerISt5_BindIFSt8functionIFvRKbEEbEEE10_M_managerERSt9_Any_dataRKSA_St18_Manager_operation+0x18>
   d905e:	2a03      	cmp	r2, #3
   d9060:	d012      	beq.n	d9088 <_ZNSt14_Function_base13_Base_managerISt5_BindIFSt8functionIFvRKbEEbEEE10_M_managerERSt9_Any_dataRKSA_St18_Manager_operation+0x32>
   d9062:	2a01      	cmp	r2, #1
   d9064:	d101      	bne.n	d906a <_ZNSt14_Function_base13_Base_managerISt5_BindIFSt8functionIFvRKbEEbEEE10_M_managerERSt9_Any_dataRKSA_St18_Manager_operation+0x14>
	    return __source._M_access<_Functor*>();
   d9066:	680b      	ldr	r3, [r1, #0]
	      __dest._M_access<_Functor*>() = _M_get_pointer(__source);
   d9068:	6003      	str	r3, [r0, #0]
	}
   d906a:	2000      	movs	r0, #0
   d906c:	bd70      	pop	{r4, r5, r6, pc}
	    new _Functor(*__source._M_access<const _Functor*>());
   d906e:	2014      	movs	r0, #20
	  __dest._M_access<_Functor*>() =
   d9070:	680e      	ldr	r6, [r1, #0]
	    new _Functor(*__source._M_access<const _Functor*>());
   d9072:	f7fb f810 	bl	d4096 <_Znwj>
   d9076:	4605      	mov	r5, r0
   d9078:	b120      	cbz	r0, d9084 <_ZNSt14_Function_base13_Base_managerISt5_BindIFSt8functionIFvRKbEEbEEE10_M_managerERSt9_Any_dataRKSA_St18_Manager_operation+0x2e>
   d907a:	4631      	mov	r1, r6
   d907c:	f7ff ffdc 	bl	d9038 <_ZNSt8functionIFvRKbEEC1ERKS3_>
   d9080:	7c33      	ldrb	r3, [r6, #16]
   d9082:	742b      	strb	r3, [r5, #16]
	  __dest._M_access<_Functor*>() =
   d9084:	6025      	str	r5, [r4, #0]
	}
   d9086:	e7f0      	b.n	d906a <_ZNSt14_Function_base13_Base_managerISt5_BindIFSt8functionIFvRKbEEbEEE10_M_managerERSt9_Any_dataRKSA_St18_Manager_operation+0x14>
	  delete __victim._M_access<_Functor*>();
   d9088:	6804      	ldr	r4, [r0, #0]
   d908a:	2c00      	cmp	r4, #0
   d908c:	d0ed      	beq.n	d906a <_ZNSt14_Function_base13_Base_managerISt5_BindIFSt8functionIFvRKbEEbEEE10_M_managerERSt9_Any_dataRKSA_St18_Manager_operation+0x14>
    class function<_Res(_ArgTypes...)>
   d908e:	4620      	mov	r0, r4
   d9090:	f7fb f93e 	bl	d4310 <_ZNSt14_Function_baseD1Ev>
	  delete __victim._M_access<_Functor*>();
   d9094:	2114      	movs	r1, #20
   d9096:	4620      	mov	r0, r4
   d9098:	f001 fbf5 	bl	da886 <_ZdlPvj>
   d909c:	e7e5      	b.n	d906a <_ZNSt14_Function_base13_Base_managerISt5_BindIFSt8functionIFvRKbEEbEEE10_M_managerERSt9_Any_dataRKSA_St18_Manager_operation+0x14>
	...

000d90a0 <_ZN12_GLOBAL__N_125publishCompletionCallbackEiPKvPvS2_>:
void publishCompletionCallback(int error, const void* data, void* callbackData, void* reserved) {
   d90a0:	b5f0      	push	{r4, r5, r6, r7, lr}
   d90a2:	b089      	sub	sp, #36	; 0x24
   d90a4:	4604      	mov	r4, r0
   d90a6:	460d      	mov	r5, r1
    auto p = Promise<bool>::fromDataPtr(callbackData);
   d90a8:	a801      	add	r0, sp, #4
   d90aa:	4611      	mov	r1, r2
   d90ac:	f7ff fe22 	bl	d8cf4 <_ZN8particle11PromiseBaseIbNS_6detail13FutureContextEE11fromDataPtrEPv>
    if (error != Error::NONE) {
   d90b0:	b1a4      	cbz	r4, d90dc <_ZN12_GLOBAL__N_125publishCompletionCallbackEiPKvPvS2_+0x3c>
        p.setError(Error((Error::Type)error, (const char*)data));
   d90b2:	b224      	sxth	r4, r4
        msg_(msg ? (const char*)strdup(msg) : nullptr),
   d90b4:	b11d      	cbz	r5, d90be <_ZN12_GLOBAL__N_125publishCompletionCallbackEiPKvPvS2_+0x1e>
   d90b6:	4628      	mov	r0, r5
   d90b8:	f002 fac0 	bl	db63c <strdup>
   d90bc:	4605      	mov	r5, r0
   d90be:	a801      	add	r0, sp, #4
   d90c0:	a903      	add	r1, sp, #12
        type_(type) {
   d90c2:	9503      	str	r5, [sp, #12]
   d90c4:	f8ad 4010 	strh.w	r4, [sp, #16]
   d90c8:	f7ff fe78 	bl	d8dbc <_ZN8particle11PromiseBaseIbNS_6detail13FutureContextEE8setErrorENS_5ErrorE>
   d90cc:	a803      	add	r0, sp, #12
   d90ce:	f7ff fdb2 	bl	d8c36 <_ZN8particle5ErrorD1Ev>
   d90d2:	a802      	add	r0, sp, #8
   d90d4:	f7fc fa6e 	bl	d55b4 <_ZNSt14__shared_countILN9__gnu_cxx12_Lock_policyE0EED1Ev>
}
   d90d8:	b009      	add	sp, #36	; 0x24
   d90da:	bdf0      	pop	{r4, r5, r6, r7, pc}
      { return static_cast<const __shared_ptr<_Tp, _Lp>*>(this)->get(); }
   d90dc:	9d01      	ldr	r5, [sp, #4]
	return __atomic_compare_exchange(std::__addressof(_M_i),
   d90de:	2301      	movs	r3, #1
   d90e0:	e8d5 2f4f 	ldrexb	r2, [r5]
   d90e4:	2a00      	cmp	r2, #0
   d90e6:	d103      	bne.n	d90f0 <_ZN12_GLOBAL__N_125publishCompletionCallbackEiPKvPvS2_+0x50>
   d90e8:	e8c5 3f41 	strexb	r1, r3, [r5]
   d90ec:	2900      	cmp	r1, #0
   d90ee:	d1f7      	bne.n	d90e0 <_ZN12_GLOBAL__N_125publishCompletionCallbackEiPKvPvS2_+0x40>
        if (this->changeState(State::SUCCEEDED)) {
   d90f0:	d1ef      	bne.n	d90d2 <_ZN12_GLOBAL__N_125publishCompletionCallbackEiPKvPvS2_+0x32>
            new(&result_) ResultT(std::move(result));
   d90f2:	732b      	strb	r3, [r5, #12]
	__atomic_store_n(&_M_i, __i, int(__m));
   d90f4:	f3bf 8f5b 	dmb	ish
   d90f8:	706b      	strb	r3, [r5, #1]
	return __atomic_exchange_n(&_M_p, __p, int(__m));
   d90fa:	1d2b      	adds	r3, r5, #4
   d90fc:	f3bf 8f5b 	dmb	ish
   d9100:	e853 6f00 	ldrex	r6, [r3]
   d9104:	e843 4200 	strex	r2, r4, [r3]
   d9108:	2a00      	cmp	r2, #0
   d910a:	d1f9      	bne.n	d9100 <_ZN12_GLOBAL__N_125publishCompletionCallbackEiPKvPvS2_+0x60>
   d910c:	f3bf 8f5b 	dmb	ish
        if (callbackPtr) {
   d9110:	2e00      	cmp	r6, #0
   d9112:	d0de      	beq.n	d90d2 <_ZN12_GLOBAL__N_125publishCompletionCallbackEiPKvPvS2_+0x32>
        return (application_thread_current(nullptr) != 0);
   d9114:	4620      	mov	r0, r4
   d9116:	f7ff fb7d 	bl	d8814 <application_thread_current>
        if (ContextT::isApplicationThreadCurrent()) {
   d911a:	4607      	mov	r7, r0
   d911c:	b160      	cbz	r0, d9138 <_ZN12_GLOBAL__N_125publishCompletionCallbackEiPKvPvS2_+0x98>
            callback(std::forward<ArgsT>(args)...); // Synchronous call
   d911e:	f105 010c 	add.w	r1, r5, #12
   d9122:	4630      	mov	r0, r6
   d9124:	f7ff fe15 	bl	d8d52 <_ZNKSt8functionIFvRKbEEclES1_>
    class function<_Res(_ArgTypes...)>
   d9128:	4630      	mov	r0, r6
   d912a:	f7fb f8f1 	bl	d4310 <_ZNSt14_Function_baseD1Ev>
            delete callbackPtr;
   d912e:	2110      	movs	r1, #16
   d9130:	4630      	mov	r0, r6
   d9132:	f001 fba8 	bl	da886 <_ZdlPvj>
   d9136:	e7cc      	b.n	d90d2 <_ZN12_GLOBAL__N_125publishCompletionCallbackEiPKvPvS2_+0x32>
	: _M_f(__f), _M_bound_args(std::forward<_Args>(__args)...)
   d9138:	4631      	mov	r1, r6
   d913a:	a803      	add	r0, sp, #12
   d913c:	f7ff ff7c 	bl	d9038 <_ZNSt8functionIFvRKbEEC1ERKS3_>
	: _M_head_impl(std::forward<_UHead>(__h)) { }
   d9140:	7b2b      	ldrb	r3, [r5, #12]
   d9142:	f88d 301c 	strb.w	r3, [sp, #28]
            auto callbackPtr = new std::function<void()>(std::bind(callback, std::forward<ArgsT>(args)...));
   d9146:	2010      	movs	r0, #16
   d9148:	f7fa ffa5 	bl	d4096 <_Znwj>
   d914c:	4605      	mov	r5, r0
   d914e:	b1d0      	cbz	r0, d9186 <_ZN12_GLOBAL__N_125publishCompletionCallbackEiPKvPvS2_+0xe6>
    _Function_base() : _M_manager(nullptr) { }
   d9150:	6087      	str	r7, [r0, #8]
	{ __functor._M_access<_Functor*>() = new _Functor(std::move(__f)); }
   d9152:	2014      	movs	r0, #20
   d9154:	f7fa ff9f 	bl	d4096 <_Znwj>
   d9158:	4604      	mov	r4, r0
   d915a:	b178      	cbz	r0, d917c <_ZN12_GLOBAL__N_125publishCompletionCallbackEiPKvPvS2_+0xdc>
    _Function_base() : _M_manager(nullptr) { }
   d915c:	6087      	str	r7, [r0, #8]
	std::swap(_M_functor, __x._M_functor);
   d915e:	4601      	mov	r1, r0
   d9160:	a803      	add	r0, sp, #12
   d9162:	f7fc fe99 	bl	d5e98 <_ZSt4swapISt9_Any_dataENSt9enable_ifIXsrSt6__and_IJSt6__not_ISt15__is_tuple_likeIT_EESt21is_move_constructibleIS5_ESt18is_move_assignableIS5_EEE5valueEvE4typeERS5_SF_>
      _Tp __tmp = _GLIBCXX_MOVE(__a);
   d9166:	9b05      	ldr	r3, [sp, #20]
      __a = _GLIBCXX_MOVE(__b);
   d9168:	68a2      	ldr	r2, [r4, #8]
      __b = _GLIBCXX_MOVE(__tmp);
   d916a:	60a3      	str	r3, [r4, #8]
      _Tp __tmp = _GLIBCXX_MOVE(__a);
   d916c:	9b06      	ldr	r3, [sp, #24]
      __a = _GLIBCXX_MOVE(__b);
   d916e:	9205      	str	r2, [sp, #20]
   d9170:	68e2      	ldr	r2, [r4, #12]
      __b = _GLIBCXX_MOVE(__tmp);
   d9172:	60e3      	str	r3, [r4, #12]
   d9174:	f89d 301c 	ldrb.w	r3, [sp, #28]
      __a = _GLIBCXX_MOVE(__b);
   d9178:	9206      	str	r2, [sp, #24]
   d917a:	7423      	strb	r3, [r4, #16]
	    _M_invoker = &_My_handler::_M_invoke;
   d917c:	4b06      	ldr	r3, [pc, #24]	; (d9198 <_ZN12_GLOBAL__N_125publishCompletionCallbackEiPKvPvS2_+0xf8>)
   d917e:	60eb      	str	r3, [r5, #12]
	    _M_manager = &_My_handler::_M_manager;
   d9180:	4b06      	ldr	r3, [pc, #24]	; (d919c <_ZN12_GLOBAL__N_125publishCompletionCallbackEiPKvPvS2_+0xfc>)
	{ __functor._M_access<_Functor*>() = new _Functor(std::move(__f)); }
   d9182:	602c      	str	r4, [r5, #0]
	    _M_manager = &_My_handler::_M_manager;
   d9184:	60ab      	str	r3, [r5, #8]
    class function<_Res(_ArgTypes...)>
   d9186:	a803      	add	r0, sp, #12
   d9188:	f7fb f8c2 	bl	d4310 <_ZNSt14_Function_baseD1Ev>
        return (application_thread_invoke(callback, data, nullptr) == 0);
   d918c:	2200      	movs	r2, #0
   d918e:	4629      	mov	r1, r5
   d9190:	4803      	ldr	r0, [pc, #12]	; (d91a0 <_ZN12_GLOBAL__N_125publishCompletionCallbackEiPKvPvS2_+0x100>)
   d9192:	f7ff fb47 	bl	d8824 <application_thread_invoke>
   d9196:	e7c7      	b.n	d9128 <_ZN12_GLOBAL__N_125publishCompletionCallbackEiPKvPvS2_+0x88>
   d9198:	000d8d65 	.word	0x000d8d65
   d919c:	000d9057 	.word	0x000d9057
   d91a0:	000d8b07 	.word	0x000d8b07

000d91a4 <_ZN5spark13EthernetClass9listeningEv>:
    uint16_t getListenTimeout(void) {
        return network_get_listen_timeout(*this, 0, NULL);
    }

    bool listening(void) {
        return network_listening(*this, 0, NULL);
   d91a4:	2200      	movs	r2, #0
   d91a6:	6840      	ldr	r0, [r0, #4]
   d91a8:	4611      	mov	r1, r2
   d91aa:	f7ff bc11 	b.w	d89d0 <network_listening>

000d91ae <_ZN5spark13EthernetClass16getListenTimeoutEv>:
        return network_get_listen_timeout(*this, 0, NULL);
   d91ae:	2200      	movs	r2, #0
   d91b0:	6840      	ldr	r0, [r0, #4]
   d91b2:	4611      	mov	r1, r2
   d91b4:	f7ff bc1c 	b.w	d89f0 <network_get_listen_timeout>

000d91b8 <_ZN5spark13EthernetClass16setListenTimeoutEt>:
        network_set_listen_timeout(*this, timeout, NULL);
   d91b8:	6840      	ldr	r0, [r0, #4]
   d91ba:	2200      	movs	r2, #0
   d91bc:	f7ff bc10 	b.w	d89e0 <network_set_listen_timeout>

000d91c0 <_ZN5spark13EthernetClass6listenEb>:
        network_listen(*this, begin ? 0 : 1, NULL);
   d91c0:	6840      	ldr	r0, [r0, #4]
   d91c2:	2200      	movs	r2, #0
   d91c4:	f081 0101 	eor.w	r1, r1, #1
   d91c8:	f7ff bbfa 	b.w	d89c0 <network_listen>

000d91cc <_ZN5spark13EthernetClass3offEv>:
        network_off(*this, 0, 0, NULL);
   d91cc:	2300      	movs	r3, #0
   d91ce:	6840      	ldr	r0, [r0, #4]
   d91d0:	461a      	mov	r2, r3
   d91d2:	4619      	mov	r1, r3
   d91d4:	f7ff bbec 	b.w	d89b0 <network_off>

000d91d8 <_ZN5spark13EthernetClass2onEv>:
        network_on(*this, 0, 0, NULL);
   d91d8:	2300      	movs	r3, #0
   d91da:	6840      	ldr	r0, [r0, #4]
   d91dc:	461a      	mov	r2, r3
   d91de:	4619      	mov	r1, r3
   d91e0:	f7ff bbde 	b.w	d89a0 <network_on>

000d91e4 <_ZN5spark13EthernetClass5readyEv>:
    }

    bool ready() {
        return network_ready(*this, 0,  NULL);
   d91e4:	2200      	movs	r2, #0
   d91e6:	6840      	ldr	r0, [r0, #4]
   d91e8:	4611      	mov	r1, r2
   d91ea:	f7ff bbd1 	b.w	d8990 <network_ready>

000d91ee <_ZN5spark13EthernetClass10connectingEv>:
        return network_connecting(*this, 0, NULL);
   d91ee:	2200      	movs	r2, #0
   d91f0:	6840      	ldr	r0, [r0, #4]
   d91f2:	4611      	mov	r1, r2
   d91f4:	f7ff bbbc 	b.w	d8970 <network_connecting>

000d91f8 <_ZN5spark13EthernetClass10disconnectEv>:
        network_disconnect(*this, NETWORK_DISCONNECT_REASON_USER, NULL);
   d91f8:	6840      	ldr	r0, [r0, #4]
   d91fa:	2200      	movs	r2, #0
   d91fc:	2102      	movs	r1, #2
   d91fe:	f7ff bbbf 	b.w	d8980 <network_disconnect>

000d9202 <_ZN5spark13EthernetClass7connectEj>:
        network_connect(*this, flags, 0, NULL);
   d9202:	2300      	movs	r3, #0
   d9204:	6840      	ldr	r0, [r0, #4]
   d9206:	461a      	mov	r2, r3
   d9208:	f7ff bbaa 	b.w	d8960 <network_connect>

000d920c <_GLOBAL__sub_I__ZN5spark8EthernetE>:
   d920c:	4b02      	ldr	r3, [pc, #8]	; (d9218 <_GLOBAL__sub_I__ZN5spark8EthernetE+0xc>)
   d920e:	2203      	movs	r2, #3
   d9210:	605a      	str	r2, [r3, #4]
            NetworkClass(NETWORK_INTERFACE_ETHERNET) {
   d9212:	4a02      	ldr	r2, [pc, #8]	; (d921c <_GLOBAL__sub_I__ZN5spark8EthernetE+0x10>)
   d9214:	601a      	str	r2, [r3, #0]

namespace spark {

EthernetClass Ethernet;

} // spark
   d9216:	4770      	bx	lr
   d9218:	2003e614 	.word	0x2003e614
   d921c:	000de368 	.word	0x000de368

000d9220 <_ZN7TwoWireD1Ev>:
private:
  hal_i2c_interface_t _i2c;

public:
  TwoWire(hal_i2c_interface_t i2c, const hal_i2c_config_t& config);
  virtual ~TwoWire() {};
   d9220:	4770      	bx	lr

000d9222 <_ZN7TwoWire5writeEPKhj>:

// must be called in:
// slave tx event callback
// or after beginTransmission(address)
size_t TwoWire::write(const uint8_t *data, size_t quantity)
{
   d9222:	b5f8      	push	{r3, r4, r5, r6, r7, lr}
   d9224:	4606      	mov	r6, r0
   d9226:	4615      	mov	r5, r2
   d9228:	460c      	mov	r4, r1
   d922a:	188f      	adds	r7, r1, r2
  // in master/slave transmitter mode
  for(size_t i = 0; i < quantity; ++i)
   d922c:	42bc      	cmp	r4, r7
   d922e:	d006      	beq.n	d923e <_ZN7TwoWire5writeEPKhj+0x1c>
  {
    write(data[i]);
   d9230:	6833      	ldr	r3, [r6, #0]
   d9232:	f814 1b01 	ldrb.w	r1, [r4], #1
   d9236:	689b      	ldr	r3, [r3, #8]
   d9238:	4630      	mov	r0, r6
   d923a:	4798      	blx	r3
  for(size_t i = 0; i < quantity; ++i)
   d923c:	e7f6      	b.n	d922c <_ZN7TwoWire5writeEPKhj+0xa>
  }

  return quantity;
}
   d923e:	4628      	mov	r0, r5
   d9240:	bdf8      	pop	{r3, r4, r5, r6, r7, pc}

000d9242 <_ZN7TwoWire5writeEh>:
  return hal_i2c_write(_i2c, data, NULL);
   d9242:	7c00      	ldrb	r0, [r0, #16]
   d9244:	2200      	movs	r2, #0
   d9246:	f7ff b9bd 	b.w	d85c4 <hal_i2c_write>

000d924a <_ZN7TwoWire9availableEv>:
// must be called in:
// slave rx event callback
// or after requestFrom(address, numBytes)
int TwoWire::available(void)
{
  return hal_i2c_available(_i2c, NULL);
   d924a:	7c00      	ldrb	r0, [r0, #16]
   d924c:	2100      	movs	r1, #0
   d924e:	f7ff b9c1 	b.w	d85d4 <hal_i2c_available>

000d9252 <_ZN7TwoWire4readEv>:
// must be called in:
// slave rx event callback
// or after requestFrom(address, numBytes)
int TwoWire::read(void)
{
  return hal_i2c_read(_i2c, NULL);
   d9252:	7c00      	ldrb	r0, [r0, #16]
   d9254:	2100      	movs	r1, #0
   d9256:	f7ff b9c5 	b.w	d85e4 <hal_i2c_read>

000d925a <_ZN7TwoWire4peekEv>:
// must be called in:
// slave rx event callback
// or after requestFrom(address, numBytes)
int TwoWire::peek(void)
{
  return hal_i2c_peek(_i2c, NULL);
   d925a:	7c00      	ldrb	r0, [r0, #16]
   d925c:	2100      	movs	r1, #0
   d925e:	f7ff b9c9 	b.w	d85f4 <hal_i2c_peek>

000d9262 <_ZN7TwoWire5flushEv>:
}

void TwoWire::flush(void)
{
  hal_i2c_flush(_i2c, NULL);
   d9262:	7c00      	ldrb	r0, [r0, #16]
   d9264:	2100      	movs	r1, #0
   d9266:	f7ff b9cd 	b.w	d8604 <hal_i2c_flush>

000d926a <_ZN7TwoWireD0Ev>:
   d926a:	b510      	push	{r4, lr}
   d926c:	2114      	movs	r1, #20
   d926e:	4604      	mov	r4, r0
   d9270:	f001 fb09 	bl	da886 <_ZdlPvj>
   d9274:	4620      	mov	r0, r4
   d9276:	bd10      	pop	{r4, pc}

000d9278 <_ZN7TwoWireC1E19hal_i2c_interface_tRK16hal_i2c_config_t>:
TwoWire::TwoWire(hal_i2c_interface_t i2c, const hal_i2c_config_t& conf)
   d9278:	b510      	push	{r4, lr}
    virtual int available() = 0;
    virtual int read() = 0;
    virtual int peek() = 0;
    virtual void flush() = 0;

    Stream() {_timeout=1000;}
   d927a:	f44f 737a 	mov.w	r3, #1000	; 0x3e8
   d927e:	4604      	mov	r4, r0
   d9280:	4608      	mov	r0, r1
   d9282:	2100      	movs	r1, #0
   d9284:	e9c4 1301 	strd	r1, r3, [r4, #4]
   d9288:	4b03      	ldr	r3, [pc, #12]	; (d9298 <_ZN7TwoWireC1E19hal_i2c_interface_tRK16hal_i2c_config_t+0x20>)
   d928a:	6023      	str	r3, [r4, #0]
  _i2c = i2c;
   d928c:	7420      	strb	r0, [r4, #16]
  hal_i2c_init(_i2c, &conf);
   d928e:	4611      	mov	r1, r2
   d9290:	f7ff f9c8 	bl	d8624 <hal_i2c_init>
}
   d9294:	4620      	mov	r0, r4
   d9296:	bd10      	pop	{r4, pc}
   d9298:	000de3a4 	.word	0x000de3a4

000d929c <_ZN7TwoWire5beginEv>:
	hal_i2c_begin(_i2c, I2C_MODE_MASTER, 0x00, NULL);
   d929c:	2300      	movs	r3, #0
   d929e:	7c00      	ldrb	r0, [r0, #16]
   d92a0:	461a      	mov	r2, r3
   d92a2:	4619      	mov	r1, r3
   d92a4:	f7ff b976 	b.w	d8594 <hal_i2c_begin>

000d92a8 <_ZN7TwoWire11requestFromERK16WireTransmission>:
size_t TwoWire::requestFrom(const WireTransmission& transfer) {
   d92a8:	b57f      	push	{r0, r1, r2, r3, r4, r5, r6, lr}
    hal_i2c_transmission_config_t conf = {
   d92aa:	2200      	movs	r2, #0
   d92ac:	2314      	movs	r3, #20
   d92ae:	e9cd 2201 	strd	r2, r2, [sp, #4]
   d92b2:	f8ad 3004 	strh.w	r3, [sp, #4]
    };
   d92b6:	780b      	ldrb	r3, [r1, #0]
   d92b8:	f88d 3008 	strb.w	r3, [sp, #8]
   d92bc:	684b      	ldr	r3, [r1, #4]
   d92be:	9303      	str	r3, [sp, #12]
   d92c0:	68cb      	ldr	r3, [r1, #12]
   d92c2:	9304      	str	r3, [sp, #16]
  return hal_i2c_request_ex(_i2c, &conf, nullptr);
   d92c4:	7c00      	ldrb	r0, [r0, #16]
      .flags = (uint32_t)(stop_ ? HAL_I2C_TRANSMISSION_FLAG_STOP : 0)
   d92c6:	7a0b      	ldrb	r3, [r1, #8]
   d92c8:	9305      	str	r3, [sp, #20]
   d92ca:	a901      	add	r1, sp, #4
   d92cc:	f7ff f9c2 	bl	d8654 <hal_i2c_request_ex>
}
   d92d0:	b007      	add	sp, #28
   d92d2:	f85d fb04 	ldr.w	pc, [sp], #4

000d92d6 <_ZN7TwoWire11requestFromEhjh>:
{
   d92d6:	b51f      	push	{r0, r1, r2, r3, r4, lr}
  return requestFrom(WireTransmission(address).quantity(quantity).stop(sendStop));
   d92d8:	3b00      	subs	r3, #0
        timeout_{HAL_I2C_DEFAULT_TIMEOUT_MS} {
   d92da:	f88d 1000 	strb.w	r1, [sp]
   d92de:	f04f 0164 	mov.w	r1, #100	; 0x64
   d92e2:	9103      	str	r1, [sp, #12]
   d92e4:	bf18      	it	ne
   d92e6:	2301      	movne	r3, #1
   d92e8:	4669      	mov	r1, sp
    size_ = size;
   d92ea:	9201      	str	r2, [sp, #4]
   d92ec:	f88d 3008 	strb.w	r3, [sp, #8]
   d92f0:	f7ff ffda 	bl	d92a8 <_ZN7TwoWire11requestFromERK16WireTransmission>
}
   d92f4:	b005      	add	sp, #20
   d92f6:	f85d fb04 	ldr.w	pc, [sp], #4

000d92fa <_ZN7TwoWire17beginTransmissionEh>:
	hal_i2c_begin_transmission(_i2c, address, NULL);
   d92fa:	7c00      	ldrb	r0, [r0, #16]
   d92fc:	2200      	movs	r2, #0
   d92fe:	f7ff b951 	b.w	d85a4 <hal_i2c_begin_transmission>

000d9302 <_ZN7TwoWire17beginTransmissionEi>:
  beginTransmission((uint8_t)address);
   d9302:	b2c9      	uxtb	r1, r1
   d9304:	f7ff bff9 	b.w	d92fa <_ZN7TwoWire17beginTransmissionEh>

000d9308 <_ZN7TwoWire15endTransmissionEh>:
	return hal_i2c_end_transmission(_i2c, sendStop, NULL);
   d9308:	7c00      	ldrb	r0, [r0, #16]
   d930a:	2200      	movs	r2, #0
   d930c:	f7ff b952 	b.w	d85b4 <hal_i2c_end_transmission>

000d9310 <_ZN7TwoWire4lockEv>:
{
  hal_i2c_reset(_i2c, 0, NULL);
}

bool TwoWire::lock()
{
   d9310:	b508      	push	{r3, lr}
  return hal_i2c_lock(_i2c, NULL) == 0;
   d9312:	2100      	movs	r1, #0
   d9314:	7c00      	ldrb	r0, [r0, #16]
   d9316:	f7ff f98d 	bl	d8634 <hal_i2c_lock>
}
   d931a:	fab0 f080 	clz	r0, r0
   d931e:	0940      	lsrs	r0, r0, #5
   d9320:	bd08      	pop	{r3, pc}

000d9322 <_ZN7TwoWire6unlockEv>:

bool TwoWire::unlock()
{
   d9322:	b508      	push	{r3, lr}
  return hal_i2c_unlock(_i2c, NULL) == 0;
   d9324:	2100      	movs	r1, #0
   d9326:	7c00      	ldrb	r0, [r0, #16]
   d9328:	f7ff f98c 	bl	d8644 <hal_i2c_unlock>
}
   d932c:	fab0 f080 	clz	r0, r0
   d9330:	0940      	lsrs	r0, r0, #5
   d9332:	bd08      	pop	{r3, pc}

000d9334 <_Z26call_raw_interrupt_handlerPv>:
}

void call_raw_interrupt_handler(void* data)
{
    raw_interrupt_handler_t handler = raw_interrupt_handler_t(data);
    handler();
   d9334:	4700      	bx	r0
	...

000d9338 <_Z15attachInterrupttPFvvE13InterruptModeah>:
    }
    return handler!=NULL;
}

bool attachInterrupt(uint16_t pin, raw_interrupt_handler_t handler, InterruptMode mode, int8_t priority, uint8_t subpriority)
{
   d9338:	e92d 41ff 	stmdb	sp!, {r0, r1, r2, r3, r4, r5, r6, r7, r8, lr}
    HAL_Interrupts_Detach(pin);
    HAL_InterruptExtraConfiguration extra = {0};
   d933c:	2400      	movs	r4, #0
{
   d933e:	461d      	mov	r5, r3
   d9340:	460f      	mov	r7, r1
   d9342:	4690      	mov	r8, r2
   d9344:	4606      	mov	r6, r0
    HAL_Interrupts_Detach(pin);
   d9346:	f7ff f915 	bl	d8574 <HAL_Interrupts_Detach>
  if (priority >= 0) {
   d934a:	42a5      	cmp	r5, r4
  extra.version = HAL_INTERRUPT_EXTRA_CONFIGURATION_VERSION_1;
   d934c:	f04f 0304 	mov.w	r3, #4
    HAL_InterruptExtraConfiguration extra = {0};
   d9350:	f8ad 400d 	strh.w	r4, [sp, #13]
  extra.version = HAL_INTERRUPT_EXTRA_CONFIGURATION_VERSION_1;
   d9354:	f88d 300c 	strb.w	r3, [sp, #12]
    HAL_InterruptExtraConfiguration extra = {0};
   d9358:	f88d 400f 	strb.w	r4, [sp, #15]
    extra.IRQChannelSubPriority = subpriority;
   d935c:	bfa2      	ittt	ge
   d935e:	f89d 3028 	ldrbge.w	r3, [sp, #40]	; 0x28
   d9362:	f88d 300e 	strbge.w	r3, [sp, #14]
    return &extra;
   d9366:	ac03      	addge	r4, sp, #12
    if (SYSTEM_ERROR_NONE != HAL_Interrupts_Attach(pin, call_raw_interrupt_handler, (void*)handler, mode, configure_interrupt(extra, priority, subpriority))) {
   d9368:	4907      	ldr	r1, [pc, #28]	; (d9388 <_Z15attachInterrupttPFvvE13InterruptModeah+0x50>)
   d936a:	9400      	str	r4, [sp, #0]
   d936c:	4643      	mov	r3, r8
   d936e:	463a      	mov	r2, r7
   d9370:	4630      	mov	r0, r6
    extra.IRQChannelPreemptionPriority = (uint8_t)priority;
   d9372:	bfa8      	it	ge
   d9374:	f88d 500d 	strbge.w	r5, [sp, #13]
    if (SYSTEM_ERROR_NONE != HAL_Interrupts_Attach(pin, call_raw_interrupt_handler, (void*)handler, mode, configure_interrupt(extra, priority, subpriority))) {
   d9378:	f7ff f8f4 	bl	d8564 <HAL_Interrupts_Attach>
        return false;
    }
    return true;
}
   d937c:	fab0 f080 	clz	r0, r0
   d9380:	0940      	lsrs	r0, r0, #5
   d9382:	b004      	add	sp, #16
   d9384:	e8bd 81f0 	ldmia.w	sp!, {r4, r5, r6, r7, r8, pc}
   d9388:	000d9335 	.word	0x000d9335

000d938c <_ZN9IPAddressD1Ev>:
    IPAddress(uint32_t address);
    // 4 bytes defining the IP address in network order
    IPAddress(const uint8_t* address);
    IPAddress(const HAL_IPAddress& address);

    virtual ~IPAddress() {}
   d938c:	4770      	bx	lr

000d938e <_ZN9IPAddressD0Ev>:
   d938e:	b510      	push	{r4, lr}
   d9390:	2118      	movs	r1, #24
   d9392:	4604      	mov	r4, r0
   d9394:	f001 fa77 	bl	da886 <_ZdlPvj>
   d9398:	4620      	mov	r0, r4
   d939a:	bd10      	pop	{r4, pc}

000d939c <_ZNK9IPAddress7printToER5Print>:
#endif // Wiring_IPv6
	return address.ipv4==that.address.ipv4;
}

size_t IPAddress::printTo(Print& p) const
{
   d939c:	b5f0      	push	{r4, r5, r6, r7, lr}
#if Wiring_IPv6
#if HAL_USE_INET_HAL_POSIX
	if (address.v==6) {
   d939e:	7d03      	ldrb	r3, [r0, #20]
   d93a0:	2b06      	cmp	r3, #6
{
   d93a2:	b08d      	sub	sp, #52	; 0x34
   d93a4:	460e      	mov	r6, r1
   d93a6:	f100 0704 	add.w	r7, r0, #4
   d93aa:	f04f 0400 	mov.w	r4, #0
	if (address.v==6) {
   d93ae:	d012      	beq.n	d93d6 <_ZNK9IPAddress7printToER5Print+0x3a>
   d93b0:	f100 0508 	add.w	r5, r0, #8
            val = n;
        }
#if __GNUC__ >= 9
#pragma GCC diagnostic pop
#endif // __GNUC__ >= 9
        return printNumber(val, base) + t;
   d93b4:	f815 1d01 	ldrb.w	r1, [r5, #-1]!
   d93b8:	220a      	movs	r2, #10
   d93ba:	4630      	mov	r0, r6
   d93bc:	f000 fc8f 	bl	d9cde <_ZN5Print11printNumberEmh>
#else
#pragma message "HAL_USE_INET_HAL_POSIX is required for IPv6 support in IPAddress::printTo()"
#endif // HAL_USE_INET_HAL_POSIX
#endif // Wiring_IPv6
    size_t n = 0;
    for (int i = 0; i < 4; i++)
   d93c0:	42af      	cmp	r7, r5
    {
        if (n)
            n += p.print('.');
        n += p.print((*this)[i], DEC);
   d93c2:	4404      	add	r4, r0
    for (int i = 0; i < 4; i++)
   d93c4:	d019      	beq.n	d93fa <_ZNK9IPAddress7printToER5Print+0x5e>
        if (n)
   d93c6:	2c00      	cmp	r4, #0
   d93c8:	d0f4      	beq.n	d93b4 <_ZNK9IPAddress7printToER5Print+0x18>
            n += p.print('.');
   d93ca:	212e      	movs	r1, #46	; 0x2e
   d93cc:	4630      	mov	r0, r6
   d93ce:	f000 fc83 	bl	d9cd8 <_ZN5Print5printEc>
   d93d2:	4404      	add	r4, r0
   d93d4:	e7ee      	b.n	d93b4 <_ZNK9IPAddress7printToER5Print+0x18>
		inet_inet_ntop(AF_INET6, address.ipv6, buf, sizeof(buf));
   d93d6:	232f      	movs	r3, #47	; 0x2f
   d93d8:	466a      	mov	r2, sp
   d93da:	4639      	mov	r1, r7
   d93dc:	200a      	movs	r0, #10
		buf[0] = 0;
   d93de:	f88d 4000 	strb.w	r4, [sp]
		inet_inet_ntop(AF_INET6, address.ipv6, buf, sizeof(buf));
   d93e2:	f7ff f93f 	bl	d8664 <inet_inet_ntop>
      return write((const uint8_t *)str, strlen(str));
   d93e6:	4668      	mov	r0, sp
   d93e8:	f002 f945 	bl	db676 <strlen>
   d93ec:	6833      	ldr	r3, [r6, #0]
   d93ee:	4602      	mov	r2, r0
   d93f0:	68db      	ldr	r3, [r3, #12]
   d93f2:	4669      	mov	r1, sp
   d93f4:	4630      	mov	r0, r6
   d93f6:	4798      	blx	r3
   d93f8:	4604      	mov	r4, r0
    }
    return n;
}
   d93fa:	4620      	mov	r0, r4
   d93fc:	b00d      	add	sp, #52	; 0x34
   d93fe:	bdf0      	pop	{r4, r5, r6, r7, pc}

000d9400 <_ZN9IPAddressC1Ev>:
IPAddress::IPAddress()
   d9400:	b510      	push	{r4, lr}
   d9402:	4b05      	ldr	r3, [pc, #20]	; (d9418 <_ZN9IPAddressC1Ev+0x18>)
   d9404:	4604      	mov	r4, r0
        return address;
    }

    virtual size_t printTo(Print& p) const;

    void clear() { memset(&address, 0, sizeof (address)); }
   d9406:	2211      	movs	r2, #17
   d9408:	f840 3b04 	str.w	r3, [r0], #4
   d940c:	2100      	movs	r1, #0
   d940e:	f002 f8d7 	bl	db5c0 <memset>
}
   d9412:	4620      	mov	r0, r4
   d9414:	bd10      	pop	{r4, pc}
   d9416:	bf00      	nop
   d9418:	000de3cc 	.word	0x000de3cc

000d941c <_ZN9IPAddressC1ERK16_HAL_IPAddress_t>:
IPAddress::IPAddress(const HAL_IPAddress& address)
   d941c:	4603      	mov	r3, r0
   d941e:	4a07      	ldr	r2, [pc, #28]	; (d943c <_ZN9IPAddressC1ERK16_HAL_IPAddress_t+0x20>)
   d9420:	b510      	push	{r4, lr}
   d9422:	f843 2b04 	str.w	r2, [r3], #4
    memcpy(&this->address, &address, sizeof(address));
   d9426:	f101 0210 	add.w	r2, r1, #16
   d942a:	f851 4b04 	ldr.w	r4, [r1], #4
   d942e:	f843 4b04 	str.w	r4, [r3], #4
   d9432:	4291      	cmp	r1, r2
   d9434:	d1f9      	bne.n	d942a <_ZN9IPAddressC1ERK16_HAL_IPAddress_t+0xe>
   d9436:	780a      	ldrb	r2, [r1, #0]
   d9438:	701a      	strb	r2, [r3, #0]
}
   d943a:	bd10      	pop	{r4, pc}
   d943c:	000de3cc 	.word	0x000de3cc

000d9440 <_ZN9IPAddress8set_ipv4Ehhhh>:
{
   d9440:	b510      	push	{r4, lr}
    address.ipv4 = b0<<24 | b1 << 16 | b2 << 8 | b3;
   d9442:	f89d 4008 	ldrb.w	r4, [sp, #8]
   d9446:	ea44 2303 	orr.w	r3, r4, r3, lsl #8
   d944a:	ea43 4202 	orr.w	r2, r3, r2, lsl #16
   d944e:	ea42 6101 	orr.w	r1, r2, r1, lsl #24
        address.v = version;
   d9452:	2304      	movs	r3, #4
   d9454:	6041      	str	r1, [r0, #4]
   d9456:	7503      	strb	r3, [r0, #20]
}
   d9458:	bd10      	pop	{r4, pc}
	...

000d945c <_ZN9IPAddressC1EPKh>:
IPAddress::IPAddress(const uint8_t* addr)
   d945c:	b513      	push	{r0, r1, r4, lr}
   d945e:	4b05      	ldr	r3, [pc, #20]	; (d9474 <_ZN9IPAddressC1EPKh+0x18>)
   d9460:	6003      	str	r3, [r0, #0]
    set_ipv4(addr[0], addr[1], addr[2], addr[3]);
   d9462:	78cb      	ldrb	r3, [r1, #3]
   d9464:	9300      	str	r3, [sp, #0]
   d9466:	788b      	ldrb	r3, [r1, #2]
   d9468:	784a      	ldrb	r2, [r1, #1]
   d946a:	7809      	ldrb	r1, [r1, #0]
   d946c:	f7ff ffe8 	bl	d9440 <_ZN9IPAddress8set_ipv4Ehhhh>
}
   d9470:	b002      	add	sp, #8
   d9472:	bd10      	pop	{r4, pc}
   d9474:	000de3cc 	.word	0x000de3cc

000d9478 <_ZN12_GLOBAL__N_19skipTokenEPK9jsmntok_t>:

namespace {

// Skips token and all its children tokens if any
const jsmntok_t* skipToken(const jsmntok_t *t) {
    size_t n = 1;
   d9478:	f100 0310 	add.w	r3, r0, #16
   d947c:	2201      	movs	r2, #1
    do {
        if (t->type == JSMN_OBJECT) {
   d947e:	f813 1c10 	ldrb.w	r1, [r3, #-16]
   d9482:	2901      	cmp	r1, #1
   d9484:	4618      	mov	r0, r3
   d9486:	d108      	bne.n	d949a <_ZN12_GLOBAL__N_19skipTokenEPK9jsmntok_t+0x22>
            n += t->size * 2; // Number of name and value tokens
   d9488:	f853 1c04 	ldr.w	r1, [r3, #-4]
   d948c:	eb02 0241 	add.w	r2, r2, r1, lsl #1
        } else if (t->type == JSMN_ARRAY) {
            n += t->size; // Number of value tokens
        }
        ++t;
        --n;
    } while (n);
   d9490:	3a01      	subs	r2, #1
   d9492:	f103 0310 	add.w	r3, r3, #16
   d9496:	d1f2      	bne.n	d947e <_ZN12_GLOBAL__N_19skipTokenEPK9jsmntok_t+0x6>
    return t;
}
   d9498:	4770      	bx	lr
        } else if (t->type == JSMN_ARRAY) {
   d949a:	2902      	cmp	r1, #2
            n += t->size; // Number of value tokens
   d949c:	bf04      	itt	eq
   d949e:	f853 1c04 	ldreq.w	r1, [r3, #-4]
   d94a2:	1852      	addeq	r2, r2, r1
   d94a4:	e7f4      	b.n	d9490 <_ZN12_GLOBAL__N_19skipTokenEPK9jsmntok_t+0x18>

000d94a6 <_ZNSt15_Sp_counted_ptrIPN5spark6detail8JSONDataELN9__gnu_cxx12_Lock_policyE0EED1Ev>:
    class _Sp_counted_ptr final : public _Sp_counted_base<_Lp>
   d94a6:	4770      	bx	lr

000d94a8 <_ZN5spark16JSONBufferWriterD1Ev>:

private:
    Print &strm_;
};

class JSONBufferWriter: public JSONWriter {
   d94a8:	4770      	bx	lr

000d94aa <_ZNSt15_Sp_counted_ptrIPN5spark6detail8JSONDataELN9__gnu_cxx12_Lock_policyE0EE14_M_get_deleterERKSt9type_info>:
      { return nullptr; }
   d94aa:	2000      	movs	r0, #0
   d94ac:	4770      	bx	lr

000d94ae <_ZN5spark16JSONBufferWriterD0Ev>:
   d94ae:	b510      	push	{r4, lr}
   d94b0:	2114      	movs	r1, #20
   d94b2:	4604      	mov	r4, r0
   d94b4:	f001 f9e7 	bl	da886 <_ZdlPvj>
   d94b8:	4620      	mov	r0, r4
   d94ba:	bd10      	pop	{r4, pc}

000d94bc <_ZNSt15_Sp_counted_ptrIPN5spark6detail8JSONDataELN9__gnu_cxx12_Lock_policyE0EED0Ev>:
    class _Sp_counted_ptr final : public _Sp_counted_base<_Lp>
   d94bc:	b510      	push	{r4, lr}
   d94be:	2110      	movs	r1, #16
   d94c0:	4604      	mov	r4, r0
   d94c2:	f001 f9e0 	bl	da886 <_ZdlPvj>
   d94c6:	4620      	mov	r0, r4
   d94c8:	bd10      	pop	{r4, pc}

000d94ca <_ZNSt15_Sp_counted_ptrIPN5spark6detail8JSONDataELN9__gnu_cxx12_Lock_policyE0EE10_M_destroyEv>:
      _M_destroy() noexcept
   d94ca:	b508      	push	{r3, lr}
      { delete this; }
   d94cc:	f7ff fff6 	bl	d94bc <_ZNSt15_Sp_counted_ptrIPN5spark6detail8JSONDataELN9__gnu_cxx12_Lock_policyE0EED0Ev>
   d94d0:	bd08      	pop	{r3, pc}

000d94d2 <_ZNSt15_Sp_counted_ptrIPN5spark6detail8JSONDataELN9__gnu_cxx12_Lock_policyE0EE10_M_disposeEv>:
      _M_dispose() noexcept
   d94d2:	b510      	push	{r4, lr}
      { delete _M_ptr; }
   d94d4:	68c4      	ldr	r4, [r0, #12]
   d94d6:	b17c      	cbz	r4, d94f8 <_ZNSt15_Sp_counted_ptrIPN5spark6detail8JSONDataELN9__gnu_cxx12_Lock_policyE0EE10_M_disposeEv+0x26>
            json(nullptr),
            freeJson(false) {
    }

    ~JSONData() {
        delete[] tokens;
   d94d8:	6820      	ldr	r0, [r4, #0]
   d94da:	b108      	cbz	r0, d94e0 <_ZNSt15_Sp_counted_ptrIPN5spark6detail8JSONDataELN9__gnu_cxx12_Lock_policyE0EE10_M_disposeEv+0xe>
   d94dc:	f7fa fde1 	bl	d40a2 <_ZdaPv>
        if (freeJson) {
   d94e0:	7a23      	ldrb	r3, [r4, #8]
   d94e2:	b11b      	cbz	r3, d94ec <_ZNSt15_Sp_counted_ptrIPN5spark6detail8JSONDataELN9__gnu_cxx12_Lock_policyE0EE10_M_disposeEv+0x1a>
            delete[] json;
   d94e4:	6860      	ldr	r0, [r4, #4]
   d94e6:	b108      	cbz	r0, d94ec <_ZNSt15_Sp_counted_ptrIPN5spark6detail8JSONDataELN9__gnu_cxx12_Lock_policyE0EE10_M_disposeEv+0x1a>
   d94e8:	f7fa fddb 	bl	d40a2 <_ZdaPv>
   d94ec:	4620      	mov	r0, r4
   d94ee:	210c      	movs	r1, #12
   d94f0:	e8bd 4010 	ldmia.w	sp!, {r4, lr}
   d94f4:	f001 b9c7 	b.w	da886 <_ZdlPvj>
   d94f8:	bd10      	pop	{r4, pc}

000d94fa <_ZN5spark16JSONBufferWriter5writeEPKcj>:
    }
    write('"');
}

// spark::JSONBufferWriter
void spark::JSONBufferWriter::write(const char *data, size_t size) {
   d94fa:	b538      	push	{r3, r4, r5, lr}
   d94fc:	4615      	mov	r5, r2
    if (n_ < bufSize_) {
   d94fe:	e9d0 2303 	ldrd	r2, r3, [r0, #12]
   d9502:	4293      	cmp	r3, r2
void spark::JSONBufferWriter::write(const char *data, size_t size) {
   d9504:	4604      	mov	r4, r0
    if (n_ < bufSize_) {
   d9506:	d207      	bcs.n	d9518 <_ZN5spark16JSONBufferWriter5writeEPKcj+0x1e>
        memcpy(buf_ + n_, data, std::min(size, bufSize_ - n_));
   d9508:	1ad2      	subs	r2, r2, r3
   d950a:	6880      	ldr	r0, [r0, #8]
   d950c:	42aa      	cmp	r2, r5
   d950e:	bf28      	it	cs
   d9510:	462a      	movcs	r2, r5
   d9512:	4418      	add	r0, r3
   d9514:	f002 f82c 	bl	db570 <memcpy>
    }
    n_ += size;
   d9518:	6922      	ldr	r2, [r4, #16]
   d951a:	442a      	add	r2, r5
   d951c:	6122      	str	r2, [r4, #16]
}
   d951e:	bd38      	pop	{r3, r4, r5, pc}

000d9520 <_ZN5spark16JSONBufferWriter6printfEPKcz>:

void spark::JSONBufferWriter::printf(const char *fmt, ...) {
   d9520:	b40e      	push	{r1, r2, r3}
   d9522:	b517      	push	{r0, r1, r2, r4, lr}
   d9524:	ab05      	add	r3, sp, #20
   d9526:	4604      	mov	r4, r0
   d9528:	f853 2b04 	ldr.w	r2, [r3], #4
    va_list args;
    va_start(args, fmt);
    const int n = vsnprintf(buf_ + n_, (n_ < bufSize_) ? bufSize_ - n_ : 0, fmt, args);
   d952c:	68e1      	ldr	r1, [r4, #12]
    va_start(args, fmt);
   d952e:	9301      	str	r3, [sp, #4]
    const int n = vsnprintf(buf_ + n_, (n_ < bufSize_) ? bufSize_ - n_ : 0, fmt, args);
   d9530:	6903      	ldr	r3, [r0, #16]
   d9532:	6880      	ldr	r0, [r0, #8]
   d9534:	428b      	cmp	r3, r1
   d9536:	bf38      	it	cc
   d9538:	1ac9      	subcc	r1, r1, r3
   d953a:	4418      	add	r0, r3
   d953c:	bf28      	it	cs
   d953e:	2100      	movcs	r1, #0
   d9540:	9b01      	ldr	r3, [sp, #4]
   d9542:	f7ff fa95 	bl	d8a70 <vsnprintf>
    va_end(args);
    n_ += n;
   d9546:	6923      	ldr	r3, [r4, #16]
   d9548:	4418      	add	r0, r3
   d954a:	6120      	str	r0, [r4, #16]
}
   d954c:	b003      	add	sp, #12
   d954e:	e8bd 4010 	ldmia.w	sp!, {r4, lr}
   d9552:	b003      	add	sp, #12
   d9554:	4770      	bx	lr

000d9556 <_ZNSt16_Sp_counted_baseILN9__gnu_cxx12_Lock_policyE0EE10_M_releaseEv.part.0>:
    _Sp_counted_base<_S_single>::_M_release() noexcept
   d9556:	b510      	push	{r4, lr}
          _M_dispose();
   d9558:	6803      	ldr	r3, [r0, #0]
    _Sp_counted_base<_S_single>::_M_release() noexcept
   d955a:	4604      	mov	r4, r0
          _M_dispose();
   d955c:	689b      	ldr	r3, [r3, #8]
   d955e:	4798      	blx	r3
          if (--_M_weak_count == 0)
   d9560:	68a3      	ldr	r3, [r4, #8]
   d9562:	3b01      	subs	r3, #1
   d9564:	60a3      	str	r3, [r4, #8]
   d9566:	b92b      	cbnz	r3, d9574 <_ZNSt16_Sp_counted_baseILN9__gnu_cxx12_Lock_policyE0EE10_M_releaseEv.part.0+0x1e>
            _M_destroy();
   d9568:	6823      	ldr	r3, [r4, #0]
   d956a:	4620      	mov	r0, r4
   d956c:	68db      	ldr	r3, [r3, #12]
    }
   d956e:	e8bd 4010 	ldmia.w	sp!, {r4, lr}
            _M_destroy();
   d9572:	4718      	bx	r3
    }
   d9574:	bd10      	pop	{r4, pc}

000d9576 <_ZN5spark10JSONWriter5writeEc>:

inline spark::JSONWriter& spark::JSONWriter::value(const String &val) {
    return value(val.c_str(), val.length());
}

inline void spark::JSONWriter::write(char c) {
   d9576:	b507      	push	{r0, r1, r2, lr}
    write(&c, 1);
   d9578:	6803      	ldr	r3, [r0, #0]
inline void spark::JSONWriter::write(char c) {
   d957a:	f88d 1007 	strb.w	r1, [sp, #7]
    write(&c, 1);
   d957e:	689b      	ldr	r3, [r3, #8]
   d9580:	2201      	movs	r2, #1
   d9582:	f10d 0107 	add.w	r1, sp, #7
   d9586:	4798      	blx	r3
}
   d9588:	b003      	add	sp, #12
   d958a:	f85d fb04 	ldr.w	pc, [sp], #4

000d958e <_ZNSt12__shared_ptrIN5spark6detail8JSONDataELN9__gnu_cxx12_Lock_policyE0EEaSERKS5_>:
    class __shared_ptr
   d958e:	b538      	push	{r3, r4, r5, lr}
   d9590:	680b      	ldr	r3, [r1, #0]
   d9592:	6003      	str	r3, [r0, #0]
   d9594:	684d      	ldr	r5, [r1, #4]
	if (__tmp != _M_pi)
   d9596:	6843      	ldr	r3, [r0, #4]
   d9598:	429d      	cmp	r5, r3
    class __shared_ptr
   d959a:	4604      	mov	r4, r0
	if (__tmp != _M_pi)
   d959c:	d00c      	beq.n	d95b8 <_ZNSt12__shared_ptrIN5spark6detail8JSONDataELN9__gnu_cxx12_Lock_policyE0EEaSERKS5_+0x2a>
	    if (__tmp != 0)
   d959e:	b115      	cbz	r5, d95a6 <_ZNSt12__shared_ptrIN5spark6detail8JSONDataELN9__gnu_cxx12_Lock_policyE0EEaSERKS5_+0x18>
    { ++_M_use_count; }
   d95a0:	686b      	ldr	r3, [r5, #4]
   d95a2:	3301      	adds	r3, #1
   d95a4:	606b      	str	r3, [r5, #4]
	    if (_M_pi != 0)
   d95a6:	6860      	ldr	r0, [r4, #4]
   d95a8:	b128      	cbz	r0, d95b6 <_ZNSt12__shared_ptrIN5spark6detail8JSONDataELN9__gnu_cxx12_Lock_policyE0EEaSERKS5_+0x28>
      if (--_M_use_count == 0)
   d95aa:	6843      	ldr	r3, [r0, #4]
   d95ac:	3b01      	subs	r3, #1
   d95ae:	6043      	str	r3, [r0, #4]
   d95b0:	b90b      	cbnz	r3, d95b6 <_ZNSt12__shared_ptrIN5spark6detail8JSONDataELN9__gnu_cxx12_Lock_policyE0EEaSERKS5_+0x28>
   d95b2:	f7ff ffd0 	bl	d9556 <_ZNSt16_Sp_counted_baseILN9__gnu_cxx12_Lock_policyE0EE10_M_releaseEv.part.0>
	    _M_pi = __tmp;
   d95b6:	6065      	str	r5, [r4, #4]
    class __shared_ptr
   d95b8:	4620      	mov	r0, r4
   d95ba:	bd38      	pop	{r3, r4, r5, pc}

000d95bc <_ZN5spark9JSONValueC1EPK9jsmntok_tSt10shared_ptrINS_6detail8JSONDataEE>:
spark::JSONValue::JSONValue(const jsmntok_t *t, detail::JSONDataPtr d) :
   d95bc:	460b      	mov	r3, r1
   d95be:	4611      	mov	r1, r2
      : _M_ptr(0), _M_refcount()
   d95c0:	2200      	movs	r2, #0
   d95c2:	b510      	push	{r4, lr}
      constexpr __shared_count() noexcept : _M_pi(0)
   d95c4:	e9c0 2200 	strd	r2, r2, [r0]
   d95c8:	4604      	mov	r4, r0
        t_ = t;
   d95ca:	6083      	str	r3, [r0, #8]
    if (t) {
   d95cc:	b90b      	cbnz	r3, d95d2 <_ZN5spark9JSONValueC1EPK9jsmntok_tSt10shared_ptrINS_6detail8JSONDataEE+0x16>
}
   d95ce:	4620      	mov	r0, r4
   d95d0:	bd10      	pop	{r4, pc}
   *
   *  The object pointed to is deleted when the last shared_ptr pointing to
   *  it is destroyed or reset.
  */
  template<typename _Tp>
    class shared_ptr : public __shared_ptr<_Tp>
   d95d2:	f7ff ffdc 	bl	d958e <_ZNSt12__shared_ptrIN5spark6detail8JSONDataELN9__gnu_cxx12_Lock_policyE0EEaSERKS5_>
   d95d6:	e7fa      	b.n	d95ce <_ZN5spark9JSONValueC1EPK9jsmntok_tSt10shared_ptrINS_6detail8JSONDataEE+0x12>

000d95d8 <_ZNK5spark9JSONValue4typeEv>:
    if (!t_) {
   d95d8:	6883      	ldr	r3, [r0, #8]
   d95da:	b1eb      	cbz	r3, d9618 <_ZNK5spark9JSONValue4typeEv+0x40>
    switch (t_->type) {
   d95dc:	781a      	ldrb	r2, [r3, #0]
   d95de:	2a03      	cmp	r2, #3
   d95e0:	d81a      	bhi.n	d9618 <_ZNK5spark9JSONValue4typeEv+0x40>
   d95e2:	e8df f002 	tbb	[pc, r2]
   d95e6:	1704      	.short	0x1704
   d95e8:	1b02      	.short	0x1b02
   d95ea:	2005      	movs	r0, #5
   d95ec:	4770      	bx	lr
        const char c = d_->json[t_->start];
   d95ee:	6802      	ldr	r2, [r0, #0]
   d95f0:	685b      	ldr	r3, [r3, #4]
   d95f2:	6852      	ldr	r2, [r2, #4]
   d95f4:	5cd0      	ldrb	r0, [r2, r3]
        if (c == '-' || (c >= '0' && c <= '9')) {
   d95f6:	282d      	cmp	r0, #45	; 0x2d
   d95f8:	d012      	beq.n	d9620 <_ZNK5spark9JSONValue4typeEv+0x48>
   d95fa:	f1a0 0330 	sub.w	r3, r0, #48	; 0x30
   d95fe:	2b09      	cmp	r3, #9
   d9600:	d90e      	bls.n	d9620 <_ZNK5spark9JSONValue4typeEv+0x48>
        } else if (c == 't' || c == 'f') { // Literal names are always in lower case
   d9602:	2874      	cmp	r0, #116	; 0x74
   d9604:	d00e      	beq.n	d9624 <_ZNK5spark9JSONValue4typeEv+0x4c>
   d9606:	2866      	cmp	r0, #102	; 0x66
   d9608:	d00c      	beq.n	d9624 <_ZNK5spark9JSONValue4typeEv+0x4c>
        return JSON_TYPE_INVALID;
   d960a:	f1a0 036e 	sub.w	r3, r0, #110	; 0x6e
   d960e:	4258      	negs	r0, r3
   d9610:	4158      	adcs	r0, r3
   d9612:	4770      	bx	lr
        return JSON_TYPE_OBJECT;
   d9614:	2006      	movs	r0, #6
   d9616:	4770      	bx	lr
        return JSON_TYPE_INVALID;
   d9618:	2000      	movs	r0, #0
   d961a:	4770      	bx	lr
        return JSON_TYPE_STRING;
   d961c:	2004      	movs	r0, #4
   d961e:	4770      	bx	lr
            return JSON_TYPE_NUMBER;
   d9620:	2003      	movs	r0, #3
   d9622:	4770      	bx	lr
            return JSON_TYPE_BOOL;
   d9624:	2002      	movs	r0, #2
}
   d9626:	4770      	bx	lr

000d9628 <_ZN5spark9JSONValue8tokenizeEPKcjPP9jsmntok_tPj>:
bool spark::JSONValue::tokenize(const char *json, size_t size, jsmntok_t **tokens, size_t *count) {
   d9628:	e92d 47f0 	stmdb	sp!, {r4, r5, r6, r7, r8, r9, sl, lr}
   d962c:	b086      	sub	sp, #24
   d962e:	4607      	mov	r7, r0
   d9630:	4688      	mov	r8, r1
    jsmn_init(&parser, nullptr);
   d9632:	a802      	add	r0, sp, #8
   d9634:	2100      	movs	r1, #0
    const int n = jsmn_parse(&parser, json, size, nullptr, 0, nullptr); // Get number of tokens
   d9636:	2400      	movs	r4, #0
bool spark::JSONValue::tokenize(const char *json, size_t size, jsmntok_t **tokens, size_t *count) {
   d9638:	4699      	mov	r9, r3
    parser.size = sizeof(jsmn_parser);
   d963a:	2310      	movs	r3, #16
bool spark::JSONValue::tokenize(const char *json, size_t size, jsmntok_t **tokens, size_t *count) {
   d963c:	4692      	mov	sl, r2
    parser.size = sizeof(jsmn_parser);
   d963e:	9302      	str	r3, [sp, #8]
    jsmn_init(&parser, nullptr);
   d9640:	f7ff f8b0 	bl	d87a4 <jsmn_init>
    const int n = jsmn_parse(&parser, json, size, nullptr, 0, nullptr); // Get number of tokens
   d9644:	e9cd 4400 	strd	r4, r4, [sp]
   d9648:	4623      	mov	r3, r4
   d964a:	4642      	mov	r2, r8
   d964c:	4639      	mov	r1, r7
   d964e:	a802      	add	r0, sp, #8
   d9650:	f7ff f8b0 	bl	d87b4 <jsmn_parse>
    if (n <= 0) {
   d9654:	1e06      	subs	r6, r0, #0
   d9656:	dd1e      	ble.n	d9696 <_ZN5spark9JSONValue8tokenizeEPKcjPP9jsmntok_tPj+0x6e>
    std::unique_ptr<jsmntok_t[]> t(new(std::nothrow) jsmntok_t[n]);
   d9658:	4910      	ldr	r1, [pc, #64]	; (d969c <_ZN5spark9JSONValue8tokenizeEPKcjPP9jsmntok_tPj+0x74>)
   d965a:	0130      	lsls	r0, r6, #4
   d965c:	f001 f917 	bl	da88e <_ZnajRKSt9nothrow_t>
    if (!t) {
   d9660:	4605      	mov	r5, r0
   d9662:	b190      	cbz	r0, d968a <_ZN5spark9JSONValue8tokenizeEPKcjPP9jsmntok_tPj+0x62>
    jsmn_init(&parser, nullptr); // Reset parser
   d9664:	4621      	mov	r1, r4
   d9666:	a802      	add	r0, sp, #8
   d9668:	f7ff f89c 	bl	d87a4 <jsmn_init>
    if (jsmn_parse(&parser, json, size, t.get(), n, nullptr) <= 0) {
   d966c:	e9cd 6400 	strd	r6, r4, [sp]
   d9670:	462b      	mov	r3, r5
   d9672:	4642      	mov	r2, r8
   d9674:	4639      	mov	r1, r7
   d9676:	a802      	add	r0, sp, #8
   d9678:	f7ff f89c 	bl	d87b4 <jsmn_parse>
   d967c:	42a0      	cmp	r0, r4
   d967e:	dd07      	ble.n	d9690 <_ZN5spark9JSONValue8tokenizeEPKcjPP9jsmntok_tPj+0x68>
    *tokens = t.release();
   d9680:	f8ca 5000 	str.w	r5, [sl]
    return true;
   d9684:	2001      	movs	r0, #1
    *count = n;
   d9686:	f8c9 6000 	str.w	r6, [r9]
}
   d968a:	b006      	add	sp, #24
   d968c:	e8bd 87f0 	ldmia.w	sp!, {r4, r5, r6, r7, r8, r9, sl, pc}
	delete [] __ptr;
   d9690:	4628      	mov	r0, r5
   d9692:	f7fa fd06 	bl	d40a2 <_ZdaPv>
      }
   d9696:	4620      	mov	r0, r4
   d9698:	e7f7      	b.n	d968a <_ZN5spark9JSONValue8tokenizeEPKcjPP9jsmntok_tPj+0x62>
   d969a:	bf00      	nop
   d969c:	000de4f0 	.word	0x000de4f0

000d96a0 <_ZN5spark9JSONValue8unescapeEP9jsmntok_tPc>:
bool spark::JSONValue::unescape(jsmntok_t *t, char *json) {
   d96a0:	e92d 4ff8 	stmdb	sp!, {r3, r4, r5, r6, r7, r8, r9, sl, fp, lr}
    char *str = json + t->start; // Destination string
   d96a4:	6843      	ldr	r3, [r0, #4]
    const char* const end = json + t->end; // End of the source string
   d96a6:	6886      	ldr	r6, [r0, #8]
    char *str = json + t->start; // Destination string
   d96a8:	440b      	add	r3, r1
bool spark::JSONValue::unescape(jsmntok_t *t, char *json) {
   d96aa:	4688      	mov	r8, r1
    const char* const end = json + t->end; // End of the source string
   d96ac:	440e      	add	r6, r1
bool spark::JSONValue::unescape(jsmntok_t *t, char *json) {
   d96ae:	4607      	mov	r7, r0
    const char *s = s1;
   d96b0:	461c      	mov	r4, r3
    const char *s1 = str; // Beginning of an unescaped sequence
   d96b2:	4619      	mov	r1, r3
                    *str = 0x0d;
   d96b4:	f04f 090d 	mov.w	r9, #13
                    *str = 0x09;
   d96b8:	f04f 0a09 	mov.w	sl, #9
    while (s != end) {
   d96bc:	42b4      	cmp	r4, r6
   d96be:	d063      	beq.n	d9788 <_ZN5spark9JSONValue8unescapeEP9jsmntok_tPc+0xe8>
        if (*s == '\\') {
   d96c0:	4625      	mov	r5, r4
   d96c2:	f815 2b01 	ldrb.w	r2, [r5], #1
   d96c6:	2a5c      	cmp	r2, #92	; 0x5c
   d96c8:	d12b      	bne.n	d9722 <_ZN5spark9JSONValue8unescapeEP9jsmntok_tPc+0x82>
            if (s != s1) {
   d96ca:	42a1      	cmp	r1, r4
   d96cc:	d007      	beq.n	d96de <_ZN5spark9JSONValue8unescapeEP9jsmntok_tPc+0x3e>
                const size_t n = s - s1;
   d96ce:	eba4 0b01 	sub.w	fp, r4, r1
                memmove(str, s1, n); // Shift preceeding characters
   d96d2:	4618      	mov	r0, r3
   d96d4:	465a      	mov	r2, fp
   d96d6:	f001 ff59 	bl	db58c <memmove>
   d96da:	4603      	mov	r3, r0
                str += n;
   d96dc:	445b      	add	r3, fp
            if (s == end) {
   d96de:	42b5      	cmp	r5, r6
   d96e0:	d039      	beq.n	d9756 <_ZN5spark9JSONValue8unescapeEP9jsmntok_tPc+0xb6>
            if (*s == 'u') { // Arbitrary character, e.g. "\u001f"
   d96e2:	7862      	ldrb	r2, [r4, #1]
   d96e4:	2a75      	cmp	r2, #117	; 0x75
   d96e6:	d12a      	bne.n	d973e <_ZN5spark9JSONValue8unescapeEP9jsmntok_tPc+0x9e>
                ++s;
   d96e8:	1ca2      	adds	r2, r4, #2
                if (end - s < 4) {
   d96ea:	1ab2      	subs	r2, r6, r2
   d96ec:	2a03      	cmp	r2, #3
   d96ee:	dd32      	ble.n	d9756 <_ZN5spark9JSONValue8unescapeEP9jsmntok_tPc+0xb6>
    const char* const end = s + size;
   d96f0:	1da0      	adds	r0, r4, #6
   d96f2:	f104 0e05 	add.w	lr, r4, #5
    uint32_t v = 0;
   d96f6:	f04f 0c00 	mov.w	ip, #0
    while (s != end) {
   d96fa:	45ae      	cmp	lr, r5
   d96fc:	d053      	beq.n	d97a6 <_ZN5spark9JSONValue8unescapeEP9jsmntok_tPc+0x106>
        const char c = *s;
   d96fe:	f815 1f01 	ldrb.w	r1, [r5, #1]!
        if (c >= '0' && c <= '9') {
   d9702:	f1a1 0230 	sub.w	r2, r1, #48	; 0x30
   d9706:	fa5f fb82 	uxtb.w	fp, r2
   d970a:	f1bb 0f09 	cmp.w	fp, #9
   d970e:	d905      	bls.n	d971c <_ZN5spark9JSONValue8unescapeEP9jsmntok_tPc+0x7c>
        } else if (c >= 'a' && c <= 'f') {
   d9710:	f1a1 0261 	sub.w	r2, r1, #97	; 0x61
   d9714:	2a05      	cmp	r2, #5
   d9716:	d807      	bhi.n	d9728 <_ZN5spark9JSONValue8unescapeEP9jsmntok_tPc+0x88>
            n = c - 'a' + 10;
   d9718:	f1a1 0257 	sub.w	r2, r1, #87	; 0x57
        v = (v << 4) | n;
   d971c:	ea42 1c0c 	orr.w	ip, r2, ip, lsl #4
    while (s != end) {
   d9720:	e7eb      	b.n	d96fa <_ZN5spark9JSONValue8unescapeEP9jsmntok_tPc+0x5a>
   d9722:	4628      	mov	r0, r5
   d9724:	4604      	mov	r4, r0
   d9726:	e7c9      	b.n	d96bc <_ZN5spark9JSONValue8unescapeEP9jsmntok_tPc+0x1c>
        } else if (c >= 'A' && c <= 'F') {
   d9728:	f1a1 0241 	sub.w	r2, r1, #65	; 0x41
   d972c:	2a05      	cmp	r2, #5
   d972e:	d812      	bhi.n	d9756 <_ZN5spark9JSONValue8unescapeEP9jsmntok_tPc+0xb6>
            n = c - 'A' + 10;
   d9730:	f1a1 0237 	sub.w	r2, r1, #55	; 0x37
   d9734:	e7f2      	b.n	d971c <_ZN5spark9JSONValue8unescapeEP9jsmntok_tPc+0x7c>
                    *str = u;
   d9736:	f803 cb01 	strb.w	ip, [r3], #1
                    s1 += 6; // Skip escaped sequence
   d973a:	4601      	mov	r1, r0
   d973c:	e7f2      	b.n	d9724 <_ZN5spark9JSONValue8unescapeEP9jsmntok_tPc+0x84>
                switch (*s) {
   d973e:	2a6e      	cmp	r2, #110	; 0x6e
   d9740:	d01c      	beq.n	d977c <_ZN5spark9JSONValue8unescapeEP9jsmntok_tPc+0xdc>
   d9742:	d80e      	bhi.n	d9762 <_ZN5spark9JSONValue8unescapeEP9jsmntok_tPc+0xc2>
   d9744:	2a62      	cmp	r2, #98	; 0x62
   d9746:	d013      	beq.n	d9770 <_ZN5spark9JSONValue8unescapeEP9jsmntok_tPc+0xd0>
   d9748:	d807      	bhi.n	d975a <_ZN5spark9JSONValue8unescapeEP9jsmntok_tPc+0xba>
   d974a:	2a2f      	cmp	r2, #47	; 0x2f
   d974c:	d011      	beq.n	d9772 <_ZN5spark9JSONValue8unescapeEP9jsmntok_tPc+0xd2>
   d974e:	2a5c      	cmp	r2, #92	; 0x5c
   d9750:	d00f      	beq.n	d9772 <_ZN5spark9JSONValue8unescapeEP9jsmntok_tPc+0xd2>
   d9752:	2a22      	cmp	r2, #34	; 0x22
   d9754:	d00d      	beq.n	d9772 <_ZN5spark9JSONValue8unescapeEP9jsmntok_tPc+0xd2>
                return false; // Unexpected end of string
   d9756:	2000      	movs	r0, #0
   d9758:	e023      	b.n	d97a2 <_ZN5spark9JSONValue8unescapeEP9jsmntok_tPc+0x102>
                switch (*s) {
   d975a:	2a66      	cmp	r2, #102	; 0x66
   d975c:	d1fb      	bne.n	d9756 <_ZN5spark9JSONValue8unescapeEP9jsmntok_tPc+0xb6>
                    *str = 0x0c;
   d975e:	220c      	movs	r2, #12
   d9760:	e007      	b.n	d9772 <_ZN5spark9JSONValue8unescapeEP9jsmntok_tPc+0xd2>
                switch (*s) {
   d9762:	2a72      	cmp	r2, #114	; 0x72
   d9764:	d00d      	beq.n	d9782 <_ZN5spark9JSONValue8unescapeEP9jsmntok_tPc+0xe2>
   d9766:	2a74      	cmp	r2, #116	; 0x74
   d9768:	d1f5      	bne.n	d9756 <_ZN5spark9JSONValue8unescapeEP9jsmntok_tPc+0xb6>
                    *str = 0x09;
   d976a:	f883 a000 	strb.w	sl, [r3]
                    break;
   d976e:	e001      	b.n	d9774 <_ZN5spark9JSONValue8unescapeEP9jsmntok_tPc+0xd4>
                    *str = 0x08;
   d9770:	2208      	movs	r2, #8
   d9772:	701a      	strb	r2, [r3, #0]
                ++s;
   d9774:	1ca1      	adds	r1, r4, #2
                ++str;
   d9776:	3301      	adds	r3, #1
                ++s;
   d9778:	4608      	mov	r0, r1
   d977a:	e7d3      	b.n	d9724 <_ZN5spark9JSONValue8unescapeEP9jsmntok_tPc+0x84>
                    *str = 0x0a;
   d977c:	f04f 020a 	mov.w	r2, #10
   d9780:	e7f7      	b.n	d9772 <_ZN5spark9JSONValue8unescapeEP9jsmntok_tPc+0xd2>
                    *str = 0x0d;
   d9782:	f883 9000 	strb.w	r9, [r3]
                    break;
   d9786:	e7f5      	b.n	d9774 <_ZN5spark9JSONValue8unescapeEP9jsmntok_tPc+0xd4>
    if (s != s1) {
   d9788:	42a1      	cmp	r1, r4
   d978a:	d006      	beq.n	d979a <_ZN5spark9JSONValue8unescapeEP9jsmntok_tPc+0xfa>
        const size_t n = s - s1;
   d978c:	1a64      	subs	r4, r4, r1
        memmove(str, s1, n); // Shift remaining characters
   d978e:	4618      	mov	r0, r3
   d9790:	4622      	mov	r2, r4
   d9792:	f001 fefb 	bl	db58c <memmove>
   d9796:	4603      	mov	r3, r0
        str += n;
   d9798:	4423      	add	r3, r4
    t->end = str - json; // Update string length
   d979a:	eba3 0308 	sub.w	r3, r3, r8
   d979e:	60bb      	str	r3, [r7, #8]
    return true;
   d97a0:	2001      	movs	r0, #1
}
   d97a2:	e8bd 8ff8 	ldmia.w	sp!, {r3, r4, r5, r6, r7, r8, r9, sl, fp, pc}
                if (u <= 0x7f) { // Processing only code points within the basic latin block
   d97a6:	f1bc 0f7f 	cmp.w	ip, #127	; 0x7f
   d97aa:	d9c4      	bls.n	d9736 <_ZN5spark9JSONValue8unescapeEP9jsmntok_tPc+0x96>
   d97ac:	4621      	mov	r1, r4
   d97ae:	e7b9      	b.n	d9724 <_ZN5spark9JSONValue8unescapeEP9jsmntok_tPc+0x84>

000d97b0 <_ZN5spark9JSONValue9stringizeEP9jsmntok_tjPc>:
bool spark::JSONValue::stringize(jsmntok_t *t, size_t count, char *json) {
   d97b0:	b5f8      	push	{r3, r4, r5, r6, r7, lr}
   d97b2:	4604      	mov	r4, r0
   d97b4:	4615      	mov	r5, r2
    const jsmntok_t* const end = t + count;
   d97b6:	eb00 1601 	add.w	r6, r0, r1, lsl #4
            json[t->end] = '\0';
   d97ba:	2700      	movs	r7, #0
    while (t != end) {
   d97bc:	42b4      	cmp	r4, r6
   d97be:	d010      	beq.n	d97e2 <_ZN5spark9JSONValue9stringizeEP9jsmntok_tjPc+0x32>
        if (t->type == JSMN_STRING) {
   d97c0:	7823      	ldrb	r3, [r4, #0]
   d97c2:	2b03      	cmp	r3, #3
   d97c4:	d108      	bne.n	d97d8 <_ZN5spark9JSONValue9stringizeEP9jsmntok_tjPc+0x28>
            if (!unescape(t, json)) {
   d97c6:	4629      	mov	r1, r5
   d97c8:	4620      	mov	r0, r4
   d97ca:	f7ff ff69 	bl	d96a0 <_ZN5spark9JSONValue8unescapeEP9jsmntok_tPc>
   d97ce:	b148      	cbz	r0, d97e4 <_ZN5spark9JSONValue9stringizeEP9jsmntok_tjPc+0x34>
            json[t->end] = '\0';
   d97d0:	68a3      	ldr	r3, [r4, #8]
   d97d2:	54ef      	strb	r7, [r5, r3]
        ++t;
   d97d4:	3410      	adds	r4, #16
    while (t != end) {
   d97d6:	e7f1      	b.n	d97bc <_ZN5spark9JSONValue9stringizeEP9jsmntok_tjPc+0xc>
        } else if (t->type == JSMN_PRIMITIVE) {
   d97d8:	2b00      	cmp	r3, #0
   d97da:	d1fb      	bne.n	d97d4 <_ZN5spark9JSONValue9stringizeEP9jsmntok_tjPc+0x24>
            json[t->end] = '\0';
   d97dc:	68a2      	ldr	r2, [r4, #8]
   d97de:	54ab      	strb	r3, [r5, r2]
   d97e0:	e7f8      	b.n	d97d4 <_ZN5spark9JSONValue9stringizeEP9jsmntok_tjPc+0x24>
    return true;
   d97e2:	2001      	movs	r0, #1
}
   d97e4:	bdf8      	pop	{r3, r4, r5, r6, r7, pc}
	...

000d97e8 <_ZN5spark10JSONStringC1EPK9jsmntok_tSt10shared_ptrINS_6detail8JSONDataEE>:
spark::JSONString::JSONString(const jsmntok_t *t, detail::JSONDataPtr d) :
   d97e8:	b538      	push	{r3, r4, r5, lr}
      : _M_ptr(0), _M_refcount()
   d97ea:	2300      	movs	r3, #0
      constexpr __shared_count() noexcept : _M_pi(0)
   d97ec:	e9c0 3300 	strd	r3, r3, [r0]
   d97f0:	4604      	mov	r4, r0
        n_(0) {
   d97f2:	480e      	ldr	r0, [pc, #56]	; (d982c <_ZN5spark10JSONStringC1EPK9jsmntok_tSt10shared_ptrINS_6detail8JSONDataEE+0x44>)
   d97f4:	e9c4 0302 	strd	r0, r3, [r4, #8]
    if (t && (t->type == JSMN_STRING || t->type == JSMN_PRIMITIVE)) {
   d97f8:	b1a9      	cbz	r1, d9826 <_ZN5spark10JSONStringC1EPK9jsmntok_tSt10shared_ptrINS_6detail8JSONDataEE+0x3e>
   d97fa:	780b      	ldrb	r3, [r1, #0]
   d97fc:	2b03      	cmp	r3, #3
   d97fe:	d006      	beq.n	d980e <_ZN5spark10JSONStringC1EPK9jsmntok_tSt10shared_ptrINS_6detail8JSONDataEE+0x26>
   d9800:	b98b      	cbnz	r3, d9826 <_ZN5spark10JSONStringC1EPK9jsmntok_tSt10shared_ptrINS_6detail8JSONDataEE+0x3e>
        if (t->type != JSMN_PRIMITIVE || d->json[t->start] != 'n') { // Nulls are treated as empty strings
   d9802:	6813      	ldr	r3, [r2, #0]
   d9804:	6858      	ldr	r0, [r3, #4]
   d9806:	684b      	ldr	r3, [r1, #4]
   d9808:	5cc3      	ldrb	r3, [r0, r3]
   d980a:	2b6e      	cmp	r3, #110	; 0x6e
   d980c:	d007      	beq.n	d981e <_ZN5spark10JSONStringC1EPK9jsmntok_tSt10shared_ptrINS_6detail8JSONDataEE+0x36>
            s_ = d->json + t->start;
   d980e:	6813      	ldr	r3, [r2, #0]
   d9810:	684d      	ldr	r5, [r1, #4]
   d9812:	6858      	ldr	r0, [r3, #4]
            n_ = t->end - t->start;
   d9814:	688b      	ldr	r3, [r1, #8]
            s_ = d->json + t->start;
   d9816:	4428      	add	r0, r5
            n_ = t->end - t->start;
   d9818:	1b5b      	subs	r3, r3, r5
            s_ = d->json + t->start;
   d981a:	60a0      	str	r0, [r4, #8]
            n_ = t->end - t->start;
   d981c:	60e3      	str	r3, [r4, #12]
   d981e:	4611      	mov	r1, r2
   d9820:	4620      	mov	r0, r4
   d9822:	f7ff feb4 	bl	d958e <_ZNSt12__shared_ptrIN5spark6detail8JSONDataELN9__gnu_cxx12_Lock_policyE0EEaSERKS5_>
}
   d9826:	4620      	mov	r0, r4
   d9828:	bd38      	pop	{r3, r4, r5, pc}
   d982a:	bf00      	nop
   d982c:	000de518 	.word	0x000de518

000d9830 <_ZN5spark18JSONObjectIteratorC1EPK9jsmntok_tSt10shared_ptrINS_6detail8JSONDataEE>:
spark::JSONObjectIterator::JSONObjectIterator(const jsmntok_t *t, detail::JSONDataPtr d) :
   d9830:	b538      	push	{r3, r4, r5, lr}
      : _M_ptr(0), _M_refcount()
   d9832:	2500      	movs	r5, #0
   d9834:	460b      	mov	r3, r1
      constexpr __shared_count() noexcept : _M_pi(0)
   d9836:	e9c0 5500 	strd	r5, r5, [r0]
        n_(0) {
   d983a:	e9c0 5502 	strd	r5, r5, [r0, #8]
   d983e:	e9c0 5504 	strd	r5, r5, [r0, #16]
   d9842:	4604      	mov	r4, r0
   d9844:	4611      	mov	r1, r2
    if (t && t->type == JSMN_OBJECT) {
   d9846:	b14b      	cbz	r3, d985c <_ZN5spark18JSONObjectIteratorC1EPK9jsmntok_tSt10shared_ptrINS_6detail8JSONDataEE+0x2c>
   d9848:	781a      	ldrb	r2, [r3, #0]
   d984a:	2a01      	cmp	r2, #1
   d984c:	d106      	bne.n	d985c <_ZN5spark18JSONObjectIteratorC1EPK9jsmntok_tSt10shared_ptrINS_6detail8JSONDataEE+0x2c>
        t_ = t + 1; // First property's name
   d984e:	f103 0210 	add.w	r2, r3, #16
        n_ = t->size; // Number of properties
   d9852:	68db      	ldr	r3, [r3, #12]
        t_ = t + 1; // First property's name
   d9854:	6082      	str	r2, [r0, #8]
        n_ = t->size; // Number of properties
   d9856:	6143      	str	r3, [r0, #20]
   d9858:	f7ff fe99 	bl	d958e <_ZNSt12__shared_ptrIN5spark6detail8JSONDataELN9__gnu_cxx12_Lock_policyE0EEaSERKS5_>
}
   d985c:	4620      	mov	r0, r4
   d985e:	bd38      	pop	{r3, r4, r5, pc}

000d9860 <_ZN5spark18JSONObjectIterator4nextEv>:
bool spark::JSONObjectIterator::next() {
   d9860:	b510      	push	{r4, lr}
    if (!n_) {
   d9862:	6943      	ldr	r3, [r0, #20]
bool spark::JSONObjectIterator::next() {
   d9864:	4604      	mov	r4, r0
    if (!n_) {
   d9866:	b163      	cbz	r3, d9882 <_ZN5spark18JSONObjectIterator4nextEv+0x22>
    k_ = t_; // Name
   d9868:	6880      	ldr	r0, [r0, #8]
   d986a:	60e0      	str	r0, [r4, #12]
    --n_;
   d986c:	3b01      	subs	r3, #1
    ++t_;
   d986e:	3010      	adds	r0, #16
   d9870:	60a0      	str	r0, [r4, #8]
    v_ = t_; // Value
   d9872:	6120      	str	r0, [r4, #16]
    --n_;
   d9874:	6163      	str	r3, [r4, #20]
    if (n_) {
   d9876:	b113      	cbz	r3, d987e <_ZN5spark18JSONObjectIterator4nextEv+0x1e>
        t_ = skipToken(t_);
   d9878:	f7ff fdfe 	bl	d9478 <_ZN12_GLOBAL__N_19skipTokenEPK9jsmntok_t>
   d987c:	60a0      	str	r0, [r4, #8]
    return true;
   d987e:	2001      	movs	r0, #1
   d9880:	e000      	b.n	d9884 <_ZN5spark18JSONObjectIterator4nextEv+0x24>
        return false;
   d9882:	4618      	mov	r0, r3
}
   d9884:	bd10      	pop	{r4, pc}

000d9886 <_ZN5spark10JSONWriter9endObjectEv>:
spark::JSONWriter& spark::JSONWriter::endObject() {
   d9886:	b510      	push	{r4, lr}
    write('}');
   d9888:	217d      	movs	r1, #125	; 0x7d
spark::JSONWriter& spark::JSONWriter::endObject() {
   d988a:	4604      	mov	r4, r0
    write('}');
   d988c:	f7ff fe73 	bl	d9576 <_ZN5spark10JSONWriter5writeEc>
    state_ = NEXT;
   d9890:	2301      	movs	r3, #1
   d9892:	7123      	strb	r3, [r4, #4]
}
   d9894:	4620      	mov	r0, r4
   d9896:	bd10      	pop	{r4, pc}

000d9898 <_ZN5spark10JSONWriter14writeSeparatorEv>:
void spark::JSONWriter::writeSeparator() {
   d9898:	b508      	push	{r3, lr}
    switch (state_) {
   d989a:	7903      	ldrb	r3, [r0, #4]
   d989c:	2b01      	cmp	r3, #1
   d989e:	d002      	beq.n	d98a6 <_ZN5spark10JSONWriter14writeSeparatorEv+0xe>
   d98a0:	2b02      	cmp	r3, #2
   d98a2:	d004      	beq.n	d98ae <_ZN5spark10JSONWriter14writeSeparatorEv+0x16>
}
   d98a4:	bd08      	pop	{r3, pc}
        write(',');
   d98a6:	212c      	movs	r1, #44	; 0x2c
        write(':');
   d98a8:	f7ff fe65 	bl	d9576 <_ZN5spark10JSONWriter5writeEc>
}
   d98ac:	e7fa      	b.n	d98a4 <_ZN5spark10JSONWriter14writeSeparatorEv+0xc>
        write(':');
   d98ae:	213a      	movs	r1, #58	; 0x3a
   d98b0:	e7fa      	b.n	d98a8 <_ZN5spark10JSONWriter14writeSeparatorEv+0x10>

000d98b2 <_ZN5spark10JSONWriter11beginObjectEv>:
spark::JSONWriter& spark::JSONWriter::beginObject() {
   d98b2:	b510      	push	{r4, lr}
   d98b4:	4604      	mov	r4, r0
    writeSeparator();
   d98b6:	f7ff ffef 	bl	d9898 <_ZN5spark10JSONWriter14writeSeparatorEv>
    write('{');
   d98ba:	4620      	mov	r0, r4
   d98bc:	217b      	movs	r1, #123	; 0x7b
   d98be:	f7ff fe5a 	bl	d9576 <_ZN5spark10JSONWriter5writeEc>
    state_ = BEGIN;
   d98c2:	2300      	movs	r3, #0
   d98c4:	7123      	strb	r3, [r4, #4]
}
   d98c6:	4620      	mov	r0, r4
   d98c8:	bd10      	pop	{r4, pc}
	...

000d98cc <_ZN5spark10JSONWriter5valueEb>:
spark::JSONWriter& spark::JSONWriter::value(bool val) {
   d98cc:	b538      	push	{r3, r4, r5, lr}
   d98ce:	4604      	mov	r4, r0
   d98d0:	460d      	mov	r5, r1
    writeSeparator();
   d98d2:	f7ff ffe1 	bl	d9898 <_ZN5spark10JSONWriter14writeSeparatorEv>
    if (val) {
   d98d6:	6823      	ldr	r3, [r4, #0]
        write("true", 4);
   d98d8:	689b      	ldr	r3, [r3, #8]
    if (val) {
   d98da:	b13d      	cbz	r5, d98ec <_ZN5spark10JSONWriter5valueEb+0x20>
        write("true", 4);
   d98dc:	4905      	ldr	r1, [pc, #20]	; (d98f4 <_ZN5spark10JSONWriter5valueEb+0x28>)
   d98de:	2204      	movs	r2, #4
        write("false", 5);
   d98e0:	4620      	mov	r0, r4
   d98e2:	4798      	blx	r3
    state_ = NEXT;
   d98e4:	2301      	movs	r3, #1
   d98e6:	7123      	strb	r3, [r4, #4]
}
   d98e8:	4620      	mov	r0, r4
   d98ea:	bd38      	pop	{r3, r4, r5, pc}
        write("false", 5);
   d98ec:	4902      	ldr	r1, [pc, #8]	; (d98f8 <_ZN5spark10JSONWriter5valueEb+0x2c>)
   d98ee:	2205      	movs	r2, #5
   d98f0:	e7f6      	b.n	d98e0 <_ZN5spark10JSONWriter5valueEb+0x14>
   d98f2:	bf00      	nop
   d98f4:	000de3e2 	.word	0x000de3e2
   d98f8:	000de3dc 	.word	0x000de3dc

000d98fc <_ZN5spark10JSONWriter5valueEi>:
spark::JSONWriter& spark::JSONWriter::value(int val) {
   d98fc:	b513      	push	{r0, r1, r4, lr}
   d98fe:	4604      	mov	r4, r0
   d9900:	9101      	str	r1, [sp, #4]
    writeSeparator();
   d9902:	f7ff ffc9 	bl	d9898 <_ZN5spark10JSONWriter14writeSeparatorEv>
    printf("%d", val);
   d9906:	6823      	ldr	r3, [r4, #0]
   d9908:	9a01      	ldr	r2, [sp, #4]
   d990a:	68db      	ldr	r3, [r3, #12]
   d990c:	4903      	ldr	r1, [pc, #12]	; (d991c <_ZN5spark10JSONWriter5valueEi+0x20>)
   d990e:	4620      	mov	r0, r4
   d9910:	4798      	blx	r3
    state_ = NEXT;
   d9912:	2301      	movs	r3, #1
}
   d9914:	4620      	mov	r0, r4
    state_ = NEXT;
   d9916:	7123      	strb	r3, [r4, #4]
}
   d9918:	b002      	add	sp, #8
   d991a:	bd10      	pop	{r4, pc}
   d991c:	000de098 	.word	0x000de098

000d9920 <_ZN5spark10JSONWriter5valueEd>:
spark::JSONWriter& spark::JSONWriter::value(double val) {
   d9920:	b5f8      	push	{r3, r4, r5, r6, r7, lr}
   d9922:	4604      	mov	r4, r0
   d9924:	ec57 6b10 	vmov	r6, r7, d0
    writeSeparator();
   d9928:	f7ff ffb6 	bl	d9898 <_ZN5spark10JSONWriter14writeSeparatorEv>
    printf("%g", val);
   d992c:	6823      	ldr	r3, [r4, #0]
   d992e:	4905      	ldr	r1, [pc, #20]	; (d9944 <_ZN5spark10JSONWriter5valueEd+0x24>)
   d9930:	68dd      	ldr	r5, [r3, #12]
   d9932:	4620      	mov	r0, r4
   d9934:	463b      	mov	r3, r7
   d9936:	4632      	mov	r2, r6
   d9938:	47a8      	blx	r5
    state_ = NEXT;
   d993a:	2301      	movs	r3, #1
   d993c:	7123      	strb	r3, [r4, #4]
}
   d993e:	4620      	mov	r0, r4
   d9940:	bdf8      	pop	{r3, r4, r5, r6, r7, pc}
   d9942:	bf00      	nop
   d9944:	000de3e7 	.word	0x000de3e7

000d9948 <_ZN5spark10JSONWriter12writeEscapedEPKcj>:
void spark::JSONWriter::writeEscaped(const char *str, size_t size) {
   d9948:	e92d 41f0 	stmdb	sp!, {r4, r5, r6, r7, r8, lr}
   d994c:	460d      	mov	r5, r1
   d994e:	4617      	mov	r7, r2
    write('"');
   d9950:	2122      	movs	r1, #34	; 0x22
                printf("u%04x", (unsigned)c);
   d9952:	f8df 80a0 	ldr.w	r8, [pc, #160]	; d99f4 <_ZN5spark10JSONWriter12writeEscapedEPKcj+0xac>
void spark::JSONWriter::writeEscaped(const char *str, size_t size) {
   d9956:	4604      	mov	r4, r0
    const char* const end = str + size;
   d9958:	442f      	add	r7, r5
    write('"');
   d995a:	f7ff fe0c 	bl	d9576 <_ZN5spark10JSONWriter5writeEc>
    const char* const end = str + size;
   d995e:	4629      	mov	r1, r5
    while (s != end) {
   d9960:	42bd      	cmp	r5, r7
   d9962:	462a      	mov	r2, r5
   d9964:	d038      	beq.n	d99d8 <_ZN5spark10JSONWriter12writeEscapedEPKcj+0x90>
        const char c = *s;
   d9966:	f815 6b01 	ldrb.w	r6, [r5], #1
        if (c == '"' || c == '\\' || (c >= 0 && c <= 0x1f)) {
   d996a:	2e22      	cmp	r6, #34	; 0x22
   d996c:	d003      	beq.n	d9976 <_ZN5spark10JSONWriter12writeEscapedEPKcj+0x2e>
   d996e:	2e5c      	cmp	r6, #92	; 0x5c
   d9970:	d001      	beq.n	d9976 <_ZN5spark10JSONWriter12writeEscapedEPKcj+0x2e>
   d9972:	2e1f      	cmp	r6, #31
   d9974:	d8f4      	bhi.n	d9960 <_ZN5spark10JSONWriter12writeEscapedEPKcj+0x18>
            write(str, s - str); // Write preceeding characters
   d9976:	6823      	ldr	r3, [r4, #0]
   d9978:	1a52      	subs	r2, r2, r1
   d997a:	689b      	ldr	r3, [r3, #8]
   d997c:	4620      	mov	r0, r4
   d997e:	4798      	blx	r3
            write('\\');
   d9980:	215c      	movs	r1, #92	; 0x5c
   d9982:	4620      	mov	r0, r4
   d9984:	f7ff fdf7 	bl	d9576 <_ZN5spark10JSONWriter5writeEc>
            switch (c) {
   d9988:	2e0d      	cmp	r6, #13
   d998a:	d80a      	bhi.n	d99a2 <_ZN5spark10JSONWriter12writeEscapedEPKcj+0x5a>
   d998c:	2e07      	cmp	r6, #7
   d998e:	d91c      	bls.n	d99ca <_ZN5spark10JSONWriter12writeEscapedEPKcj+0x82>
   d9990:	f1a6 0308 	sub.w	r3, r6, #8
   d9994:	2b05      	cmp	r3, #5
   d9996:	d818      	bhi.n	d99ca <_ZN5spark10JSONWriter12writeEscapedEPKcj+0x82>
   d9998:	e8df f003 	tbb	[pc, r3]
   d999c:	17110f0d 	.word	0x17110f0d
   d99a0:	1513      	.short	0x1513
   d99a2:	2e22      	cmp	r6, #34	; 0x22
   d99a4:	d001      	beq.n	d99aa <_ZN5spark10JSONWriter12writeEscapedEPKcj+0x62>
   d99a6:	2e5c      	cmp	r6, #92	; 0x5c
   d99a8:	d10f      	bne.n	d99ca <_ZN5spark10JSONWriter12writeEscapedEPKcj+0x82>
                write(c);
   d99aa:	4631      	mov	r1, r6
                write('b');
   d99ac:	4620      	mov	r0, r4
   d99ae:	f7ff fde2 	bl	d9576 <_ZN5spark10JSONWriter5writeEc>
            str = s + 1;
   d99b2:	4629      	mov	r1, r5
    while (s != end) {
   d99b4:	e7d4      	b.n	d9960 <_ZN5spark10JSONWriter12writeEscapedEPKcj+0x18>
                write('b');
   d99b6:	2162      	movs	r1, #98	; 0x62
   d99b8:	e7f8      	b.n	d99ac <_ZN5spark10JSONWriter12writeEscapedEPKcj+0x64>
                write('t');
   d99ba:	2174      	movs	r1, #116	; 0x74
   d99bc:	e7f6      	b.n	d99ac <_ZN5spark10JSONWriter12writeEscapedEPKcj+0x64>
                write('n');
   d99be:	216e      	movs	r1, #110	; 0x6e
   d99c0:	e7f4      	b.n	d99ac <_ZN5spark10JSONWriter12writeEscapedEPKcj+0x64>
                write('f');
   d99c2:	2166      	movs	r1, #102	; 0x66
   d99c4:	e7f2      	b.n	d99ac <_ZN5spark10JSONWriter12writeEscapedEPKcj+0x64>
                write('r');
   d99c6:	2172      	movs	r1, #114	; 0x72
   d99c8:	e7f0      	b.n	d99ac <_ZN5spark10JSONWriter12writeEscapedEPKcj+0x64>
                printf("u%04x", (unsigned)c);
   d99ca:	6823      	ldr	r3, [r4, #0]
   d99cc:	4632      	mov	r2, r6
   d99ce:	68db      	ldr	r3, [r3, #12]
   d99d0:	4641      	mov	r1, r8
   d99d2:	4620      	mov	r0, r4
   d99d4:	4798      	blx	r3
                break;
   d99d6:	e7ec      	b.n	d99b2 <_ZN5spark10JSONWriter12writeEscapedEPKcj+0x6a>
    if (s != str) {
   d99d8:	428d      	cmp	r5, r1
   d99da:	d004      	beq.n	d99e6 <_ZN5spark10JSONWriter12writeEscapedEPKcj+0x9e>
        write(str, s - str); // Write remaining characters
   d99dc:	6823      	ldr	r3, [r4, #0]
   d99de:	1a6a      	subs	r2, r5, r1
   d99e0:	689b      	ldr	r3, [r3, #8]
   d99e2:	4620      	mov	r0, r4
   d99e4:	4798      	blx	r3
    write('"');
   d99e6:	2122      	movs	r1, #34	; 0x22
   d99e8:	4620      	mov	r0, r4
   d99ea:	f7ff fdc4 	bl	d9576 <_ZN5spark10JSONWriter5writeEc>
}
   d99ee:	e8bd 81f0 	ldmia.w	sp!, {r4, r5, r6, r7, r8, pc}
   d99f2:	bf00      	nop
   d99f4:	000de3ea 	.word	0x000de3ea

000d99f8 <_ZN5spark10JSONWriter4nameEPKcj>:
spark::JSONWriter& spark::JSONWriter::name(const char *name, size_t size) {
   d99f8:	b513      	push	{r0, r1, r4, lr}
   d99fa:	4604      	mov	r4, r0
   d99fc:	e9cd 2100 	strd	r2, r1, [sp]
    writeSeparator();
   d9a00:	f7ff ff4a 	bl	d9898 <_ZN5spark10JSONWriter14writeSeparatorEv>
    writeEscaped(name, size);
   d9a04:	4620      	mov	r0, r4
   d9a06:	e9dd 2100 	ldrd	r2, r1, [sp]
   d9a0a:	f7ff ff9d 	bl	d9948 <_ZN5spark10JSONWriter12writeEscapedEPKcj>
    state_ = VALUE;
   d9a0e:	2302      	movs	r3, #2
}
   d9a10:	4620      	mov	r0, r4
    state_ = VALUE;
   d9a12:	7123      	strb	r3, [r4, #4]
}
   d9a14:	b002      	add	sp, #8
   d9a16:	bd10      	pop	{r4, pc}

000d9a18 <_ZN5spark10JSONWriter5valueEPKcj>:
spark::JSONWriter& spark::JSONWriter::value(const char *val, size_t size) {
   d9a18:	b513      	push	{r0, r1, r4, lr}
   d9a1a:	4604      	mov	r4, r0
   d9a1c:	e9cd 2100 	strd	r2, r1, [sp]
    writeSeparator();
   d9a20:	f7ff ff3a 	bl	d9898 <_ZN5spark10JSONWriter14writeSeparatorEv>
    writeEscaped(val, size);
   d9a24:	4620      	mov	r0, r4
   d9a26:	e9dd 2100 	ldrd	r2, r1, [sp]
   d9a2a:	f7ff ff8d 	bl	d9948 <_ZN5spark10JSONWriter12writeEscapedEPKcj>
    state_ = NEXT;
   d9a2e:	2301      	movs	r3, #1
}
   d9a30:	4620      	mov	r0, r4
    state_ = NEXT;
   d9a32:	7123      	strb	r3, [r4, #4]
}
   d9a34:	b002      	add	sp, #8
   d9a36:	bd10      	pop	{r4, pc}

000d9a38 <_ZNSt14__shared_countILN9__gnu_cxx12_Lock_policyE0EEC1IPN5spark6detail8JSONDataEEET_>:
	__shared_count(_Ptr __p) : _M_pi(0)
   d9a38:	b538      	push	{r3, r4, r5, lr}
   d9a3a:	2300      	movs	r3, #0
   d9a3c:	4604      	mov	r4, r0
   d9a3e:	6003      	str	r3, [r0, #0]
	      _M_pi = new _Sp_counted_ptr<_Ptr, _Lp>(__p);
   d9a40:	2010      	movs	r0, #16
	__shared_count(_Ptr __p) : _M_pi(0)
   d9a42:	460d      	mov	r5, r1
	      _M_pi = new _Sp_counted_ptr<_Ptr, _Lp>(__p);
   d9a44:	f7fa fb27 	bl	d4096 <_Znwj>
   d9a48:	b128      	cbz	r0, d9a56 <_ZNSt14__shared_countILN9__gnu_cxx12_Lock_policyE0EEC1IPN5spark6detail8JSONDataEEET_+0x1e>
      : _M_use_count(1), _M_weak_count(1) { }
   d9a4a:	2301      	movs	r3, #1
   d9a4c:	e9c0 3301 	strd	r3, r3, [r0, #4]
      : _M_ptr(__p) { }
   d9a50:	4b02      	ldr	r3, [pc, #8]	; (d9a5c <_ZNSt14__shared_countILN9__gnu_cxx12_Lock_policyE0EEC1IPN5spark6detail8JSONDataEEET_+0x24>)
   d9a52:	6003      	str	r3, [r0, #0]
   d9a54:	60c5      	str	r5, [r0, #12]
	      _M_pi = new _Sp_counted_ptr<_Ptr, _Lp>(__p);
   d9a56:	6020      	str	r0, [r4, #0]
	}
   d9a58:	4620      	mov	r0, r4
   d9a5a:	bd38      	pop	{r3, r4, r5, pc}
   d9a5c:	000de3f8 	.word	0x000de3f8

000d9a60 <_ZN5spark9JSONValue9parseCopyEPKcj>:
spark::JSONValue spark::JSONValue::parseCopy(const char *json, size_t size) {
   d9a60:	b5f0      	push	{r4, r5, r6, r7, lr}
   d9a62:	4604      	mov	r4, r0
   d9a64:	b087      	sub	sp, #28
   d9a66:	460e      	mov	r6, r1
    detail::JSONDataPtr d(new(std::nothrow) detail::JSONData);
   d9a68:	200c      	movs	r0, #12
   d9a6a:	4927      	ldr	r1, [pc, #156]	; (d9b08 <_ZN5spark9JSONValue9parseCopyEPKcj+0xa8>)
spark::JSONValue spark::JSONValue::parseCopy(const char *json, size_t size) {
   d9a6c:	4615      	mov	r5, r2
    detail::JSONDataPtr d(new(std::nothrow) detail::JSONData);
   d9a6e:	f000 ff0c 	bl	da88a <_ZnwjRKSt9nothrow_t>
   d9a72:	4601      	mov	r1, r0
   d9a74:	b118      	cbz	r0, d9a7e <_ZN5spark9JSONValue9parseCopyEPKcj+0x1e>
            freeJson(false) {
   d9a76:	2300      	movs	r3, #0
   d9a78:	e9c0 3300 	strd	r3, r3, [r0]
   d9a7c:	7203      	strb	r3, [r0, #8]
	: __shared_count(__p)
   d9a7e:	a803      	add	r0, sp, #12
	: _M_ptr(__p), _M_refcount(__p, typename is_array<_Tp>::type())
   d9a80:	9102      	str	r1, [sp, #8]
	: __shared_count(__p)
   d9a82:	f7ff ffd9 	bl	d9a38 <_ZNSt14__shared_countILN9__gnu_cxx12_Lock_policyE0EEC1IPN5spark6detail8JSONDataEEET_>
    if (!d) {
   d9a86:	9a02      	ldr	r2, [sp, #8]
   d9a88:	b942      	cbnz	r2, d9a9c <_ZN5spark9JSONValue9parseCopyEPKcj+0x3c>
      constexpr __shared_count() noexcept : _M_pi(0)
   d9a8a:	e9c4 2200 	strd	r2, r2, [r4]
        t_(nullptr) {
   d9a8e:	60a2      	str	r2, [r4, #8]
      ~__shared_ptr() = default;
   d9a90:	a803      	add	r0, sp, #12
   d9a92:	f7fb fd8f 	bl	d55b4 <_ZNSt14__shared_countILN9__gnu_cxx12_Lock_policyE0EED1Ev>
}
   d9a96:	4620      	mov	r0, r4
   d9a98:	b007      	add	sp, #28
   d9a9a:	bdf0      	pop	{r4, r5, r6, r7, pc}
    size_t tokenCount = 0;
   d9a9c:	2300      	movs	r3, #0
   d9a9e:	9301      	str	r3, [sp, #4]
    if (!tokenize(json, size, &d->tokens, &tokenCount)) {
   d9aa0:	4629      	mov	r1, r5
   d9aa2:	ab01      	add	r3, sp, #4
   d9aa4:	4630      	mov	r0, r6
   d9aa6:	f7ff fdbf 	bl	d9628 <_ZN5spark9JSONValue8tokenizeEPKcjPP9jsmntok_tPj>
   d9aaa:	b918      	cbnz	r0, d9ab4 <_ZN5spark9JSONValue9parseCopyEPKcj+0x54>
      constexpr __shared_count() noexcept : _M_pi(0)
   d9aac:	e9c4 0000 	strd	r0, r0, [r4]
   d9ab0:	60a0      	str	r0, [r4, #8]
}
   d9ab2:	e7ed      	b.n	d9a90 <_ZN5spark9JSONValue9parseCopyEPKcj+0x30>
    d->json = new(std::nothrow) char[size + 1];
   d9ab4:	4914      	ldr	r1, [pc, #80]	; (d9b08 <_ZN5spark9JSONValue9parseCopyEPKcj+0xa8>)
      { return static_cast<const __shared_ptr<_Tp, _Lp>*>(this)->get(); }
   d9ab6:	9f02      	ldr	r7, [sp, #8]
   d9ab8:	1c68      	adds	r0, r5, #1
   d9aba:	f000 fee8 	bl	da88e <_ZnajRKSt9nothrow_t>
    if (!d->json) {
   d9abe:	9b02      	ldr	r3, [sp, #8]
    d->json = new(std::nothrow) char[size + 1];
   d9ac0:	6078      	str	r0, [r7, #4]
    if (!d->json) {
   d9ac2:	6858      	ldr	r0, [r3, #4]
   d9ac4:	2800      	cmp	r0, #0
   d9ac6:	d0f1      	beq.n	d9aac <_ZN5spark9JSONValue9parseCopyEPKcj+0x4c>
    memcpy(d->json, json, size); // TODO: Copy only token data
   d9ac8:	462a      	mov	r2, r5
   d9aca:	4631      	mov	r1, r6
   d9acc:	f001 fd50 	bl	db570 <memcpy>
   d9ad0:	9b02      	ldr	r3, [sp, #8]
    if (!stringize(d->tokens, tokenCount, d->json)) {
   d9ad2:	9901      	ldr	r1, [sp, #4]
   d9ad4:	6818      	ldr	r0, [r3, #0]
    d->freeJson = true;
   d9ad6:	2201      	movs	r2, #1
   d9ad8:	721a      	strb	r2, [r3, #8]
    if (!stringize(d->tokens, tokenCount, d->json)) {
   d9ada:	685a      	ldr	r2, [r3, #4]
   d9adc:	f7ff fe68 	bl	d97b0 <_ZN5spark9JSONValue9stringizeEP9jsmntok_tjPc>
   d9ae0:	2800      	cmp	r0, #0
   d9ae2:	d0e3      	beq.n	d9aac <_ZN5spark9JSONValue9parseCopyEPKcj+0x4c>
   d9ae4:	9b02      	ldr	r3, [sp, #8]
    return JSONValue(d->tokens, d);
   d9ae6:	6819      	ldr	r1, [r3, #0]
      __shared_ptr(const __shared_ptr&) noexcept = default;
   d9ae8:	9304      	str	r3, [sp, #16]
      : _M_pi(__r._M_pi)
   d9aea:	9b03      	ldr	r3, [sp, #12]
   d9aec:	9305      	str	r3, [sp, #20]
	if (_M_pi != 0)
   d9aee:	b113      	cbz	r3, d9af6 <_ZN5spark9JSONValue9parseCopyEPKcj+0x96>
    { ++_M_use_count; }
   d9af0:	685a      	ldr	r2, [r3, #4]
   d9af2:	3201      	adds	r2, #1
   d9af4:	605a      	str	r2, [r3, #4]
   d9af6:	aa04      	add	r2, sp, #16
   d9af8:	4620      	mov	r0, r4
   d9afa:	f7ff fd5f 	bl	d95bc <_ZN5spark9JSONValueC1EPK9jsmntok_tSt10shared_ptrINS_6detail8JSONDataEE>
      ~__shared_ptr() = default;
   d9afe:	a805      	add	r0, sp, #20
   d9b00:	f7fb fd58 	bl	d55b4 <_ZNSt14__shared_countILN9__gnu_cxx12_Lock_policyE0EED1Ev>
   d9b04:	e7c4      	b.n	d9a90 <_ZN5spark9JSONValue9parseCopyEPKcj+0x30>
   d9b06:	bf00      	nop
   d9b08:	000de4f0 	.word	0x000de4f0

000d9b0c <_GLOBAL__sub_I__ZN5spark3LogE>:
    // This handler doesn't support direct logging
}

// spark::Logger
inline spark::Logger::Logger(const char *name) :
        name_(name) {
   d9b0c:	4b01      	ldr	r3, [pc, #4]	; (d9b14 <_GLOBAL__sub_I__ZN5spark3LogE+0x8>)
   d9b0e:	4a02      	ldr	r2, [pc, #8]	; (d9b18 <_GLOBAL__sub_I__ZN5spark3LogE+0xc>)
   d9b10:	601a      	str	r2, [r3, #0]
#if Wiring_LogConfig

// spark::
void spark::logProcessControlRequest(ctrl_request* req) {
    JSONRequestHandler::process(req);
}
   d9b12:	4770      	bx	lr
   d9b14:	2003e61c 	.word	0x2003e61c
   d9b18:	000de424 	.word	0x000de424

000d9b1c <_ZN5spark12NetworkClass7connectEj>:
        return Network;
    }
}

void NetworkClass::connect(unsigned flags) {
    network_connect(*this, flags, 0, nullptr);
   d9b1c:	2300      	movs	r3, #0
   d9b1e:	6840      	ldr	r0, [r0, #4]
   d9b20:	461a      	mov	r2, r3
   d9b22:	f7fe bf1d 	b.w	d8960 <network_connect>

000d9b26 <_ZN5spark12NetworkClass10disconnectEv>:
}

void NetworkClass::disconnect() {
    network_disconnect(*this, NETWORK_DISCONNECT_REASON_USER, nullptr);
   d9b26:	6840      	ldr	r0, [r0, #4]
   d9b28:	2200      	movs	r2, #0
   d9b2a:	2102      	movs	r1, #2
   d9b2c:	f7fe bf28 	b.w	d8980 <network_disconnect>

000d9b30 <_ZN5spark12NetworkClass10connectingEv>:
}

bool NetworkClass::connecting() {
    return network_connecting(*this, 0, nullptr);
   d9b30:	2200      	movs	r2, #0
   d9b32:	6840      	ldr	r0, [r0, #4]
   d9b34:	4611      	mov	r1, r2
   d9b36:	f7fe bf1b 	b.w	d8970 <network_connecting>

000d9b3a <_ZN5spark12NetworkClass5readyEv>:
}

bool NetworkClass::ready() {
    return network_ready(*this, 0, nullptr);
   d9b3a:	2200      	movs	r2, #0
   d9b3c:	6840      	ldr	r0, [r0, #4]
   d9b3e:	4611      	mov	r1, r2
   d9b40:	f7fe bf26 	b.w	d8990 <network_ready>

000d9b44 <_ZN5spark12NetworkClass2onEv>:
}

void NetworkClass::on() {
    network_on(*this, 0, 0, nullptr);
   d9b44:	2300      	movs	r3, #0
   d9b46:	6840      	ldr	r0, [r0, #4]
   d9b48:	461a      	mov	r2, r3
   d9b4a:	4619      	mov	r1, r3
   d9b4c:	f7fe bf28 	b.w	d89a0 <network_on>

000d9b50 <_ZN5spark12NetworkClass3offEv>:
}

void NetworkClass::off() {
    network_off(*this, 0, 0, nullptr);
   d9b50:	2300      	movs	r3, #0
   d9b52:	6840      	ldr	r0, [r0, #4]
   d9b54:	461a      	mov	r2, r3
   d9b56:	4619      	mov	r1, r3
   d9b58:	f7fe bf2a 	b.w	d89b0 <network_off>

000d9b5c <_ZN5spark12NetworkClass4isOnEv>:
}

bool NetworkClass::isOn() {
    return network_is_on(*this, nullptr);
   d9b5c:	6840      	ldr	r0, [r0, #4]
   d9b5e:	2100      	movs	r1, #0
   d9b60:	f7fe bf4e 	b.w	d8a00 <network_is_on>

000d9b64 <_ZN5spark12NetworkClass5isOffEv>:
}

bool NetworkClass::isOff() {
    return network_is_off(*this, nullptr);
   d9b64:	6840      	ldr	r0, [r0, #4]
   d9b66:	2100      	movs	r1, #0
   d9b68:	f7fe bf52 	b.w	d8a10 <network_is_off>

000d9b6c <_ZN5spark12NetworkClass6listenEb>:
}

void NetworkClass::listen(bool begin) {
    network_listen(*this, begin ? 0 : 1, nullptr);
   d9b6c:	6840      	ldr	r0, [r0, #4]
   d9b6e:	2200      	movs	r2, #0
   d9b70:	f081 0101 	eor.w	r1, r1, #1
   d9b74:	f7fe bf24 	b.w	d89c0 <network_listen>

000d9b78 <_ZN5spark12NetworkClass16setListenTimeoutEt>:
}

void NetworkClass::setListenTimeout(uint16_t timeout) {
    network_set_listen_timeout(*this, timeout, nullptr);
   d9b78:	6840      	ldr	r0, [r0, #4]
   d9b7a:	2200      	movs	r2, #0
   d9b7c:	f7fe bf30 	b.w	d89e0 <network_set_listen_timeout>

000d9b80 <_ZN5spark12NetworkClass16getListenTimeoutEv>:
}

uint16_t NetworkClass::getListenTimeout() {
    return network_get_listen_timeout(*this, 0, nullptr);
   d9b80:	2200      	movs	r2, #0
   d9b82:	6840      	ldr	r0, [r0, #4]
   d9b84:	4611      	mov	r1, r2
   d9b86:	f7fe bf33 	b.w	d89f0 <network_get_listen_timeout>

000d9b8a <_ZN5spark12NetworkClass9listeningEv>:
}

bool NetworkClass::listening() {
    return network_listening(*this, 0, nullptr);
   d9b8a:	2200      	movs	r2, #0
   d9b8c:	6840      	ldr	r0, [r0, #4]
   d9b8e:	4611      	mov	r1, r2
   d9b90:	f7fe bf1e 	b.w	d89d0 <network_listening>

000d9b94 <_ZN5spark12NetworkClass7resolveEPKc>:
}

IPAddress NetworkClass::resolve(const char* name) {
   d9b94:	e92d 43f0 	stmdb	sp!, {r4, r5, r6, r7, r8, r9, lr}
    IPAddress addr;
#if HAL_USE_INET_HAL_POSIX
    struct addrinfo *ai = nullptr;
   d9b98:	2400      	movs	r4, #0
IPAddress NetworkClass::resolve(const char* name) {
   d9b9a:	b095      	sub	sp, #84	; 0x54
   d9b9c:	4616      	mov	r6, r2
   d9b9e:	460d      	mov	r5, r1
   d9ba0:	4607      	mov	r7, r0
    IPAddress addr;
   d9ba2:	f7ff fc2d 	bl	d9400 <_ZN9IPAddressC1Ev>
    struct addrinfo hints = {};
   d9ba6:	4621      	mov	r1, r4
   d9ba8:	2218      	movs	r2, #24
   d9baa:	a80e      	add	r0, sp, #56	; 0x38
    struct addrinfo *ai = nullptr;
   d9bac:	9400      	str	r4, [sp, #0]
    struct addrinfo hints = {};
   d9bae:	f001 fd07 	bl	db5c0 <memset>
    hints.ai_flags = AI_ADDRCONFIG;
   d9bb2:	2340      	movs	r3, #64	; 0x40
    hints.ai_family = AF_UNSPEC;
   d9bb4:	e9cd 340c 	strd	r3, r4, [sp, #48]	; 0x30
    const int r = getaddrinfo(name, nullptr, &hints, &ai);
   d9bb8:	4621      	mov	r1, r4
   d9bba:	466b      	mov	r3, sp
   d9bbc:	aa0c      	add	r2, sp, #48	; 0x30
   d9bbe:	4630      	mov	r0, r6
   d9bc0:	f7fe fd60 	bl	d8684 <netdb_getaddrinfo>
    if (!r) {
   d9bc4:	4604      	mov	r4, r0
   d9bc6:	2800      	cmp	r0, #0
   d9bc8:	d14c      	bne.n	d9c64 <_ZN5spark12NetworkClass7resolveEPKc+0xd0>
        bool ok = false;
        // This is not really needed if AI_ADDRCONFIG is properly supported
        bool ipv4 = network_ready(*this, NETWORK_READY_TYPE_IPV4, nullptr);
   d9bca:	4602      	mov	r2, r0
   d9bcc:	2101      	movs	r1, #1
   d9bce:	6868      	ldr	r0, [r5, #4]
   d9bd0:	f7fe fede 	bl	d8990 <network_ready>
        bool ipv6 = network_ready(*this, NETWORK_READY_TYPE_IPV6, nullptr);
   d9bd4:	2102      	movs	r1, #2
        bool ipv4 = network_ready(*this, NETWORK_READY_TYPE_IPV4, nullptr);
   d9bd6:	4680      	mov	r8, r0
        bool ipv6 = network_ready(*this, NETWORK_READY_TYPE_IPV6, nullptr);
   d9bd8:	4622      	mov	r2, r4
   d9bda:	6868      	ldr	r0, [r5, #4]
   d9bdc:	f7fe fed8 	bl	d8990 <network_ready>
        for (auto cur = ai; cur != nullptr && !ok; cur = cur->ai_next) {
   d9be0:	9e00      	ldr	r6, [sp, #0]
        bool ipv6 = network_ready(*this, NETWORK_READY_TYPE_IPV6, nullptr);
   d9be2:	4681      	mov	r9, r0
        bool ok = false;
   d9be4:	4621      	mov	r1, r4
        for (auto cur = ai; cur != nullptr && !ok; cur = cur->ai_next) {
   d9be6:	2e00      	cmp	r6, #0
   d9be8:	d03c      	beq.n	d9c64 <_ZN5spark12NetworkClass7resolveEPKc+0xd0>
   d9bea:	2900      	cmp	r1, #0
   d9bec:	d13a      	bne.n	d9c64 <_ZN5spark12NetworkClass7resolveEPKc+0xd0>
            // NOTE: using only the first entry that matches the current state of IPv4/IPv6 connectivity
            switch (cur->ai_family) {
   d9bee:	6873      	ldr	r3, [r6, #4]
   d9bf0:	2b02      	cmp	r3, #2
   d9bf2:	d003      	beq.n	d9bfc <_ZN5spark12NetworkClass7resolveEPKc+0x68>
   d9bf4:	2b0a      	cmp	r3, #10
   d9bf6:	d011      	beq.n	d9c1c <_ZN5spark12NetworkClass7resolveEPKc+0x88>
        for (auto cur = ai; cur != nullptr && !ok; cur = cur->ai_next) {
   d9bf8:	69f6      	ldr	r6, [r6, #28]
   d9bfa:	e7f4      	b.n	d9be6 <_ZN5spark12NetworkClass7resolveEPKc+0x52>
                case AF_INET: {
                    if (!ipv4) {
   d9bfc:	f1b8 0f00 	cmp.w	r8, #0
   d9c00:	d00a      	beq.n	d9c18 <_ZN5spark12NetworkClass7resolveEPKc+0x84>
                        continue;
                    }
                    // NOTE: HAL_IPAddress is little-endian
                    auto in = (struct sockaddr_in*)cur->ai_addr;
                    addr = (const uint8_t*)(&in->sin_addr.s_addr);
   d9c02:	6971      	ldr	r1, [r6, #20]
        return *this = IPAddress(address);
   d9c04:	a806      	add	r0, sp, #24
   d9c06:	3104      	adds	r1, #4
class IPAddress : public Printable {
   d9c08:	ad07      	add	r5, sp, #28
        return *this = IPAddress(address);
   d9c0a:	f7ff fc27 	bl	d945c <_ZN9IPAddressC1EPKh>
class IPAddress : public Printable {
   d9c0e:	cd0f      	ldmia	r5!, {r0, r1, r2, r3}
   d9c10:	1d3c      	adds	r4, r7, #4
   d9c12:	c40f      	stmia	r4!, {r0, r1, r2, r3}
   d9c14:	682b      	ldr	r3, [r5, #0]
   d9c16:	7023      	strb	r3, [r4, #0]
    virtual ~IPAddress() {}
   d9c18:	4641      	mov	r1, r8
   d9c1a:	e7ed      	b.n	d9bf8 <_ZN5spark12NetworkClass7resolveEPKc+0x64>
                    ok = true;
                    break;
                }
                case AF_INET6: {
                    if (!ipv6) {
   d9c1c:	f1b9 0f00 	cmp.w	r9, #0
   d9c20:	d101      	bne.n	d9c26 <_ZN5spark12NetworkClass7resolveEPKc+0x92>
                    auto in6 = (struct sockaddr_in6*)cur->ai_addr;
                    HAL_IPAddress a = {};
                    a.v = 6;
                    memcpy(a.ipv6, in6->sin6_addr.s6_addr, sizeof(a.ipv6));
                    addr = IPAddress(a);
                    ok = true;
   d9c22:	4649      	mov	r1, r9
   d9c24:	e7e8      	b.n	d9bf8 <_ZN5spark12NetworkClass7resolveEPKc+0x64>
                    auto in6 = (struct sockaddr_in6*)cur->ai_addr;
   d9c26:	6974      	ldr	r4, [r6, #20]
                    HAL_IPAddress a = {};
   d9c28:	2210      	movs	r2, #16
   d9c2a:	a801      	add	r0, sp, #4
   d9c2c:	f001 fcc8 	bl	db5c0 <memset>
                    a.v = 6;
   d9c30:	2306      	movs	r3, #6
   d9c32:	f88d 3014 	strb.w	r3, [sp, #20]
                    memcpy(a.ipv6, in6->sin6_addr.s6_addr, sizeof(a.ipv6));
   d9c36:	ad01      	add	r5, sp, #4
   d9c38:	f104 0308 	add.w	r3, r4, #8
   d9c3c:	3418      	adds	r4, #24
   d9c3e:	6818      	ldr	r0, [r3, #0]
   d9c40:	6859      	ldr	r1, [r3, #4]
   d9c42:	462a      	mov	r2, r5
   d9c44:	c203      	stmia	r2!, {r0, r1}
   d9c46:	3308      	adds	r3, #8
   d9c48:	42a3      	cmp	r3, r4
   d9c4a:	4615      	mov	r5, r2
   d9c4c:	d1f7      	bne.n	d9c3e <_ZN5spark12NetworkClass7resolveEPKc+0xaa>
                    addr = IPAddress(a);
   d9c4e:	a901      	add	r1, sp, #4
   d9c50:	a806      	add	r0, sp, #24
class IPAddress : public Printable {
   d9c52:	ad07      	add	r5, sp, #28
   d9c54:	f7ff fbe2 	bl	d941c <_ZN9IPAddressC1ERK16_HAL_IPAddress_t>
   d9c58:	cd0f      	ldmia	r5!, {r0, r1, r2, r3}
   d9c5a:	1d3c      	adds	r4, r7, #4
   d9c5c:	c40f      	stmia	r4!, {r0, r1, r2, r3}
   d9c5e:	682b      	ldr	r3, [r5, #0]
   d9c60:	7023      	strb	r3, [r4, #0]
   d9c62:	e7de      	b.n	d9c22 <_ZN5spark12NetworkClass7resolveEPKc+0x8e>
                    break;
                }
            }
        }
    }
    freeaddrinfo(ai);
   d9c64:	9800      	ldr	r0, [sp, #0]
   d9c66:	f7fe fd05 	bl	d8674 <netdb_freeaddrinfo>
    return Cellular.resolve(name);
#endif // Wiring_Cellular

#endif // HAL_USE_INET_HAL_POSIX
    return addr;
}
   d9c6a:	4638      	mov	r0, r7
   d9c6c:	b015      	add	sp, #84	; 0x54
   d9c6e:	e8bd 83f0 	ldmia.w	sp!, {r4, r5, r6, r7, r8, r9, pc}
	...

000d9c74 <_GLOBAL__sub_I__ZN5spark7NetworkE>:
   d9c74:	4b02      	ldr	r3, [pc, #8]	; (d9c80 <_GLOBAL__sub_I__ZN5spark7NetworkE+0xc>)
   d9c76:	4a03      	ldr	r2, [pc, #12]	; (d9c84 <_GLOBAL__sub_I__ZN5spark7NetworkE+0x10>)
   d9c78:	601a      	str	r2, [r3, #0]
   d9c7a:	2200      	movs	r2, #0
   d9c7c:	605a      	str	r2, [r3, #4]

} // spark
   d9c7e:	4770      	bx	lr
   d9c80:	2003e620 	.word	0x2003e620
   d9c84:	000de430 	.word	0x000de430

000d9c88 <_ZN5Print5writeEPKhj>:

// Public Methods //////////////////////////////////////////////////////////////

/* default implementation: may be overridden */
size_t Print::write(const uint8_t *buffer, size_t size)
{
   d9c88:	b5f8      	push	{r3, r4, r5, r6, r7, lr}
   d9c8a:	4606      	mov	r6, r0
   d9c8c:	460d      	mov	r5, r1
  size_t n = 0;
   d9c8e:	188f      	adds	r7, r1, r2
   d9c90:	2400      	movs	r4, #0
  while (size--) {
   d9c92:	42bd      	cmp	r5, r7
   d9c94:	d00c      	beq.n	d9cb0 <_ZN5Print5writeEPKhj+0x28>
     int chunk = write(*buffer++);
   d9c96:	6833      	ldr	r3, [r6, #0]
   d9c98:	f815 1b01 	ldrb.w	r1, [r5], #1
   d9c9c:	689b      	ldr	r3, [r3, #8]
   d9c9e:	4630      	mov	r0, r6
   d9ca0:	4798      	blx	r3
     if (chunk>=0)
   d9ca2:	1e03      	subs	r3, r0, #0
   d9ca4:	db01      	blt.n	d9caa <_ZN5Print5writeEPKhj+0x22>
         n += chunk;
   d9ca6:	441c      	add	r4, r3
  while (size--) {
   d9ca8:	e7f3      	b.n	d9c92 <_ZN5Print5writeEPKhj+0xa>
     int chunk = write(*buffer++);
   d9caa:	2c00      	cmp	r4, #0
   d9cac:	bf08      	it	eq
   d9cae:	461c      	moveq	r4, r3
             n = chunk;
         break;
     }
  }
  return n;
}
   d9cb0:	4620      	mov	r0, r4
   d9cb2:	bdf8      	pop	{r3, r4, r5, r6, r7, pc}

000d9cb4 <_ZN5Print5writeEPKc>:
    size_t write(const char *str) {
   d9cb4:	b513      	push	{r0, r1, r4, lr}
   d9cb6:	4604      	mov	r4, r0
    }
   d9cb8:	4608      	mov	r0, r1
      if (str == NULL) return 0;
   d9cba:	b159      	cbz	r1, d9cd4 <_ZN5Print5writeEPKc+0x20>
      return write((const uint8_t *)str, strlen(str));
   d9cbc:	9101      	str	r1, [sp, #4]
   d9cbe:	f001 fcda 	bl	db676 <strlen>
   d9cc2:	6823      	ldr	r3, [r4, #0]
   d9cc4:	9901      	ldr	r1, [sp, #4]
   d9cc6:	68db      	ldr	r3, [r3, #12]
   d9cc8:	4602      	mov	r2, r0
   d9cca:	4620      	mov	r0, r4
    }
   d9ccc:	b002      	add	sp, #8
   d9cce:	e8bd 4010 	ldmia.w	sp!, {r4, lr}
      return write((const uint8_t *)str, strlen(str));
   d9cd2:	4718      	bx	r3
    }
   d9cd4:	b002      	add	sp, #8
   d9cd6:	bd10      	pop	{r4, pc}

000d9cd8 <_ZN5Print5printEc>:
  return write(str);
}

size_t Print::print(char c)
{
  return write(c);
   d9cd8:	6803      	ldr	r3, [r0, #0]
   d9cda:	689b      	ldr	r3, [r3, #8]
   d9cdc:	4718      	bx	r3

000d9cde <_ZN5Print11printNumberEmh>:
  return println(reinterpret_cast<const char*>(str));
}

// Private Methods /////////////////////////////////////////////////////////////

size_t Print::printNumber(unsigned long n, uint8_t base) {
   d9cde:	b530      	push	{r4, r5, lr}
   d9ce0:	b08b      	sub	sp, #44	; 0x2c
  char buf[8 * sizeof(n) + 1]; // Assumes 8-bit chars plus zero byte.
  char *str = &buf[sizeof(buf) - 1];

  *str = '\0';
   d9ce2:	2300      	movs	r3, #0
   d9ce4:	f88d 3024 	strb.w	r3, [sp, #36]	; 0x24

  // prevent crash if called with base == 1
  if (base < 2) base = 10;
   d9ce8:	2a01      	cmp	r2, #1
   d9cea:	bf98      	it	ls
   d9cec:	220a      	movls	r2, #10
   d9cee:	ac09      	add	r4, sp, #36	; 0x24

  do {
   decltype(n) m = n;
   n /= base;
   d9cf0:	460d      	mov	r5, r1
   d9cf2:	fbb1 f1f2 	udiv	r1, r1, r2
   char c = m - base * n;
   d9cf6:	fb01 5312 	mls	r3, r1, r2, r5
   d9cfa:	f003 03ff 	and.w	r3, r3, #255	; 0xff
   *--str = c < 10 ? c + '0' : c + 'A' - 10;
   d9cfe:	2b09      	cmp	r3, #9
   d9d00:	bf94      	ite	ls
   d9d02:	3330      	addls	r3, #48	; 0x30
   d9d04:	3337      	addhi	r3, #55	; 0x37
   d9d06:	b2db      	uxtb	r3, r3
  } while(n);
   d9d08:	42aa      	cmp	r2, r5
   *--str = c < 10 ? c + '0' : c + 'A' - 10;
   d9d0a:	f804 3d01 	strb.w	r3, [r4, #-1]!
  } while(n);
   d9d0e:	d9ef      	bls.n	d9cf0 <_ZN5Print11printNumberEmh+0x12>

  return write(str);
   d9d10:	4621      	mov	r1, r4
   d9d12:	f7ff ffcf 	bl	d9cb4 <_ZN5Print5writeEPKc>
}
   d9d16:	b00b      	add	sp, #44	; 0x2c
   d9d18:	bd30      	pop	{r4, r5, pc}

000d9d1a <_ZN8RGBClassD1Ev>:
#include "rgbled.h"

typedef void (raw_rgb_change_handler_t)(uint8_t, uint8_t, uint8_t);
typedef std::function<raw_rgb_change_handler_t> wiring_rgb_change_handler_t;

class RGBClass {
   d9d1a:	b510      	push	{r4, lr}
   d9d1c:	4604      	mov	r4, r0
   d9d1e:	f7fa faf7 	bl	d4310 <_ZNSt14_Function_baseD1Ev>
   d9d22:	4620      	mov	r0, r4
   d9d24:	bd10      	pop	{r4, pc}
	...

000d9d28 <_GLOBAL__sub_I_RGB>:
    _Function_base() : _M_manager(nullptr) { }
   d9d28:	4803      	ldr	r0, [pc, #12]	; (d9d38 <_GLOBAL__sub_I_RGB+0x10>)
#include "spark_wiring_rgb.h"
#include "spark_wiring_interrupts.h"

#include "core_hal.h"

RGBClass RGB;
   d9d2a:	4a04      	ldr	r2, [pc, #16]	; (d9d3c <_GLOBAL__sub_I_RGB+0x14>)
   d9d2c:	4904      	ldr	r1, [pc, #16]	; (d9d40 <_GLOBAL__sub_I_RGB+0x18>)
   d9d2e:	2300      	movs	r3, #0
   d9d30:	6083      	str	r3, [r0, #8]
   d9d32:	f000 bda3 	b.w	da87c <__aeabi_atexit>
   d9d36:	bf00      	nop
   d9d38:	2003e628 	.word	0x2003e628
   d9d3c:	2003dee0 	.word	0x2003dee0
   d9d40:	000d9d1b 	.word	0x000d9d1b

000d9d44 <_ZN8SPIClassC1E19hal_spi_interface_t>:
    }
    return particle::SPISettings(info->clock, info->bit_order, info->data_mode);
}
} // namespace

SPIClass::SPIClass(hal_spi_interface_t spi)
   d9d44:	b510      	push	{r4, lr}
   d9d46:	4604      	mov	r4, r0
   d9d48:	4608      	mov	r0, r1
{
    _spi = spi;
   d9d4a:	7021      	strb	r1, [r4, #0]
    hal_spi_init(_spi);
   d9d4c:	f7fe fca2 	bl	d8694 <hal_spi_init>
    _dividerReference = SPI_CLK_SYSTEM; // 0 indicates the system clock
   d9d50:	2300      	movs	r3, #0
   d9d52:	6063      	str	r3, [r4, #4]
}
   d9d54:	4620      	mov	r0, r4
   d9d56:	bd10      	pop	{r4, pc}

000d9d58 <_ZN6StringD1Ev>:
	init();
	char buf[33];
	dtoa(value, decimalPlaces, buf);
        *this = buf;
}
String::~String()
   d9d58:	b510      	push	{r4, lr}
   d9d5a:	4604      	mov	r4, r0
{
	free(buffer);
   d9d5c:	6800      	ldr	r0, [r0, #0]
   d9d5e:	f7fe fe67 	bl	d8a30 <free>
}
   d9d62:	4620      	mov	r0, r4
   d9d64:	bd10      	pop	{r4, pc}

000d9d66 <_ZN6String10invalidateEv>:
	len = 0;
	flags = 0;
}

void String::invalidate(void)
{
   d9d66:	b510      	push	{r4, lr}
   d9d68:	4604      	mov	r4, r0
	if (buffer) free(buffer);
   d9d6a:	6800      	ldr	r0, [r0, #0]
   d9d6c:	b108      	cbz	r0, d9d72 <_ZN6String10invalidateEv+0xc>
   d9d6e:	f7fe fe5f 	bl	d8a30 <free>
	buffer = NULL;
   d9d72:	2300      	movs	r3, #0
	capacity = len = 0;
   d9d74:	e9c4 3301 	strd	r3, r3, [r4, #4]
	buffer = NULL;
   d9d78:	6023      	str	r3, [r4, #0]
}
   d9d7a:	bd10      	pop	{r4, pc}

000d9d7c <_ZN6String12changeBufferEj>:
	}
	return 0;
}

unsigned char String::changeBuffer(unsigned int maxStrLen)
{
   d9d7c:	b538      	push	{r3, r4, r5, lr}
   d9d7e:	4604      	mov	r4, r0
   d9d80:	460d      	mov	r5, r1
	char *newbuffer = (char *)realloc(buffer, maxStrLen + 1);
   d9d82:	6800      	ldr	r0, [r0, #0]
   d9d84:	3101      	adds	r1, #1
   d9d86:	f7fe fe5b 	bl	d8a40 <realloc>
	if (newbuffer) {
   d9d8a:	b110      	cbz	r0, d9d92 <_ZN6String12changeBufferEj+0x16>
		buffer = newbuffer;
		capacity = maxStrLen;
   d9d8c:	e9c4 0500 	strd	r0, r5, [r4]
		return 1;
   d9d90:	2001      	movs	r0, #1
	}
	return 0;
}
   d9d92:	bd38      	pop	{r3, r4, r5, pc}

000d9d94 <_ZN6String7reserveEj>:
{
   d9d94:	b510      	push	{r4, lr}
	if (buffer && capacity >= size) return 1;
   d9d96:	6803      	ldr	r3, [r0, #0]
{
   d9d98:	4604      	mov	r4, r0
	if (buffer && capacity >= size) return 1;
   d9d9a:	b123      	cbz	r3, d9da6 <_ZN6String7reserveEj+0x12>
   d9d9c:	6843      	ldr	r3, [r0, #4]
   d9d9e:	428b      	cmp	r3, r1
   d9da0:	d301      	bcc.n	d9da6 <_ZN6String7reserveEj+0x12>
   d9da2:	2001      	movs	r0, #1
}
   d9da4:	bd10      	pop	{r4, pc}
	if (changeBuffer(size)) {
   d9da6:	4620      	mov	r0, r4
   d9da8:	f7ff ffe8 	bl	d9d7c <_ZN6String12changeBufferEj>
   d9dac:	2800      	cmp	r0, #0
   d9dae:	d0f9      	beq.n	d9da4 <_ZN6String7reserveEj+0x10>
		if (len == 0) buffer[0] = 0;
   d9db0:	68a3      	ldr	r3, [r4, #8]
   d9db2:	2b00      	cmp	r3, #0
   d9db4:	d1f5      	bne.n	d9da2 <_ZN6String7reserveEj+0xe>
   d9db6:	6822      	ldr	r2, [r4, #0]
   d9db8:	7013      	strb	r3, [r2, #0]
   d9dba:	e7f2      	b.n	d9da2 <_ZN6String7reserveEj+0xe>

000d9dbc <_ZN6String4copyEPKcj>:
/*********************************************/
/*  Copy and Move                            */
/*********************************************/

String & String::copy(const char *cstr, unsigned int length)
{
   d9dbc:	b537      	push	{r0, r1, r2, r4, r5, lr}
   d9dbe:	460d      	mov	r5, r1
	if (!reserve(length)) {
   d9dc0:	4611      	mov	r1, r2
   d9dc2:	9201      	str	r2, [sp, #4]
{
   d9dc4:	4604      	mov	r4, r0
	if (!reserve(length)) {
   d9dc6:	f7ff ffe5 	bl	d9d94 <_ZN6String7reserveEj>
   d9dca:	9a01      	ldr	r2, [sp, #4]
   d9dcc:	b928      	cbnz	r0, d9dda <_ZN6String4copyEPKcj+0x1e>
		invalidate();
   d9dce:	4620      	mov	r0, r4
   d9dd0:	f7ff ffc9 	bl	d9d66 <_ZN6String10invalidateEv>
	}
	len = length;
	memcpy(buffer, cstr, length);
	buffer[len] = 0;
	return *this;
}
   d9dd4:	4620      	mov	r0, r4
   d9dd6:	b003      	add	sp, #12
   d9dd8:	bd30      	pop	{r4, r5, pc}
	len = length;
   d9dda:	60a2      	str	r2, [r4, #8]
	memcpy(buffer, cstr, length);
   d9ddc:	4629      	mov	r1, r5
   d9dde:	6820      	ldr	r0, [r4, #0]
   d9de0:	f001 fbc6 	bl	db570 <memcpy>
	buffer[len] = 0;
   d9de4:	6822      	ldr	r2, [r4, #0]
   d9de6:	68a3      	ldr	r3, [r4, #8]
   d9de8:	2100      	movs	r1, #0
   d9dea:	54d1      	strb	r1, [r2, r3]
	return *this;
   d9dec:	e7f2      	b.n	d9dd4 <_ZN6String4copyEPKcj+0x18>

000d9dee <_ZN6StringC1EPKc>:
	buffer = NULL;
   d9dee:	2300      	movs	r3, #0
String::String(const char *cstr)
   d9df0:	b513      	push	{r0, r1, r4, lr}
	capacity = 0;
   d9df2:	e9c0 3300 	strd	r3, r3, [r0]
String::String(const char *cstr)
   d9df6:	4604      	mov	r4, r0
	len = 0;
   d9df8:	6083      	str	r3, [r0, #8]
	flags = 0;
   d9dfa:	7303      	strb	r3, [r0, #12]
	if (cstr) copy(cstr, strlen(cstr));
   d9dfc:	b141      	cbz	r1, d9e10 <_ZN6StringC1EPKc+0x22>
   d9dfe:	4608      	mov	r0, r1
   d9e00:	9101      	str	r1, [sp, #4]
   d9e02:	f001 fc38 	bl	db676 <strlen>
   d9e06:	9901      	ldr	r1, [sp, #4]
   d9e08:	4602      	mov	r2, r0
   d9e0a:	4620      	mov	r0, r4
   d9e0c:	f7ff ffd6 	bl	d9dbc <_ZN6String4copyEPKcj>
}
   d9e10:	4620      	mov	r0, r4
   d9e12:	b002      	add	sp, #8
   d9e14:	bd10      	pop	{r4, pc}

000d9e16 <_ZN6StringaSERKS_>:
}
#endif

String & String::operator = (const String &rhs)
{
	if (this == &rhs) return *this;
   d9e16:	4288      	cmp	r0, r1
{
   d9e18:	b510      	push	{r4, lr}
   d9e1a:	4604      	mov	r4, r0
	if (this == &rhs) return *this;
   d9e1c:	d005      	beq.n	d9e2a <_ZN6StringaSERKS_+0x14>

	if (rhs.buffer) copy(rhs.buffer, rhs.len);
   d9e1e:	680b      	ldr	r3, [r1, #0]
   d9e20:	b12b      	cbz	r3, d9e2e <_ZN6StringaSERKS_+0x18>
   d9e22:	688a      	ldr	r2, [r1, #8]
   d9e24:	4619      	mov	r1, r3
   d9e26:	f7ff ffc9 	bl	d9dbc <_ZN6String4copyEPKcj>
	else invalidate();

	return *this;
}
   d9e2a:	4620      	mov	r0, r4
   d9e2c:	bd10      	pop	{r4, pc}
	else invalidate();
   d9e2e:	f7ff ff9a 	bl	d9d66 <_ZN6String10invalidateEv>
   d9e32:	e7fa      	b.n	d9e2a <_ZN6StringaSERKS_+0x14>

000d9e34 <_ZN6StringC1ERKS_>:
String::String(const String &value)
   d9e34:	b510      	push	{r4, lr}
	buffer = NULL;
   d9e36:	2300      	movs	r3, #0
String::String(const String &value)
   d9e38:	4604      	mov	r4, r0
	capacity = 0;
   d9e3a:	e9c0 3300 	strd	r3, r3, [r0]
	len = 0;
   d9e3e:	6083      	str	r3, [r0, #8]
	flags = 0;
   d9e40:	7303      	strb	r3, [r0, #12]
	*this = value;
   d9e42:	f7ff ffe8 	bl	d9e16 <_ZN6StringaSERKS_>
}
   d9e46:	4620      	mov	r0, r4
   d9e48:	bd10      	pop	{r4, pc}

000d9e4a <_ZN6StringaSEPKc>:
	return *this;
}
#endif

String & String::operator = (const char *cstr)
{
   d9e4a:	b513      	push	{r0, r1, r4, lr}
   d9e4c:	4604      	mov	r4, r0
	if (cstr) copy(cstr, strlen(cstr));
   d9e4e:	b159      	cbz	r1, d9e68 <_ZN6StringaSEPKc+0x1e>
   d9e50:	4608      	mov	r0, r1
   d9e52:	9101      	str	r1, [sp, #4]
   d9e54:	f001 fc0f 	bl	db676 <strlen>
   d9e58:	9901      	ldr	r1, [sp, #4]
   d9e5a:	4602      	mov	r2, r0
   d9e5c:	4620      	mov	r0, r4
   d9e5e:	f7ff ffad 	bl	d9dbc <_ZN6String4copyEPKcj>
	else invalidate();

	return *this;
}
   d9e62:	4620      	mov	r0, r4
   d9e64:	b002      	add	sp, #8
   d9e66:	bd10      	pop	{r4, pc}
	else invalidate();
   d9e68:	f7ff ff7d 	bl	d9d66 <_ZN6String10invalidateEv>
   d9e6c:	e7f9      	b.n	d9e62 <_ZN6StringaSEPKc+0x18>

000d9e6e <_ZN6StringC1Eih>:
String::String(int value, unsigned char base)
   d9e6e:	b510      	push	{r4, lr}
   d9e70:	4604      	mov	r4, r0
   d9e72:	b08a      	sub	sp, #40	; 0x28
	buffer = NULL;
   d9e74:	2300      	movs	r3, #0
	capacity = 0;
   d9e76:	e9c4 3300 	strd	r3, r3, [r4]
	len = 0;
   d9e7a:	60a3      	str	r3, [r4, #8]
	flags = 0;
   d9e7c:	7323      	strb	r3, [r4, #12]
String::String(int value, unsigned char base)
   d9e7e:	4608      	mov	r0, r1
	itoa(value, buf, base);
   d9e80:	a901      	add	r1, sp, #4
   d9e82:	f000 fb7b 	bl	da57c <itoa>
	*this = buf;
   d9e86:	a901      	add	r1, sp, #4
   d9e88:	4620      	mov	r0, r4
   d9e8a:	f7ff ffde 	bl	d9e4a <_ZN6StringaSEPKc>
}
   d9e8e:	4620      	mov	r0, r4
   d9e90:	b00a      	add	sp, #40	; 0x28
   d9e92:	bd10      	pop	{r4, pc}

000d9e94 <_ZN6String6concatEPKcj>:
{
	return concat(s.buffer, s.len);
}

unsigned char String::concat(const char *cstr, unsigned int length)
{
   d9e94:	b570      	push	{r4, r5, r6, lr}
   d9e96:	4605      	mov	r5, r0
	unsigned int newlen = len + length;
	if (!cstr) return 0;
   d9e98:	460e      	mov	r6, r1
   d9e9a:	b909      	cbnz	r1, d9ea0 <_ZN6String6concatEPKcj+0xc>
   d9e9c:	2000      	movs	r0, #0
	if (length == 0) return 1;
	if (!reserve(newlen)) return 0;
	strcpy(buffer + len, cstr);
	len = newlen;
	return 1;
}
   d9e9e:	bd70      	pop	{r4, r5, r6, pc}
	if (length == 0) return 1;
   d9ea0:	b16a      	cbz	r2, d9ebe <_ZN6String6concatEPKcj+0x2a>
	unsigned int newlen = len + length;
   d9ea2:	6884      	ldr	r4, [r0, #8]
   d9ea4:	4414      	add	r4, r2
	if (!reserve(newlen)) return 0;
   d9ea6:	4621      	mov	r1, r4
   d9ea8:	f7ff ff74 	bl	d9d94 <_ZN6String7reserveEj>
   d9eac:	2800      	cmp	r0, #0
   d9eae:	d0f5      	beq.n	d9e9c <_ZN6String6concatEPKcj+0x8>
	strcpy(buffer + len, cstr);
   d9eb0:	6828      	ldr	r0, [r5, #0]
   d9eb2:	68ab      	ldr	r3, [r5, #8]
   d9eb4:	4631      	mov	r1, r6
   d9eb6:	4418      	add	r0, r3
   d9eb8:	f001 fbb8 	bl	db62c <strcpy>
	len = newlen;
   d9ebc:	60ac      	str	r4, [r5, #8]
	if (length == 0) return 1;
   d9ebe:	2001      	movs	r0, #1
   d9ec0:	e7ed      	b.n	d9e9e <_ZN6String6concatEPKcj+0xa>

000d9ec2 <_ZplRK15StringSumHelperPKc>:
	if (!a.concat(rhs.buffer, rhs.len)) a.invalidate();
	return a;
}

StringSumHelper & operator + (const StringSumHelper &lhs, const char *cstr)
{
   d9ec2:	b513      	push	{r0, r1, r4, lr}
   d9ec4:	4604      	mov	r4, r0
	StringSumHelper &a = const_cast<StringSumHelper&>(lhs);
	if (!cstr || !a.concat(cstr, strlen(cstr))) a.invalidate();
   d9ec6:	b929      	cbnz	r1, d9ed4 <_ZplRK15StringSumHelperPKc+0x12>
   d9ec8:	4620      	mov	r0, r4
   d9eca:	f7ff ff4c 	bl	d9d66 <_ZN6String10invalidateEv>
	return a;
}
   d9ece:	4620      	mov	r0, r4
   d9ed0:	b002      	add	sp, #8
   d9ed2:	bd10      	pop	{r4, pc}
	if (!cstr || !a.concat(cstr, strlen(cstr))) a.invalidate();
   d9ed4:	4608      	mov	r0, r1
   d9ed6:	9101      	str	r1, [sp, #4]
   d9ed8:	f001 fbcd 	bl	db676 <strlen>
   d9edc:	9901      	ldr	r1, [sp, #4]
   d9ede:	4602      	mov	r2, r0
   d9ee0:	4620      	mov	r0, r4
   d9ee2:	f7ff ffd7 	bl	d9e94 <_ZN6String6concatEPKcj>
   d9ee6:	2800      	cmp	r0, #0
   d9ee8:	d0ee      	beq.n	d9ec8 <_ZplRK15StringSumHelperPKc+0x6>
   d9eea:	e7f0      	b.n	d9ece <_ZplRK15StringSumHelperPKc+0xc>

000d9eec <_ZNK6String6equalsEPKc>:
{
	return (len == s2.len && compareTo(s2) == 0);
}

unsigned char String::equals(const char *cstr) const
{
   d9eec:	b508      	push	{r3, lr}
	if (len == 0) return (cstr == NULL || *cstr == 0);
   d9eee:	6882      	ldr	r2, [r0, #8]
   d9ef0:	b93a      	cbnz	r2, d9f02 <_ZNK6String6equalsEPKc+0x16>
   d9ef2:	b121      	cbz	r1, d9efe <_ZNK6String6equalsEPKc+0x12>
   d9ef4:	7808      	ldrb	r0, [r1, #0]
	if (cstr == NULL) return buffer[0] == 0;
	return strcmp(buffer, cstr) == 0;
   d9ef6:	fab0 f080 	clz	r0, r0
   d9efa:	0940      	lsrs	r0, r0, #5
   d9efc:	e000      	b.n	d9f00 <_ZNK6String6equalsEPKc+0x14>
	if (len == 0) return (cstr == NULL || *cstr == 0);
   d9efe:	2001      	movs	r0, #1
}
   d9f00:	bd08      	pop	{r3, pc}
	if (cstr == NULL) return buffer[0] == 0;
   d9f02:	6800      	ldr	r0, [r0, #0]
   d9f04:	b909      	cbnz	r1, d9f0a <_ZNK6String6equalsEPKc+0x1e>
   d9f06:	7800      	ldrb	r0, [r0, #0]
   d9f08:	e7f5      	b.n	d9ef6 <_ZNK6String6equalsEPKc+0xa>
	return strcmp(buffer, cstr) == 0;
   d9f0a:	f001 fb85 	bl	db618 <strcmp>
   d9f0e:	e7f2      	b.n	d9ef6 <_ZNK6String6equalsEPKc+0xa>

000d9f10 <_ZNK6String7toFloatEv>:
	return 0;
}


float String::toFloat(void) const
{
   d9f10:	b508      	push	{r3, lr}
	if (buffer) return float(atof(buffer));
   d9f12:	6800      	ldr	r0, [r0, #0]
   d9f14:	b140      	cbz	r0, d9f28 <_ZNK6String7toFloatEv+0x18>
   d9f16:	f001 fb03 	bl	db520 <atof>
   d9f1a:	ec51 0b10 	vmov	r0, r1, d0
   d9f1e:	f001 fa6b 	bl	db3f8 <__aeabi_d2f>
   d9f22:	ee00 0a10 	vmov	s0, r0
	return 0;
}
   d9f26:	bd08      	pop	{r3, pc}
	return 0;
   d9f28:	ed9f 0a01 	vldr	s0, [pc, #4]	; d9f30 <_ZNK6String7toFloatEv+0x20>
   d9f2c:	e7fb      	b.n	d9f26 <_ZNK6String7toFloatEv+0x16>
   d9f2e:	bf00      	nop
   d9f30:	00000000 	.word	0x00000000

000d9f34 <_ZN6String6formatEPKcz>:
    StringPrintableHelper help(*this);
    printable.printTo(help);
}

String String::format(const char* fmt, ...)
{
   d9f34:	b40e      	push	{r1, r2, r3}
   d9f36:	b570      	push	{r4, r5, r6, lr}
   d9f38:	b087      	sub	sp, #28
   d9f3a:	ad0b      	add	r5, sp, #44	; 0x2c
   d9f3c:	4604      	mov	r4, r0
   d9f3e:	f855 2b04 	ldr.w	r2, [r5], #4
    va_list marker;
    va_start(marker, fmt);
    const int bufsize = 5;
    char test[bufsize];
    size_t n = vsnprintf(test, bufsize, fmt, marker);
   d9f42:	9201      	str	r2, [sp, #4]
   d9f44:	462b      	mov	r3, r5
   d9f46:	2105      	movs	r1, #5
   d9f48:	a804      	add	r0, sp, #16
    va_start(marker, fmt);
   d9f4a:	9503      	str	r5, [sp, #12]
    size_t n = vsnprintf(test, bufsize, fmt, marker);
   d9f4c:	f7fe fd90 	bl	d8a70 <vsnprintf>
    va_end(marker);

    String result;
   d9f50:	490b      	ldr	r1, [pc, #44]	; (d9f80 <_ZN6String6formatEPKcz+0x4c>)
    size_t n = vsnprintf(test, bufsize, fmt, marker);
   d9f52:	4606      	mov	r6, r0
    String result;
   d9f54:	4620      	mov	r0, r4
   d9f56:	f7ff ff4a 	bl	d9dee <_ZN6StringC1EPKc>
    result.reserve(n);  // internally adds +1 for null terminator
   d9f5a:	4631      	mov	r1, r6
   d9f5c:	4620      	mov	r0, r4
   d9f5e:	f7ff ff19 	bl	d9d94 <_ZN6String7reserveEj>
    if (result.buffer) {
   d9f62:	6820      	ldr	r0, [r4, #0]
   d9f64:	b130      	cbz	r0, d9f74 <_ZN6String6formatEPKcz+0x40>
        va_start(marker, fmt);
        n = vsnprintf(result.buffer, n+1, fmt, marker);
   d9f66:	9a01      	ldr	r2, [sp, #4]
        va_start(marker, fmt);
   d9f68:	9503      	str	r5, [sp, #12]
        n = vsnprintf(result.buffer, n+1, fmt, marker);
   d9f6a:	462b      	mov	r3, r5
   d9f6c:	1c71      	adds	r1, r6, #1
   d9f6e:	f7fe fd7f 	bl	d8a70 <vsnprintf>
        va_end(marker);
        result.len = n;
   d9f72:	60a0      	str	r0, [r4, #8]
    }
    return result;
}
   d9f74:	4620      	mov	r0, r4
   d9f76:	b007      	add	sp, #28
   d9f78:	e8bd 4070 	ldmia.w	sp!, {r4, r5, r6, lr}
   d9f7c:	b003      	add	sp, #12
   d9f7e:	4770      	bx	lr
   d9f80:	000de518 	.word	0x000de518

000d9f84 <_ZN11SystemClass5resetEmN8particle5FlagsI19SystemResetFlagTypemEE>:
{
    reset(0, flags);
}

void SystemClass::reset(uint32_t data, SystemResetFlags flags)
{
   d9f84:	b507      	push	{r0, r1, r2, lr}
   d9f86:	460b      	mov	r3, r1
    system_reset(SYSTEM_RESET_MODE_NORMAL, RESET_REASON_USER, data, flags.value(), nullptr);
   d9f88:	2100      	movs	r1, #0
{
   d9f8a:	4602      	mov	r2, r0
    system_reset(SYSTEM_RESET_MODE_NORMAL, RESET_REASON_USER, data, flags.value(), nullptr);
   d9f8c:	9100      	str	r1, [sp, #0]
   d9f8e:	2001      	movs	r0, #1
   d9f90:	218c      	movs	r1, #140	; 0x8c
   d9f92:	f7fe fc73 	bl	d887c <system_reset>
}
   d9f96:	b003      	add	sp, #12
   d9f98:	f85d fb04 	ldr.w	pc, [sp], #4

000d9f9c <_ZN11SystemClass5resetEN8particle5FlagsI19SystemResetFlagTypemEE>:
{
   d9f9c:	4601      	mov	r1, r0
    reset(0, flags);
   d9f9e:	2000      	movs	r0, #0
   d9fa0:	f7ff bff0 	b.w	d9f84 <_ZN11SystemClass5resetEmN8particle5FlagsI19SystemResetFlagTypemEE>

000d9fa4 <_ZN11SystemClass5resetEv>:
    reset(SystemResetFlags());
   d9fa4:	2000      	movs	r0, #0
   d9fa6:	f7ff bff9 	b.w	d9f9c <_ZN11SystemClass5resetEN8particle5FlagsI19SystemResetFlagTypemEE>
	...

000d9fac <_GLOBAL__sub_I_System>:
    return wokenUpByRtc();
}

system_error_t SleepResult::error() const {
    return err_;
   d9fac:	b510      	push	{r4, lr}
} // namespace particle

// particle::Flag<TagT, ValueT>
template<typename TagT, typename ValueT>
inline particle::Flag<TagT, ValueT>::Flag(ValueT val) :
        val_(val) {
   d9fae:	4b09      	ldr	r3, [pc, #36]	; (d9fd4 <_GLOBAL__sub_I_System+0x28>)

class SystemSleepResult {
public:
    SystemSleepResult()
            : wakeupSource_(nullptr),
              error_(SYSTEM_ERROR_NONE) {
   d9fb0:	4c09      	ldr	r4, [pc, #36]	; (d9fd8 <_GLOBAL__sub_I_System+0x2c>)
   d9fb2:	2202      	movs	r2, #2
   d9fb4:	2000      	movs	r0, #0
   d9fb6:	601a      	str	r2, [r3, #0]
    SleepResult() {}
   d9fb8:	4b08      	ldr	r3, [pc, #32]	; (d9fdc <_GLOBAL__sub_I_System+0x30>)
              error_(SYSTEM_ERROR_NONE) {
   d9fba:	6020      	str	r0, [r4, #0]
   d9fbc:	80a0      	strh	r0, [r4, #4]
    SleepResult() {}
   d9fbe:	71a0      	strb	r0, [r4, #6]
   d9fc0:	60a3      	str	r3, [r4, #8]

class SystemClass {
public:

    SystemClass(System_Mode_TypeDef mode = DEFAULT) {
        set_system_mode(mode);
   d9fc2:	f7fe fc0f 	bl	d87e4 <set_system_mode>
SystemClass System;
   d9fc6:	4620      	mov	r0, r4
   d9fc8:	4a05      	ldr	r2, [pc, #20]	; (d9fe0 <_GLOBAL__sub_I_System+0x34>)
   d9fca:	4906      	ldr	r1, [pc, #24]	; (d9fe4 <_GLOBAL__sub_I_System+0x38>)
   d9fcc:	e8bd 4010 	ldmia.w	sp!, {r4, lr}
SystemClass System;
   d9fd0:	f000 bc54 	b.w	da87c <__aeabi_atexit>
   d9fd4:	2003e644 	.word	0x2003e644
   d9fd8:	2003e638 	.word	0x2003e638
   d9fdc:	ffff0000 	.word	0xffff0000
   d9fe0:	2003dee0 	.word	0x2003dee0
   d9fe4:	000d42f9 	.word	0x000d42f9

000d9fe8 <_ZL22Refresh_UnixTime_Cachex>:
	return calendar_time;
}

/* Refresh Unix/RTC time cache */
static void Refresh_UnixTime_Cache(time_t unix_time)
{
   d9fe8:	e92d 41f0 	stmdb	sp!, {r4, r5, r6, r7, r8, lr}
    unix_time += time_zone_cache;
   d9fec:	4a15      	ldr	r2, [pc, #84]	; (da044 <_ZL22Refresh_UnixTime_Cachex+0x5c>)
    unix_time += dst_current_cache;
    if(unix_time != unix_time_cache)
   d9fee:	f8df 8060 	ldr.w	r8, [pc, #96]	; da050 <_ZL22Refresh_UnixTime_Cachex+0x68>
    unix_time += time_zone_cache;
   d9ff2:	e9d2 3200 	ldrd	r3, r2, [r2]
   d9ff6:	18c0      	adds	r0, r0, r3
   d9ff8:	eb42 0101 	adc.w	r1, r2, r1
    unix_time += dst_current_cache;
   d9ffc:	4a12      	ldr	r2, [pc, #72]	; (da048 <_ZL22Refresh_UnixTime_Cachex+0x60>)
   d9ffe:	e9d2 3200 	ldrd	r3, r2, [r2]
   da002:	18c6      	adds	r6, r0, r3
   da004:	eb41 0702 	adc.w	r7, r1, r2
    if(unix_time != unix_time_cache)
   da008:	e9d8 2300 	ldrd	r2, r3, [r8]
   da00c:	42bb      	cmp	r3, r7
   da00e:	bf08      	it	eq
   da010:	42b2      	cmpeq	r2, r6
{
   da012:	b08c      	sub	sp, #48	; 0x30
    if(unix_time != unix_time_cache)
   da014:	d013      	beq.n	da03e <_ZL22Refresh_UnixTime_Cachex+0x56>
	localtime_r(&unix_time, &calendar_time);
   da016:	a903      	add	r1, sp, #12
   da018:	4668      	mov	r0, sp
   da01a:	e9cd 6700 	strd	r6, r7, [sp]
   da01e:	f7fe fd57 	bl	d8ad0 <localtime_r>
	calendar_time.tm_year += 1900;
   da022:	9b08      	ldr	r3, [sp, #32]
    {
            calendar_time_cache = Convert_UnixTime_To_CalendarTime(unix_time);
   da024:	4d09      	ldr	r5, [pc, #36]	; (da04c <_ZL22Refresh_UnixTime_Cachex+0x64>)
	calendar_time.tm_year += 1900;
   da026:	f203 736c 	addw	r3, r3, #1900	; 0x76c
            calendar_time_cache = Convert_UnixTime_To_CalendarTime(unix_time);
   da02a:	ac03      	add	r4, sp, #12
	calendar_time.tm_year += 1900;
   da02c:	9308      	str	r3, [sp, #32]
            calendar_time_cache = Convert_UnixTime_To_CalendarTime(unix_time);
   da02e:	cc0f      	ldmia	r4!, {r0, r1, r2, r3}
   da030:	c50f      	stmia	r5!, {r0, r1, r2, r3}
   da032:	cc0f      	ldmia	r4!, {r0, r1, r2, r3}
   da034:	c50f      	stmia	r5!, {r0, r1, r2, r3}
            unix_time_cache = unix_time;
   da036:	e9c8 6700 	strd	r6, r7, [r8]
            calendar_time_cache = Convert_UnixTime_To_CalendarTime(unix_time);
   da03a:	6823      	ldr	r3, [r4, #0]
   da03c:	602b      	str	r3, [r5, #0]
    }
}
   da03e:	b00c      	add	sp, #48	; 0x30
   da040:	e8bd 81f0 	ldmia.w	sp!, {r4, r5, r6, r7, r8, pc}
   da044:	2003e680 	.word	0x2003e680
   da048:	2003e678 	.word	0x2003e678
   da04c:	2003e650 	.word	0x2003e650
   da050:	2003e688 	.word	0x2003e688

000da054 <_ZN10CloudClass12syncTimeDoneEv.isra.0>:
    bool syncTimeDone(void)
   da054:	b508      	push	{r3, lr}
        return !spark_sync_time_pending(nullptr) || disconnected();
   da056:	2000      	movs	r0, #0
   da058:	f7fe fc62 	bl	d8920 <spark_sync_time_pending>
   da05c:	b128      	cbz	r0, da06a <_ZN10CloudClass12syncTimeDoneEv.isra.0+0x16>
    static bool connected(void) { return spark_cloud_flag_connected(); }
   da05e:	f7fe fc37 	bl	d88d0 <spark_cloud_flag_connected>
        return !spark_sync_time_pending(nullptr) || disconnected();
   da062:	f080 0001 	eor.w	r0, r0, #1
   da066:	b2c0      	uxtb	r0, r0
    }
   da068:	bd08      	pop	{r3, pc}
        return !spark_sync_time_pending(nullptr) || disconnected();
   da06a:	2001      	movs	r0, #1
   da06c:	e7fc      	b.n	da068 <_ZN10CloudClass12syncTimeDoneEv.isra.0+0x14>

000da06e <_ZN9TimeClass7setTimeEx>:
    return !(dst_current_cache == 0);
}

/* set the given time as unix/rtc time */
void TimeClass::setTime(time_t t)
{
   da06e:	b51f      	push	{r0, r1, r2, r3, r4, lr}
   da070:	4602      	mov	r2, r0
   da072:	460b      	mov	r3, r1
    struct timeval tv = {
        .tv_sec = t,
        .tv_usec = 0
    };
    if (!hal_rtc_set_time(&tv, nullptr)) {
   da074:	4668      	mov	r0, sp
    struct timeval tv = {
   da076:	2100      	movs	r1, #0
    };
   da078:	e9cd 2300 	strd	r2, r3, [sp]
    struct timeval tv = {
   da07c:	e9cd 1102 	strd	r1, r1, [sp, #8]
    if (!hal_rtc_set_time(&tv, nullptr)) {
   da080:	f7fe fa48 	bl	d8514 <hal_rtc_set_time>
   da084:	4602      	mov	r2, r0
   da086:	b910      	cbnz	r0, da08e <_ZN9TimeClass7setTimeEx+0x20>
        system_notify_time_changed((uint32_t)time_changed_manually, nullptr, nullptr);
   da088:	4601      	mov	r1, r0
   da08a:	f7fe fbdb 	bl	d8844 <system_notify_time_changed>
    }
}
   da08e:	b005      	add	sp, #20
   da090:	f85d fb04 	ldr.w	pc, [sp], #4

000da094 <_ZN9TimeClass7timeStrEx>:

/* return string representation for the given time */
String TimeClass::timeStr(time_t t)
{
   da094:	b530      	push	{r4, r5, lr}
   da096:	4604      	mov	r4, r0
    t += time_zone_cache;
   da098:	4818      	ldr	r0, [pc, #96]	; (da0fc <_ZN9TimeClass7timeStrEx+0x68>)
   da09a:	e9d0 1000 	ldrd	r1, r0, [r0]
   da09e:	1852      	adds	r2, r2, r1
   da0a0:	eb40 0303 	adc.w	r3, r0, r3
    t += dst_current_cache;
   da0a4:	4816      	ldr	r0, [pc, #88]	; (da100 <_ZN9TimeClass7timeStrEx+0x6c>)
   da0a6:	e9d0 1000 	ldrd	r1, r0, [r0]
   da0aa:	1852      	adds	r2, r2, r1
{
   da0ac:	b093      	sub	sp, #76	; 0x4c
    t += dst_current_cache;
   da0ae:	eb40 0303 	adc.w	r3, r0, r3
   da0b2:	e9cd 2300 	strd	r2, r3, [sp]
    struct tm calendar_time = {};
   da0b6:	2224      	movs	r2, #36	; 0x24
   da0b8:	eb0d 0002 	add.w	r0, sp, r2
   da0bc:	2100      	movs	r1, #0
   da0be:	f001 fa7f 	bl	db5c0 <memset>
    localtime_r(&t, &calendar_time);
    char ascstr[26] = {};
   da0c2:	2500      	movs	r5, #0
    localtime_r(&t, &calendar_time);
   da0c4:	a909      	add	r1, sp, #36	; 0x24
   da0c6:	4668      	mov	r0, sp
   da0c8:	f7fe fd02 	bl	d8ad0 <localtime_r>
    char ascstr[26] = {};
   da0cc:	2216      	movs	r2, #22
   da0ce:	4629      	mov	r1, r5
   da0d0:	a803      	add	r0, sp, #12
   da0d2:	9502      	str	r5, [sp, #8]
   da0d4:	f001 fa74 	bl	db5c0 <memset>
    asctime_r(&calendar_time, ascstr);
   da0d8:	a902      	add	r1, sp, #8
   da0da:	a809      	add	r0, sp, #36	; 0x24
   da0dc:	f001 f9fa 	bl	db4d4 <asctime_r>
    int len = strlen(ascstr);
   da0e0:	a802      	add	r0, sp, #8
   da0e2:	f001 fac8 	bl	db676 <strlen>
    ascstr[len-1] = 0; // remove final newline
   da0e6:	ab12      	add	r3, sp, #72	; 0x48
   da0e8:	4418      	add	r0, r3
    return String(ascstr);
   da0ea:	a902      	add	r1, sp, #8
    ascstr[len-1] = 0; // remove final newline
   da0ec:	f800 5c41 	strb.w	r5, [r0, #-65]
    return String(ascstr);
   da0f0:	4620      	mov	r0, r4
   da0f2:	f7ff fe7c 	bl	d9dee <_ZN6StringC1EPKc>
}
   da0f6:	4620      	mov	r0, r4
   da0f8:	b013      	add	sp, #76	; 0x4c
   da0fa:	bd30      	pop	{r4, r5, pc}
   da0fc:	2003e680 	.word	0x2003e680
   da100:	2003e678 	.word	0x2003e678

000da104 <_ZN9TimeClass14timeFormatImplEP2tmPKci>:
    localtime_r(&t, &calendar_time);
    return timeFormatImpl(&calendar_time, format_spec, time_zone_cache + dst_current_cache);
}

String TimeClass::timeFormatImpl(tm* calendar_time, const char* format, int time_zone)
{
   da104:	e92d 4ff0 	stmdb	sp!, {r4, r5, r6, r7, r8, r9, sl, fp, lr}
   da108:	b0a5      	sub	sp, #148	; 0x94
   da10a:	4607      	mov	r7, r0
   da10c:	4688      	mov	r8, r1
    char format_str[64];
    // only copy up to n-1 to dest if no null terminator found
    strncpy(format_str, format, sizeof(format_str) - 1); // Flawfinder: ignore (ch42318)
   da10e:	a814      	add	r0, sp, #80	; 0x50
{
   da110:	4611      	mov	r1, r2
    strncpy(format_str, format, sizeof(format_str) - 1); // Flawfinder: ignore (ch42318)
   da112:	223f      	movs	r2, #63	; 0x3f
{
   da114:	461d      	mov	r5, r3
    strncpy(format_str, format, sizeof(format_str) - 1); // Flawfinder: ignore (ch42318)
   da116:	f001 fac8 	bl	db6aa <strncpy>
    format_str[sizeof(format_str) - 1] = '\0'; // ensure null termination
   da11a:	2300      	movs	r3, #0
    size_t len = strlen(format_str); // Flawfinder: ignore (ch42318)
   da11c:	a814      	add	r0, sp, #80	; 0x50
    format_str[sizeof(format_str) - 1] = '\0'; // ensure null termination
   da11e:	f88d 308f 	strb.w	r3, [sp, #143]	; 0x8f
    size_t len = strlen(format_str); // Flawfinder: ignore (ch42318)
   da122:	f001 faa8 	bl	db676 <strlen>
   da126:	4604      	mov	r4, r0

    char time_zone_str[16];
    // while we are not using stdlib for managing the timezone, we have to do this manually
    if (!time_zone) {
   da128:	bb5d      	cbnz	r5, da182 <_ZN9TimeClass14timeFormatImplEP2tmPKci+0x7e>
        strcpy(time_zone_str, "Z");
   da12a:	492a      	ldr	r1, [pc, #168]	; (da1d4 <_ZN9TimeClass14timeFormatImplEP2tmPKci+0xd0>)
   da12c:	a803      	add	r0, sp, #12
   da12e:	f001 fa7d 	bl	db62c <strcpy>
   da132:	ae14      	add	r6, sp, #80	; 0x50
{
   da134:	2500      	movs	r5, #0
    else {
        snprintf(time_zone_str, sizeof(time_zone_str), "%+03d:%02u", time_zone/3600, abs(time_zone/60)%60);
    }

    // replace %z with the timezone
    for (size_t i=0; i<len-1; i++)
   da136:	f104 3bff 	add.w	fp, r4, #4294967295	; 0xffffffff
   da13a:	45ab      	cmp	fp, r5
   da13c:	d936      	bls.n	da1ac <_ZN9TimeClass14timeFormatImplEP2tmPKci+0xa8>
    {
        if (format_str[i]=='%' && format_str[i+1]=='z')
   da13e:	46b1      	mov	r9, r6
   da140:	f105 0a01 	add.w	sl, r5, #1
   da144:	f819 3b01 	ldrb.w	r3, [r9], #1
   da148:	2b25      	cmp	r3, #37	; 0x25
   da14a:	d117      	bne.n	da17c <_ZN9TimeClass14timeFormatImplEP2tmPKci+0x78>
   da14c:	7873      	ldrb	r3, [r6, #1]
   da14e:	2b7a      	cmp	r3, #122	; 0x7a
   da150:	d114      	bne.n	da17c <_ZN9TimeClass14timeFormatImplEP2tmPKci+0x78>
        {
            size_t tzlen = strlen(time_zone_str);
   da152:	a803      	add	r0, sp, #12
   da154:	f001 fa8f 	bl	db676 <strlen>
            memcpy(format_str+i+tzlen, format_str+i+2, len-i-1);    // +1 include the 0 char
   da158:	ab14      	add	r3, sp, #80	; 0x50
            size_t tzlen = strlen(time_zone_str);
   da15a:	4604      	mov	r4, r0
            memcpy(format_str+i+tzlen, format_str+i+2, len-i-1);    // +1 include the 0 char
   da15c:	1828      	adds	r0, r5, r0
   da15e:	4418      	add	r0, r3
   da160:	ebab 0205 	sub.w	r2, fp, r5
   da164:	1cb1      	adds	r1, r6, #2
   da166:	f001 fa03 	bl	db570 <memcpy>
            memcpy(format_str+i, time_zone_str, tzlen);
   da16a:	4622      	mov	r2, r4
   da16c:	a903      	add	r1, sp, #12
   da16e:	4630      	mov	r0, r6
   da170:	f001 f9fe 	bl	db570 <memcpy>
            len = strlen(format_str);
   da174:	a814      	add	r0, sp, #80	; 0x50
   da176:	f001 fa7e 	bl	db676 <strlen>
   da17a:	4604      	mov	r4, r0
    for (size_t i=0; i<len-1; i++)
   da17c:	464e      	mov	r6, r9
   da17e:	4655      	mov	r5, sl
   da180:	e7d9      	b.n	da136 <_ZN9TimeClass14timeFormatImplEP2tmPKci+0x32>
        snprintf(time_zone_str, sizeof(time_zone_str), "%+03d:%02u", time_zone/3600, abs(time_zone/60)%60);
   da182:	213c      	movs	r1, #60	; 0x3c
   da184:	fb95 f3f1 	sdiv	r3, r5, r1
   da188:	2b00      	cmp	r3, #0
   da18a:	bfb8      	it	lt
   da18c:	425b      	neglt	r3, r3
   da18e:	fbb3 f2f1 	udiv	r2, r3, r1
   da192:	fb01 3312 	mls	r3, r1, r2, r3
   da196:	9300      	str	r3, [sp, #0]
   da198:	4a0f      	ldr	r2, [pc, #60]	; (da1d8 <_ZN9TimeClass14timeFormatImplEP2tmPKci+0xd4>)
   da19a:	f44f 6361 	mov.w	r3, #3600	; 0xe10
   da19e:	2110      	movs	r1, #16
   da1a0:	a803      	add	r0, sp, #12
   da1a2:	fb95 f3f3 	sdiv	r3, r5, r3
   da1a6:	f7fe fc5b 	bl	d8a60 <snprintf>
   da1aa:	e7c2      	b.n	da132 <_ZN9TimeClass14timeFormatImplEP2tmPKci+0x2e>
        }
    }

    char buf[50] = {};
   da1ac:	2100      	movs	r1, #0
   da1ae:	222e      	movs	r2, #46	; 0x2e
   da1b0:	a808      	add	r0, sp, #32
   da1b2:	9107      	str	r1, [sp, #28]
   da1b4:	f001 fa04 	bl	db5c0 <memset>
    strftime(buf, sizeof(buf), format_str, calendar_time);
   da1b8:	4643      	mov	r3, r8
   da1ba:	aa14      	add	r2, sp, #80	; 0x50
   da1bc:	2132      	movs	r1, #50	; 0x32
   da1be:	a807      	add	r0, sp, #28
   da1c0:	f7fe fc7e 	bl	d8ac0 <strftime>
    return String(buf);
   da1c4:	a907      	add	r1, sp, #28
   da1c6:	4638      	mov	r0, r7
   da1c8:	f7ff fe11 	bl	d9dee <_ZN6StringC1EPKc>
}
   da1cc:	4638      	mov	r0, r7
   da1ce:	b025      	add	sp, #148	; 0x94
   da1d0:	e8bd 8ff0 	ldmia.w	sp!, {r4, r5, r6, r7, r8, r9, sl, fp, pc}
   da1d4:	000de464 	.word	0x000de464
   da1d8:	000de466 	.word	0x000de466

000da1dc <_ZN9TimeClass6formatExPKc>:
{
   da1dc:	b5f0      	push	{r4, r5, r6, r7, lr}
   da1de:	b08d      	sub	sp, #52	; 0x34
   da1e0:	e9cd 2300 	strd	r2, r3, [sp]
   da1e4:	9d12      	ldr	r5, [sp, #72]	; 0x48
   da1e6:	4604      	mov	r4, r0
    if (format_spec == nullptr)
   da1e8:	b915      	cbnz	r5, da1f0 <_ZN9TimeClass6formatExPKc+0x14>
        format_spec = this->format_spec;
   da1ea:	4b19      	ldr	r3, [pc, #100]	; (da250 <_ZN9TimeClass6formatExPKc+0x74>)
   da1ec:	681d      	ldr	r5, [r3, #0]
    if (!format_spec || !strcmp(format_spec, TIME_FORMAT_DEFAULT)) {
   da1ee:	b12d      	cbz	r5, da1fc <_ZN9TimeClass6formatExPKc+0x20>
   da1f0:	4b18      	ldr	r3, [pc, #96]	; (da254 <_ZN9TimeClass6formatExPKc+0x78>)
   da1f2:	4628      	mov	r0, r5
   da1f4:	6819      	ldr	r1, [r3, #0]
   da1f6:	f001 fa0f 	bl	db618 <strcmp>
   da1fa:	b938      	cbnz	r0, da20c <_ZN9TimeClass6formatExPKc+0x30>
        return timeStr(t);
   da1fc:	e9dd 2300 	ldrd	r2, r3, [sp]
   da200:	4620      	mov	r0, r4
   da202:	f7ff ff47 	bl	da094 <_ZN9TimeClass7timeStrEx>
}
   da206:	4620      	mov	r0, r4
   da208:	b00d      	add	sp, #52	; 0x34
   da20a:	bdf0      	pop	{r4, r5, r6, r7, pc}
    t += time_zone_cache;
   da20c:	4e12      	ldr	r6, [pc, #72]	; (da258 <_ZN9TimeClass6formatExPKc+0x7c>)
   da20e:	9900      	ldr	r1, [sp, #0]
    t += dst_current_cache;
   da210:	4f12      	ldr	r7, [pc, #72]	; (da25c <_ZN9TimeClass6formatExPKc+0x80>)
    t += time_zone_cache;
   da212:	e9d6 3200 	ldrd	r3, r2, [r6]
   da216:	185b      	adds	r3, r3, r1
   da218:	9901      	ldr	r1, [sp, #4]
   da21a:	eb41 0202 	adc.w	r2, r1, r2
    t += dst_current_cache;
   da21e:	e9d7 0100 	ldrd	r0, r1, [r7]
   da222:	181b      	adds	r3, r3, r0
   da224:	eb41 0202 	adc.w	r2, r1, r2
   da228:	e9cd 3200 	strd	r3, r2, [sp]
    struct tm calendar_time = {};
   da22c:	2100      	movs	r1, #0
   da22e:	2224      	movs	r2, #36	; 0x24
   da230:	a803      	add	r0, sp, #12
   da232:	f001 f9c5 	bl	db5c0 <memset>
    localtime_r(&t, &calendar_time);
   da236:	a903      	add	r1, sp, #12
   da238:	4668      	mov	r0, sp
   da23a:	f7fe fc49 	bl	d8ad0 <localtime_r>
    return timeFormatImpl(&calendar_time, format_spec, time_zone_cache + dst_current_cache);
   da23e:	6832      	ldr	r2, [r6, #0]
   da240:	683b      	ldr	r3, [r7, #0]
   da242:	a903      	add	r1, sp, #12
   da244:	4413      	add	r3, r2
   da246:	4620      	mov	r0, r4
   da248:	462a      	mov	r2, r5
   da24a:	f7ff ff5b 	bl	da104 <_ZN9TimeClass14timeFormatImplEP2tmPKci>
   da24e:	e7da      	b.n	da206 <_ZN9TimeClass6formatExPKc+0x2a>
   da250:	2003e64c 	.word	0x2003e64c
   da254:	2003dd00 	.word	0x2003dd00
   da258:	2003e680 	.word	0x2003e680
   da25c:	2003e678 	.word	0x2003e678

000da260 <_ZN9TimeClass7isValidEv>:

bool TimeClass::isValid()
{
   da260:	b510      	push	{r4, lr}
    bool rtcstate = hal_rtc_time_is_valid(nullptr);
   da262:	2000      	movs	r0, #0
   da264:	f7fe f93e 	bl	d84e4 <hal_rtc_time_is_valid>
    if (rtcstate)
   da268:	4604      	mov	r4, r0
   da26a:	b9a0      	cbnz	r0, da296 <_ZN9TimeClass7isValidEv+0x36>
    }

    static System_Mode_TypeDef mode(void) {
        return system_mode();
   da26c:	f7fe fab2 	bl	d87d4 <system_mode>
        return rtcstate;
    if (System.mode() == AUTOMATIC && system_thread_get_state(nullptr) == spark::feature::DISABLED)
   da270:	2801      	cmp	r0, #1
   da272:	d110      	bne.n	da296 <_ZN9TimeClass7isValidEv+0x36>
   da274:	4620      	mov	r0, r4
   da276:	f7fe fadd 	bl	d8834 <system_thread_get_state>
   da27a:	b960      	cbnz	r0, da296 <_ZN9TimeClass7isValidEv+0x36>
    {
        waitUntil(Particle.syncTimeDone);
   da27c:	f7ff feea 	bl	da054 <_ZN10CloudClass12syncTimeDoneEv.isra.0>

    static uint32_t freeMemory();

    template<typename Condition, typename While>
    static bool waitConditionWhile(Condition _condition, While _while) {
        while (_while() && !_condition()) {
   da280:	b910      	cbnz	r0, da288 <_ZN9TimeClass7isValidEv+0x28>
            spark_process();
   da282:	f7fe fb15 	bl	d88b0 <spark_process>
        while (_while() && !_condition()) {
   da286:	e7f9      	b.n	da27c <_ZN9TimeClass7isValidEv+0x1c>
   da288:	f7ff fee4 	bl	da054 <_ZN10CloudClass12syncTimeDoneEv.isra.0>
        return hal_rtc_time_is_valid(nullptr);
    }
    return rtcstate;
}
   da28c:	e8bd 4010 	ldmia.w	sp!, {r4, lr}
        return hal_rtc_time_is_valid(nullptr);
   da290:	2000      	movs	r0, #0
   da292:	f7fe b927 	b.w	d84e4 <hal_rtc_time_is_valid>
}
   da296:	4620      	mov	r0, r4
   da298:	bd10      	pop	{r4, pc}

000da29a <_ZN9TimeClass3nowEv>:
{
   da29a:	b51f      	push	{r0, r1, r2, r3, r4, lr}
    (void)isValid();
   da29c:	f7ff ffe0 	bl	da260 <_ZN9TimeClass7isValidEv>
    struct timeval tv = {};
   da2a0:	2210      	movs	r2, #16
   da2a2:	2100      	movs	r1, #0
   da2a4:	4668      	mov	r0, sp
   da2a6:	f001 f98b 	bl	db5c0 <memset>
    hal_rtc_get_time(&tv, nullptr);
   da2aa:	2100      	movs	r1, #0
   da2ac:	4668      	mov	r0, sp
   da2ae:	f7fe f929 	bl	d8504 <hal_rtc_get_time>
}
   da2b2:	9800      	ldr	r0, [sp, #0]
   da2b4:	b005      	add	sp, #20
   da2b6:	f85d fb04 	ldr.w	pc, [sp], #4
	...

000da2bc <_ZN9TimeClass4hourEv>:
{
   da2bc:	b508      	push	{r3, lr}
	return hour(now());
   da2be:	f7ff ffec 	bl	da29a <_ZN9TimeClass3nowEv>
	Refresh_UnixTime_Cache(t);
   da2c2:	17c1      	asrs	r1, r0, #31
   da2c4:	f7ff fe90 	bl	d9fe8 <_ZL22Refresh_UnixTime_Cachex>
}
   da2c8:	4b01      	ldr	r3, [pc, #4]	; (da2d0 <_ZN9TimeClass4hourEv+0x14>)
   da2ca:	6898      	ldr	r0, [r3, #8]
   da2cc:	bd08      	pop	{r3, pc}
   da2ce:	bf00      	nop
   da2d0:	2003e650 	.word	0x2003e650

000da2d4 <_ZN9TimeClass4yearEv>:
{
   da2d4:	b508      	push	{r3, lr}
	return year(now());
   da2d6:	f7ff ffe0 	bl	da29a <_ZN9TimeClass3nowEv>
	Refresh_UnixTime_Cache(t);
   da2da:	17c1      	asrs	r1, r0, #31
   da2dc:	f7ff fe84 	bl	d9fe8 <_ZL22Refresh_UnixTime_Cachex>
}
   da2e0:	4b01      	ldr	r3, [pc, #4]	; (da2e8 <_ZN9TimeClass4yearEv+0x14>)
   da2e2:	6958      	ldr	r0, [r3, #20]
   da2e4:	bd08      	pop	{r3, pc}
   da2e6:	bf00      	nop
   da2e8:	2003e650 	.word	0x2003e650

000da2ec <_GLOBAL__sub_I_TIME_FORMAT_DEFAULT>:
const char* TimeClass::format_spec = TIME_FORMAT_DEFAULT;
   da2ec:	4b02      	ldr	r3, [pc, #8]	; (da2f8 <_GLOBAL__sub_I_TIME_FORMAT_DEFAULT+0xc>)
   da2ee:	681a      	ldr	r2, [r3, #0]
   da2f0:	4b02      	ldr	r3, [pc, #8]	; (da2fc <_GLOBAL__sub_I_TIME_FORMAT_DEFAULT+0x10>)
   da2f2:	601a      	str	r2, [r3, #0]
{
  return isValid();
}


TimeClass Time;
   da2f4:	4770      	bx	lr
   da2f6:	bf00      	nop
   da2f8:	2003dd00 	.word	0x2003dd00
   da2fc:	2003e64c 	.word	0x2003e64c

000da300 <_ZN11USARTSerialD1Ev>:
private:
  hal_usart_interface_t _serial;
  bool _blocking;
public:
  USARTSerial(hal_usart_interface_t serial, hal_usart_ring_buffer_t *rx_buffer, hal_usart_ring_buffer_t *tx_buffer);
  virtual ~USARTSerial() {};
   da300:	4770      	bx	lr

000da302 <_ZN11USARTSerial14blockOnOverrunEb>:
    hal_usart_half_duplex(_serial, Enable);
}

void USARTSerial::blockOnOverrun(bool block)
{
  _blocking = block;
   da302:	7441      	strb	r1, [r0, #17]
}
   da304:	4770      	bx	lr

000da306 <_ZN11USARTSerial17availableForWriteEv>:


int USARTSerial::availableForWrite(void)
{
   da306:	b508      	push	{r3, lr}
  return std::max(0, (int)hal_usart_available_data_for_write(_serial));
   da308:	7c00      	ldrb	r0, [r0, #16]
   da30a:	f7fe fa0b 	bl	d8724 <hal_usart_available_data_for_write>
}
   da30e:	ea20 70e0 	bic.w	r0, r0, r0, asr #31
   da312:	bd08      	pop	{r3, pc}

000da314 <_ZN11USARTSerial9availableEv>:

int USARTSerial::available(void)
{
   da314:	b508      	push	{r3, lr}
  return std::max(0, (int)hal_usart_available(_serial));
   da316:	7c00      	ldrb	r0, [r0, #16]
   da318:	f7fe f9dc 	bl	d86d4 <hal_usart_available>
}
   da31c:	ea20 70e0 	bic.w	r0, r0, r0, asr #31
   da320:	bd08      	pop	{r3, pc}

000da322 <_ZN11USARTSerial4peekEv>:

int USARTSerial::peek(void)
{
   da322:	b508      	push	{r3, lr}
  return std::max(-1, (int)hal_usart_peek(_serial));
   da324:	7c00      	ldrb	r0, [r0, #16]
   da326:	f7fe f9e5 	bl	d86f4 <hal_usart_peek>
}
   da32a:	ea40 70e0 	orr.w	r0, r0, r0, asr #31
   da32e:	bd08      	pop	{r3, pc}

000da330 <_ZN11USARTSerial4readEv>:

int USARTSerial::read(void)
{
   da330:	b508      	push	{r3, lr}
  return std::max(-1, (int)hal_usart_read(_serial));
   da332:	7c00      	ldrb	r0, [r0, #16]
   da334:	f7fe f9d6 	bl	d86e4 <hal_usart_read>
}
   da338:	ea40 70e0 	orr.w	r0, r0, r0, asr #31
   da33c:	bd08      	pop	{r3, pc}

000da33e <_ZN11USARTSerial5flushEv>:

void USARTSerial::flush()
{
  hal_usart_flush(_serial);
   da33e:	7c00      	ldrb	r0, [r0, #16]
   da340:	f7fe b9e0 	b.w	d8704 <hal_usart_flush>

000da344 <_ZN11USARTSerial5writeEh>:
}

size_t USARTSerial::write(uint8_t c)
{
   da344:	b537      	push	{r0, r1, r2, r4, r5, lr}
  // attempt a write if blocking, or for non-blocking if there is room.
  if (_blocking || hal_usart_available_data_for_write(_serial) > 0) {
   da346:	7c45      	ldrb	r5, [r0, #17]
{
   da348:	4604      	mov	r4, r0
  if (_blocking || hal_usart_available_data_for_write(_serial) > 0) {
   da34a:	b12d      	cbz	r5, da358 <_ZN11USARTSerial5writeEh+0x14>
    // the HAL always blocks.
	  return hal_usart_write(_serial, c);
   da34c:	7c20      	ldrb	r0, [r4, #16]
  }
  return 0;
}
   da34e:	b003      	add	sp, #12
   da350:	e8bd 4030 	ldmia.w	sp!, {r4, r5, lr}
	  return hal_usart_write(_serial, c);
   da354:	f7fe b9b6 	b.w	d86c4 <hal_usart_write>
  if (_blocking || hal_usart_available_data_for_write(_serial) > 0) {
   da358:	7c00      	ldrb	r0, [r0, #16]
   da35a:	9101      	str	r1, [sp, #4]
   da35c:	f7fe f9e2 	bl	d8724 <hal_usart_available_data_for_write>
   da360:	2800      	cmp	r0, #0
   da362:	9901      	ldr	r1, [sp, #4]
   da364:	dcf2      	bgt.n	da34c <_ZN11USARTSerial5writeEh+0x8>
}
   da366:	4628      	mov	r0, r5
   da368:	b003      	add	sp, #12
   da36a:	bd30      	pop	{r4, r5, pc}

000da36c <_ZN11USARTSerialD0Ev>:
   da36c:	b510      	push	{r4, lr}
   da36e:	2114      	movs	r1, #20
   da370:	4604      	mov	r4, r0
   da372:	f000 fa88 	bl	da886 <_ZdlPvj>
   da376:	4620      	mov	r0, r4
   da378:	bd10      	pop	{r4, pc}
	...

000da37c <_ZN11USARTSerialC1E21hal_usart_interface_tP23hal_usart_ring_buffer_tS2_>:
USARTSerial::USARTSerial(hal_usart_interface_t serial, hal_usart_ring_buffer_t *rx_buffer, hal_usart_ring_buffer_t *tx_buffer)
   da37c:	b510      	push	{r4, lr}
   da37e:	f04f 0c00 	mov.w	ip, #0
   da382:	4604      	mov	r4, r0
   da384:	4608      	mov	r0, r1
   da386:	4611      	mov	r1, r2
   da388:	f44f 727a 	mov.w	r2, #1000	; 0x3e8
   da38c:	e9c4 c201 	strd	ip, r2, [r4, #4]
   da390:	4a04      	ldr	r2, [pc, #16]	; (da3a4 <_ZN11USARTSerialC1E21hal_usart_interface_tP23hal_usart_ring_buffer_tS2_+0x28>)
   da392:	6022      	str	r2, [r4, #0]
  _blocking = true;
   da394:	2201      	movs	r2, #1
  _serial = serial;
   da396:	7420      	strb	r0, [r4, #16]
  _blocking = true;
   da398:	7462      	strb	r2, [r4, #17]
  hal_usart_init(serial, rx_buffer, tx_buffer);
   da39a:	461a      	mov	r2, r3
   da39c:	f7fe f98a 	bl	d86b4 <hal_usart_init>
}
   da3a0:	4620      	mov	r0, r4
   da3a2:	bd10      	pop	{r4, pc}
   da3a4:	000de498 	.word	0x000de498

000da3a8 <_Z22__fetch_global_Serial1v>:
static hal_usart_ring_buffer_t* serial1_rx_buffer = nullptr;
static hal_usart_ring_buffer_t* serial1_tx_buffer = nullptr;
#endif

USARTSerial& __fetch_global_Serial1()
{
   da3a8:	b513      	push	{r0, r1, r4, lr}
#if ((MODULE_FUNCTION == MOD_FUNC_USER_PART) || (MODULE_FUNCTION == MOD_FUNC_MONO_FIRMWARE))
	static USARTSerial serial1(HAL_USART_SERIAL1, &serial1_rx_buffer, &serial1_tx_buffer);
   da3aa:	4c0e      	ldr	r4, [pc, #56]	; (da3e4 <_Z22__fetch_global_Serial1v+0x3c>)
   da3ac:	7821      	ldrb	r1, [r4, #0]
   da3ae:	f3bf 8f5b 	dmb	ish
   da3b2:	f011 0101 	ands.w	r1, r1, #1
   da3b6:	d112      	bne.n	da3de <_Z22__fetch_global_Serial1v+0x36>
   da3b8:	4620      	mov	r0, r4
   da3ba:	9101      	str	r1, [sp, #4]
   da3bc:	f7f9 fe7e 	bl	d40bc <__cxa_guard_acquire>
   da3c0:	9901      	ldr	r1, [sp, #4]
   da3c2:	b160      	cbz	r0, da3de <_Z22__fetch_global_Serial1v+0x36>
   da3c4:	4a08      	ldr	r2, [pc, #32]	; (da3e8 <_Z22__fetch_global_Serial1v+0x40>)
   da3c6:	4b09      	ldr	r3, [pc, #36]	; (da3ec <_Z22__fetch_global_Serial1v+0x44>)
   da3c8:	4809      	ldr	r0, [pc, #36]	; (da3f0 <_Z22__fetch_global_Serial1v+0x48>)
   da3ca:	f7ff ffd7 	bl	da37c <_ZN11USARTSerialC1E21hal_usart_interface_tP23hal_usart_ring_buffer_tS2_>
   da3ce:	4620      	mov	r0, r4
   da3d0:	f7f9 fe79 	bl	d40c6 <__cxa_guard_release>
   da3d4:	4a07      	ldr	r2, [pc, #28]	; (da3f4 <_Z22__fetch_global_Serial1v+0x4c>)
   da3d6:	4908      	ldr	r1, [pc, #32]	; (da3f8 <_Z22__fetch_global_Serial1v+0x50>)
   da3d8:	4805      	ldr	r0, [pc, #20]	; (da3f0 <_Z22__fetch_global_Serial1v+0x48>)
   da3da:	f000 fa4f 	bl	da87c <__aeabi_atexit>
    serial1_tx_buffer = new hal_usart_ring_buffer_t();
  }
  static USARTSerial serial1(HAL_USART_SERIAL1, serial1_rx_buffer, serial1_tx_buffer);
#endif
	return serial1;
}
   da3de:	4804      	ldr	r0, [pc, #16]	; (da3f0 <_Z22__fetch_global_Serial1v+0x48>)
   da3e0:	b002      	add	sp, #8
   da3e2:	bd10      	pop	{r4, pc}
   da3e4:	2003e690 	.word	0x2003e690
   da3e8:	2003e694 	.word	0x2003e694
   da3ec:	2003e718 	.word	0x2003e718
   da3f0:	2003e79c 	.word	0x2003e79c
   da3f4:	2003dee0 	.word	0x2003dee0
   da3f8:	000da301 	.word	0x000da301

000da3fc <_ZN9USBSerial14blockOnOverrunEb>:
  HAL_USB_USART_Flush_Data(_serial);
}

void USBSerial::blockOnOverrun(bool block)
{
  _blocking = block;
   da3fc:	7441      	strb	r1, [r0, #17]
}
   da3fe:	4770      	bx	lr

000da400 <_ZN9USBSerialD1Ev>:
#include "usb_hal.h"
#include "system_task.h"
#include "spark_wiring_startup.h"
#include "concurrent_hal.h"

class USBSerial : public Stream
   da400:	4770      	bx	lr

000da402 <_ZN9USBSerial4readEv>:
{
   da402:	b508      	push	{r3, lr}
	return std::max(-1, (int)HAL_USB_USART_Receive_Data(_serial, false));
   da404:	2100      	movs	r1, #0
   da406:	7c00      	ldrb	r0, [r0, #16]
   da408:	f7fe f9ac 	bl	d8764 <HAL_USB_USART_Receive_Data>
}
   da40c:	ea40 70e0 	orr.w	r0, r0, r0, asr #31
   da410:	bd08      	pop	{r3, pc}

000da412 <_ZN9USBSerial4peekEv>:

int USBSerial::peek()
{
   da412:	b508      	push	{r3, lr}
	return std::max(-1, (int)HAL_USB_USART_Receive_Data(_serial, true));
   da414:	2101      	movs	r1, #1
   da416:	7c00      	ldrb	r0, [r0, #16]
   da418:	f7fe f9a4 	bl	d8764 <HAL_USB_USART_Receive_Data>
}
   da41c:	ea40 70e0 	orr.w	r0, r0, r0, asr #31
   da420:	bd08      	pop	{r3, pc}

000da422 <_ZN9USBSerial17availableForWriteEv>:
{
   da422:	b508      	push	{r3, lr}
  return std::max(0, (int)HAL_USB_USART_Available_Data_For_Write(_serial));
   da424:	7c00      	ldrb	r0, [r0, #16]
   da426:	f7fe f995 	bl	d8754 <HAL_USB_USART_Available_Data_For_Write>
}
   da42a:	ea20 70e0 	bic.w	r0, r0, r0, asr #31
   da42e:	bd08      	pop	{r3, pc}

000da430 <_ZN9USBSerial9availableEv>:
{
   da430:	b508      	push	{r3, lr}
	return std::max(0, (int)HAL_USB_USART_Available_Data(_serial));
   da432:	7c00      	ldrb	r0, [r0, #16]
   da434:	f7fe f986 	bl	d8744 <HAL_USB_USART_Available_Data>
}
   da438:	ea20 70e0 	bic.w	r0, r0, r0, asr #31
   da43c:	bd08      	pop	{r3, pc}

000da43e <_ZN9USBSerial5writeEh>:
{
   da43e:	b513      	push	{r0, r1, r4, lr}
   da440:	4604      	mov	r4, r0
  if (HAL_USB_USART_Available_Data_For_Write(_serial) > 0 || _blocking) {
   da442:	7c00      	ldrb	r0, [r0, #16]
{
   da444:	9101      	str	r1, [sp, #4]
  if (HAL_USB_USART_Available_Data_For_Write(_serial) > 0 || _blocking) {
   da446:	f7fe f985 	bl	d8754 <HAL_USB_USART_Available_Data_For_Write>
   da44a:	2800      	cmp	r0, #0
   da44c:	9901      	ldr	r1, [sp, #4]
   da44e:	dc01      	bgt.n	da454 <_ZN9USBSerial5writeEh+0x16>
   da450:	7c60      	ldrb	r0, [r4, #17]
   da452:	b120      	cbz	r0, da45e <_ZN9USBSerial5writeEh+0x20>
    return std::max(0, (int)HAL_USB_USART_Send_Data(_serial, byte));
   da454:	7c20      	ldrb	r0, [r4, #16]
   da456:	f7fe f98d 	bl	d8774 <HAL_USB_USART_Send_Data>
   da45a:	ea20 70e0 	bic.w	r0, r0, r0, asr #31
}
   da45e:	b002      	add	sp, #8
   da460:	bd10      	pop	{r4, pc}

000da462 <_ZN9USBSerial5flushEv>:
  HAL_USB_USART_Flush_Data(_serial);
   da462:	7c00      	ldrb	r0, [r0, #16]
   da464:	f7fe b98e 	b.w	d8784 <HAL_USB_USART_Flush_Data>

000da468 <_ZN9USBSerialD0Ev>:
   da468:	b510      	push	{r4, lr}
   da46a:	2114      	movs	r1, #20
   da46c:	4604      	mov	r4, r0
   da46e:	f000 fa0a 	bl	da886 <_ZdlPvj>
   da472:	4620      	mov	r0, r4
   da474:	bd10      	pop	{r4, pc}
	...

000da478 <_ZN9USBSerialC1E20HAL_USB_USART_SerialRK20HAL_USB_USART_Config>:
USBSerial::USBSerial(HAL_USB_USART_Serial serial, const HAL_USB_USART_Config& conf)
   da478:	b510      	push	{r4, lr}
   da47a:	f44f 737a 	mov.w	r3, #1000	; 0x3e8
   da47e:	4604      	mov	r4, r0
   da480:	4608      	mov	r0, r1
   da482:	2100      	movs	r1, #0
   da484:	e9c4 1301 	strd	r1, r3, [r4, #4]
   da488:	4b04      	ldr	r3, [pc, #16]	; (da49c <_ZN9USBSerialC1E20HAL_USB_USART_SerialRK20HAL_USB_USART_Config+0x24>)
   da48a:	6023      	str	r3, [r4, #0]
  _blocking = true;
   da48c:	2301      	movs	r3, #1
  _serial = serial;
   da48e:	7420      	strb	r0, [r4, #16]
  _blocking = true;
   da490:	7463      	strb	r3, [r4, #17]
  HAL_USB_USART_Init(_serial, &conf);
   da492:	4611      	mov	r1, r2
   da494:	f7fe f94e 	bl	d8734 <HAL_USB_USART_Init>
}
   da498:	4620      	mov	r0, r4
   da49a:	bd10      	pop	{r4, pc}
   da49c:	000de4c8 	.word	0x000de4c8

000da4a0 <_Z19acquireSerialBufferv>:

// Preinstantiate Objects //////////////////////////////////////////////////////
#ifdef SPARK_USB_SERIAL

HAL_USB_USART_Config __attribute__((weak)) acquireSerialBuffer()
{
   da4a0:	b510      	push	{r4, lr}
  HAL_USB_USART_Config conf = {0};
   da4a2:	2214      	movs	r2, #20
{
   da4a4:	4604      	mov	r4, r0
  HAL_USB_USART_Config conf = {0};
   da4a6:	2100      	movs	r1, #0
   da4a8:	f001 f88a 	bl	db5c0 <memset>
  conf.rx_buffer_size = USB_RX_BUFFER_SIZE;
  conf.tx_buffer_size = USB_TX_BUFFER_SIZE;
#endif

  return conf;
}
   da4ac:	4620      	mov	r0, r4
   da4ae:	bd10      	pop	{r4, pc}

000da4b0 <_Z16_fetch_usbserialv>:

USBSerial& _fetch_usbserial()
{
   da4b0:	b510      	push	{r4, lr}
  HAL_USB_USART_Config conf = acquireSerialBuffer();
	static USBSerial _usbserial(HAL_USB_USART_SERIAL, conf);
   da4b2:	4c10      	ldr	r4, [pc, #64]	; (da4f4 <_Z16_fetch_usbserialv+0x44>)
{
   da4b4:	b088      	sub	sp, #32
  HAL_USB_USART_Config conf = acquireSerialBuffer();
   da4b6:	a803      	add	r0, sp, #12
   da4b8:	f7ff fff2 	bl	da4a0 <_Z19acquireSerialBufferv>
	static USBSerial _usbserial(HAL_USB_USART_SERIAL, conf);
   da4bc:	7821      	ldrb	r1, [r4, #0]
   da4be:	f3bf 8f5b 	dmb	ish
   da4c2:	f011 0101 	ands.w	r1, r1, #1
   da4c6:	d111      	bne.n	da4ec <_Z16_fetch_usbserialv+0x3c>
   da4c8:	4620      	mov	r0, r4
   da4ca:	9101      	str	r1, [sp, #4]
   da4cc:	f7f9 fdf6 	bl	d40bc <__cxa_guard_acquire>
   da4d0:	9901      	ldr	r1, [sp, #4]
   da4d2:	b158      	cbz	r0, da4ec <_Z16_fetch_usbserialv+0x3c>
   da4d4:	aa03      	add	r2, sp, #12
   da4d6:	4808      	ldr	r0, [pc, #32]	; (da4f8 <_Z16_fetch_usbserialv+0x48>)
   da4d8:	f7ff ffce 	bl	da478 <_ZN9USBSerialC1E20HAL_USB_USART_SerialRK20HAL_USB_USART_Config>
   da4dc:	4620      	mov	r0, r4
   da4de:	f7f9 fdf2 	bl	d40c6 <__cxa_guard_release>
   da4e2:	4a06      	ldr	r2, [pc, #24]	; (da4fc <_Z16_fetch_usbserialv+0x4c>)
   da4e4:	4906      	ldr	r1, [pc, #24]	; (da500 <_Z16_fetch_usbserialv+0x50>)
   da4e6:	4804      	ldr	r0, [pc, #16]	; (da4f8 <_Z16_fetch_usbserialv+0x48>)
   da4e8:	f000 f9c8 	bl	da87c <__aeabi_atexit>
	return _usbserial;
}
   da4ec:	4802      	ldr	r0, [pc, #8]	; (da4f8 <_Z16_fetch_usbserialv+0x48>)
   da4ee:	b008      	add	sp, #32
   da4f0:	bd10      	pop	{r4, pc}
   da4f2:	bf00      	nop
   da4f4:	2003e7b0 	.word	0x2003e7b0
   da4f8:	2003e7b4 	.word	0x2003e7b4
   da4fc:	2003dee0 	.word	0x2003dee0
   da500:	000da401 	.word	0x000da401

000da504 <_Z11str_reversePc>:

//------------------------------------------------------------------------------------------
#define BUFSIZE (sizeof(long) * 8 + 1)

//utility function used by ultoa()
__attribute__((weak)) void str_reverse(char* buffer){
   da504:	b510      	push	{r4, lr}
   da506:	4604      	mov	r4, r0
	char *i, *j;
	char c;
	i=buffer;
	j=buffer + strlen(buffer)-1;
   da508:	f001 f8b5 	bl	db676 <strlen>
   da50c:	3801      	subs	r0, #1
   da50e:	1823      	adds	r3, r4, r0
   da510:	4620      	mov	r0, r4
	while(i<j){
   da512:	4283      	cmp	r3, r0
   da514:	d906      	bls.n	da524 <_Z11str_reversePc+0x20>
		c = *i;
   da516:	7802      	ldrb	r2, [r0, #0]
		*i = *j;
   da518:	7819      	ldrb	r1, [r3, #0]
   da51a:	f800 1b01 	strb.w	r1, [r0], #1
		*j = c;
   da51e:	f803 2901 	strb.w	r2, [r3], #-1
	while(i<j){
   da522:	e7f6      	b.n	da512 <_Z11str_reversePc+0xe>
		++i;
		--j;
	}
}
   da524:	bd10      	pop	{r4, pc}

000da526 <ultoa>:
      memcpy(head, ++tail, i);
      return str;
}

//convert unsigned long to string
__attribute__((weak)) char* ultoa(unsigned long a, char* buffer, int radix, char pad){
   da526:	b570      	push	{r4, r5, r6, lr}
   da528:	460c      	mov	r4, r1
	if(radix<2 || radix>36){
   da52a:	1e91      	subs	r1, r2, #2
   da52c:	2922      	cmp	r1, #34	; 0x22
__attribute__((weak)) char* ultoa(unsigned long a, char* buffer, int radix, char pad){
   da52e:	4605      	mov	r5, r0
	if(radix<2 || radix>36){
   da530:	d822      	bhi.n	da578 <ultoa+0x52>
		return NULL;
	}
	char* ptr=buffer;
   da532:	4620      	mov	r0, r4

	div_t result;
	while(a){
   da534:	b16d      	cbz	r5, da552 <ultoa+0x2c>
            /* toolchain bug??
            result = div(a, radix);
            */
            result.quot = a/radix;
   da536:	fbb5 f6f2 	udiv	r6, r5, r2
            result.rem = a%radix;
   da53a:	fb02 5516 	mls	r5, r2, r6, r5
            *ptr = result.rem;
   da53e:	b2e9      	uxtb	r1, r5
            if(result.rem<10){
   da540:	2d09      	cmp	r5, #9
                *ptr += '0';
   da542:	bf94      	ite	ls
   da544:	3130      	addls	r1, #48	; 0x30
            }else{
                *ptr += 'a'-10;
   da546:	3157      	addhi	r1, #87	; 0x57
   da548:	b2c9      	uxtb	r1, r1
   da54a:	f800 1b01 	strb.w	r1, [r0], #1
            }
            ++ptr;
            a = result.quot;
   da54e:	4635      	mov	r5, r6
	while(a){
   da550:	e7f0      	b.n	da534 <ultoa+0xe>
   da552:	4602      	mov	r2, r0
	}
        while (ptr < buffer+pad)
   da554:	4423      	add	r3, r4
            *ptr++ = '0';
   da556:	2130      	movs	r1, #48	; 0x30
        while (ptr < buffer+pad)
   da558:	4293      	cmp	r3, r2
   da55a:	d902      	bls.n	da562 <ultoa+0x3c>
            *ptr++ = '0';
   da55c:	f802 1b01 	strb.w	r1, [r2], #1
        while (ptr < buffer+pad)
   da560:	e7fa      	b.n	da558 <ultoa+0x32>
   da562:	1a1a      	subs	r2, r3, r0
   da564:	4283      	cmp	r3, r0
   da566:	bf38      	it	cc
   da568:	2200      	movcc	r2, #0

	*ptr = '\0';
   da56a:	2300      	movs	r3, #0
   da56c:	5483      	strb	r3, [r0, r2]
	str_reverse(buffer);
   da56e:	4620      	mov	r0, r4
   da570:	f7ff ffc8 	bl	da504 <_Z11str_reversePc>
	return buffer;
   da574:	4620      	mov	r0, r4
}
   da576:	bd70      	pop	{r4, r5, r6, pc}
		return NULL;
   da578:	2000      	movs	r0, #0
   da57a:	e7fc      	b.n	da576 <ultoa+0x50>

000da57c <itoa>:

__attribute__((weak)) char* itoa(int a, char* buffer, int radix){
   da57c:	b538      	push	{r3, r4, r5, lr}
	if(a<0){
   da57e:	1e03      	subs	r3, r0, #0
__attribute__((weak)) char* itoa(int a, char* buffer, int radix){
   da580:	460c      	mov	r4, r1
   da582:	4615      	mov	r5, r2
	if(a<0){
   da584:	da0e      	bge.n	da5a4 <itoa+0x28>
		*buffer = '-';
		unsigned v = a==INT_MIN ? ((unsigned)INT_MAX+1) : -a;
   da586:	f1b3 4f00 	cmp.w	r3, #2147483648	; 0x80000000
		*buffer = '-';
   da58a:	f04f 022d 	mov.w	r2, #45	; 0x2d
		unsigned v = a==INT_MIN ? ((unsigned)INT_MAX+1) : -a;
   da58e:	bf14      	ite	ne
   da590:	4258      	negne	r0, r3
   da592:	4618      	moveq	r0, r3
		ultoa((unsigned)v, buffer + 1, radix);
   da594:	2301      	movs	r3, #1
		*buffer = '-';
   da596:	700a      	strb	r2, [r1, #0]
		ultoa((unsigned)v, buffer + 1, radix);
   da598:	462a      	mov	r2, r5
   da59a:	4419      	add	r1, r3
	}else{
		ultoa(a, buffer, radix);
   da59c:	f7ff ffc3 	bl	da526 <ultoa>
	}
	return buffer;
}
   da5a0:	4620      	mov	r0, r4
   da5a2:	bd38      	pop	{r3, r4, r5, pc}
		ultoa(a, buffer, radix);
   da5a4:	2301      	movs	r3, #1
   da5a6:	e7f9      	b.n	da59c <itoa+0x20>

000da5a8 <_ZZ21module_user_init_hookENUlP6_reentjmPvE_4_FUNES0_jmS1_>:

void module_user_init_hook()
{
#if HAL_PLATFORM_NEWLIB
    newlib_impure_ptr_callback([](struct _reent* r, size_t size, uint32_t version, void* ctx) -> void {
        _impure_ptr = r;
   da5a8:	4b01      	ldr	r3, [pc, #4]	; (da5b0 <_ZZ21module_user_init_hookENUlP6_reentjmPvE_4_FUNES0_jmS1_+0x8>)
   da5aa:	6018      	str	r0, [r3, #0]
    }, nullptr);
   da5ac:	4770      	bx	lr
   da5ae:	bf00      	nop
   da5b0:	2003dd08 	.word	0x2003dd08

000da5b4 <serialEventRun>:
{
   da5b4:	b508      	push	{r3, lr}
    if (serialEvent && Serial.available()>0)
   da5b6:	4b0b      	ldr	r3, [pc, #44]	; (da5e4 <serialEventRun+0x30>)
   da5b8:	b143      	cbz	r3, da5cc <serialEventRun+0x18>
   da5ba:	f7ff ff79 	bl	da4b0 <_Z16_fetch_usbserialv>
   da5be:	6803      	ldr	r3, [r0, #0]
   da5c0:	691b      	ldr	r3, [r3, #16]
   da5c2:	4798      	blx	r3
   da5c4:	2800      	cmp	r0, #0
   da5c6:	dd01      	ble.n	da5cc <serialEventRun+0x18>
        serialEvent();
   da5c8:	f3af 8000 	nop.w
    if (serialEvent1 && Serial1.available()>0)
   da5cc:	4b06      	ldr	r3, [pc, #24]	; (da5e8 <serialEventRun+0x34>)
   da5ce:	b143      	cbz	r3, da5e2 <serialEventRun+0x2e>
   da5d0:	f7ff feea 	bl	da3a8 <_Z22__fetch_global_Serial1v>
   da5d4:	6803      	ldr	r3, [r0, #0]
   da5d6:	691b      	ldr	r3, [r3, #16]
   da5d8:	4798      	blx	r3
   da5da:	2800      	cmp	r0, #0
   da5dc:	dd01      	ble.n	da5e2 <serialEventRun+0x2e>
        serialEvent1();
   da5de:	f3af 8000 	nop.w
}
   da5e2:	bd08      	pop	{r3, pc}
	...

000da5ec <_post_loop>:
{
   da5ec:	b508      	push	{r3, lr}
	serialEventRun();
   da5ee:	f7ff ffe1 	bl	da5b4 <serialEventRun>
		return !timeout_fn;
	}

	static inline system_tick_t current_time()
	{
		return HAL_Timer_Get_Milli_Seconds();
   da5f2:	f7fd ff6f 	bl	d84d4 <HAL_Timer_Get_Milli_Seconds>
	/**
	 * Lifesign that the application is still working normally.
	 */
	static void checkin()
	{
		last_checkin = current_time();
   da5f6:	4b01      	ldr	r3, [pc, #4]	; (da5fc <_post_loop+0x10>)
   da5f8:	6018      	str	r0, [r3, #0]
}
   da5fa:	bd08      	pop	{r3, pc}
   da5fc:	2003e7dc 	.word	0x2003e7dc

000da600 <_Z33system_initialize_user_backup_ramv>:
    memcpy(&link_global_retained_start, &link_global_retained_initial_values, len);
   da600:	4802      	ldr	r0, [pc, #8]	; (da60c <_Z33system_initialize_user_backup_ramv+0xc>)
   da602:	4a03      	ldr	r2, [pc, #12]	; (da610 <_Z33system_initialize_user_backup_ramv+0x10>)
   da604:	4903      	ldr	r1, [pc, #12]	; (da614 <_Z33system_initialize_user_backup_ramv+0x14>)
   da606:	1a12      	subs	r2, r2, r0
   da608:	f000 bfb2 	b.w	db570 <memcpy>
   da60c:	2003f400 	.word	0x2003f400
   da610:	2003fd44 	.word	0x2003fd44
   da614:	000de800 	.word	0x000de800

000da618 <_Z27ctrl_request_custom_handlerP12ctrl_request>:
void __attribute((weak)) ctrl_request_custom_handler(ctrl_request* req) {
   da618:	b507      	push	{r0, r1, r2, lr}
    system_ctrl_set_result(req, SYSTEM_ERROR_NOT_SUPPORTED, nullptr, nullptr, nullptr);
   da61a:	2300      	movs	r3, #0
   da61c:	9300      	str	r3, [sp, #0]
   da61e:	461a      	mov	r2, r3
   da620:	f06f 0177 	mvn.w	r1, #119	; 0x77
   da624:	f7fe f920 	bl	d8868 <system_ctrl_set_result>
}
   da628:	b003      	add	sp, #12
   da62a:	f85d fb04 	ldr.w	pc, [sp], #4
	...

000da630 <_ZL20ctrl_request_handlerP12ctrl_request>:
static void ctrl_request_handler(ctrl_request* req) {
   da630:	b507      	push	{r0, r1, r2, lr}
    switch (req->type) {
   da632:	8843      	ldrh	r3, [r0, #2]
   da634:	2b0a      	cmp	r3, #10
   da636:	d008      	beq.n	da64a <_ZL20ctrl_request_handlerP12ctrl_request+0x1a>
   da638:	2b50      	cmp	r3, #80	; 0x50
   da63a:	d10b      	bne.n	da654 <_ZL20ctrl_request_handlerP12ctrl_request+0x24>
        if (log_process_ctrl_request_callback) {
   da63c:	4b09      	ldr	r3, [pc, #36]	; (da664 <_ZL20ctrl_request_handlerP12ctrl_request+0x34>)
   da63e:	681b      	ldr	r3, [r3, #0]
   da640:	b14b      	cbz	r3, da656 <_ZL20ctrl_request_handlerP12ctrl_request+0x26>
}
   da642:	b003      	add	sp, #12
   da644:	f85d eb04 	ldr.w	lr, [sp], #4
            log_process_ctrl_request_callback(req);
   da648:	4718      	bx	r3
        ctrl_request_custom_handler(req);
   da64a:	f7ff ffe5 	bl	da618 <_Z27ctrl_request_custom_handlerP12ctrl_request>
}
   da64e:	b003      	add	sp, #12
   da650:	f85d fb04 	ldr.w	pc, [sp], #4
        system_ctrl_set_result(req, SYSTEM_ERROR_NOT_SUPPORTED, nullptr, nullptr, nullptr);
   da654:	2300      	movs	r3, #0
   da656:	9300      	str	r3, [sp, #0]
   da658:	461a      	mov	r2, r3
   da65a:	f06f 0177 	mvn.w	r1, #119	; 0x77
   da65e:	f7fe f903 	bl	d8868 <system_ctrl_set_result>
}
   da662:	e7f4      	b.n	da64e <_ZL20ctrl_request_handlerP12ctrl_request+0x1e>
   da664:	2003e7cc 	.word	0x2003e7cc

000da668 <module_user_init_hook>:
{
   da668:	b538      	push	{r3, r4, r5, lr}
#endif // HAL_PLATFORM_NEWLIB

#if HAL_PLATFORM_BACKUP_RAM
    backup_ram_was_valid_ =  __backup_sram_signature==signature;
   da66a:	4c12      	ldr	r4, [pc, #72]	; (da6b4 <module_user_init_hook+0x4c>)
    newlib_impure_ptr_callback([](struct _reent* r, size_t size, uint32_t version, void* ctx) -> void {
   da66c:	4812      	ldr	r0, [pc, #72]	; (da6b8 <module_user_init_hook+0x50>)
    backup_ram_was_valid_ =  __backup_sram_signature==signature;
   da66e:	4d13      	ldr	r5, [pc, #76]	; (da6bc <module_user_init_hook+0x54>)
    newlib_impure_ptr_callback([](struct _reent* r, size_t size, uint32_t version, void* ctx) -> void {
   da670:	2100      	movs	r1, #0
   da672:	f7fe fa1d 	bl	d8ab0 <newlib_impure_ptr_callback>
    backup_ram_was_valid_ =  __backup_sram_signature==signature;
   da676:	6823      	ldr	r3, [r4, #0]
   da678:	42ab      	cmp	r3, r5
   da67a:	4b11      	ldr	r3, [pc, #68]	; (da6c0 <module_user_init_hook+0x58>)
   da67c:	bf0c      	ite	eq
   da67e:	2201      	moveq	r2, #1
   da680:	2200      	movne	r2, #0
   da682:	701a      	strb	r2, [r3, #0]
    if (!backup_ram_was_valid_) {
   da684:	d002      	beq.n	da68c <module_user_init_hook+0x24>
        system_initialize_user_backup_ram();
   da686:	f7ff ffbb 	bl	da600 <_Z33system_initialize_user_backup_ramv>
        __backup_sram_signature = signature;
   da68a:	6025      	str	r5, [r4, #0]
    }
#endif

#if HAL_PLATFORM_RNG
    // Initialize the default stdlib PRNG using hardware RNG as a seed
    const uint32_t seed = HAL_RNG_GetRandomNumber();
   da68c:	f7fd ff0a 	bl	d84a4 <HAL_RNG_GetRandomNumber>
   da690:	4604      	mov	r4, r0
    srand(seed);
   da692:	f000 ff9d 	bl	db5d0 <srand>

    // If the user defines random_seed_from_cloud, call it with a seed value
    // generated by a hardware RNG as well.
    if (random_seed_from_cloud) {
   da696:	4b0b      	ldr	r3, [pc, #44]	; (da6c4 <module_user_init_hook+0x5c>)
   da698:	b113      	cbz	r3, da6a0 <module_user_init_hook+0x38>
        random_seed_from_cloud(seed);
   da69a:	4620      	mov	r0, r4
   da69c:	f3af 8000 	nop.w
    }
#endif
    // Register the random_seed_from_cloud handler
    spark_set_random_seed_from_cloud_handler(&random_seed_from_cloud, nullptr);
   da6a0:	2100      	movs	r1, #0
   da6a2:	4808      	ldr	r0, [pc, #32]	; (da6c4 <module_user_init_hook+0x5c>)
   da6a4:	f7fe f954 	bl	d8950 <spark_set_random_seed_from_cloud_handler>

    // Register application handler for the control requests
    system_ctrl_set_app_request_handler(ctrl_request_handler, nullptr);
}
   da6a8:	e8bd 4038 	ldmia.w	sp!, {r3, r4, r5, lr}
    system_ctrl_set_app_request_handler(ctrl_request_handler, nullptr);
   da6ac:	4806      	ldr	r0, [pc, #24]	; (da6c8 <module_user_init_hook+0x60>)
   da6ae:	2100      	movs	r1, #0
   da6b0:	f7fe b8d0 	b.w	d8854 <system_ctrl_set_app_request_handler>
   da6b4:	2003fd40 	.word	0x2003fd40
   da6b8:	000da5a9 	.word	0x000da5a9
   da6bc:	9a271c1e 	.word	0x9a271c1e
   da6c0:	2003e7c8 	.word	0x2003e7c8
   da6c4:	00000000 	.word	0x00000000
   da6c8:	000da631 	.word	0x000da631

000da6cc <spark_protocol_instance>:
extern "C" {
#endif

DYNALIB_BEGIN(communication)

DYNALIB_FN(0, communication, spark_protocol_instance, ProtocolFacade*(void))
   da6cc:	b508      	push	{r3, lr}
   da6ce:	4b02      	ldr	r3, [pc, #8]	; (da6d8 <spark_protocol_instance+0xc>)
   da6d0:	681b      	ldr	r3, [r3, #0]
   da6d2:	681b      	ldr	r3, [r3, #0]
   da6d4:	9301      	str	r3, [sp, #4]
   da6d6:	bd08      	pop	{r3, pc}
   da6d8:	0003025c 	.word	0x0003025c

000da6dc <spark_protocol_set_product_id>:
DYNALIB_FN(1, communication, spark_protocol_set_product_id, void(ProtocolFacade*, product_id_t, unsigned, void*))
   da6dc:	b508      	push	{r3, lr}
   da6de:	4b02      	ldr	r3, [pc, #8]	; (da6e8 <spark_protocol_set_product_id+0xc>)
   da6e0:	681b      	ldr	r3, [r3, #0]
   da6e2:	685b      	ldr	r3, [r3, #4]
   da6e4:	9301      	str	r3, [sp, #4]
   da6e6:	bd08      	pop	{r3, pc}
   da6e8:	0003025c 	.word	0x0003025c

000da6ec <spark_protocol_set_product_firmware_version>:
DYNALIB_FN(2, communication, spark_protocol_set_product_firmware_version, void(ProtocolFacade*, product_firmware_version_t, unsigned, void*))
   da6ec:	b508      	push	{r3, lr}
   da6ee:	4b02      	ldr	r3, [pc, #8]	; (da6f8 <spark_protocol_set_product_firmware_version+0xc>)
   da6f0:	681b      	ldr	r3, [r3, #0]
   da6f2:	689b      	ldr	r3, [r3, #8]
   da6f4:	9301      	str	r3, [sp, #4]
   da6f6:	bd08      	pop	{r3, pc}
   da6f8:	0003025c 	.word	0x0003025c

000da6fc <pinAvailable>:
/*
 * @brief Perform safety check on desired pin to see if it's already
 * being used.  Return 0 if used, otherwise return 1 if available.
 */
bool pinAvailable(uint16_t pin) {
  if (pin >= TOTAL_PINS) {
   da6fc:	2823      	cmp	r0, #35	; 0x23
bool pinAvailable(uint16_t pin) {
   da6fe:	b513      	push	{r0, r1, r4, lr}
  if (pin >= TOTAL_PINS) {
   da700:	d902      	bls.n	da708 <pinAvailable+0xc>
    return false;
   da702:	2000      	movs	r0, #0
    return false; // 'pin' is used
  }
#endif

  return true; // 'pin' is available
}
   da704:	b002      	add	sp, #8
   da706:	bd10      	pop	{r4, pc}
  if((pin == SCK || pin == MOSI || pin == MISO) && hal_spi_is_enabled(SPI.interface()) == true)
   da708:	f1a0 030b 	sub.w	r3, r0, #11
   da70c:	2b02      	cmp	r3, #2
   da70e:	d81a      	bhi.n	da746 <pinAvailable+0x4a>

template <hal_spi_interface_t Interface>
class SpiProxy {
public:
    static SPIClass& instance() {
        static SPIClass instance(Interface);
   da710:	4c17      	ldr	r4, [pc, #92]	; (da770 <pinAvailable+0x74>)
   da712:	7821      	ldrb	r1, [r4, #0]
   da714:	f3bf 8f5b 	dmb	ish
   da718:	f011 0101 	ands.w	r1, r1, #1
   da71c:	d10b      	bne.n	da736 <pinAvailable+0x3a>
   da71e:	4620      	mov	r0, r4
   da720:	9101      	str	r1, [sp, #4]
   da722:	f7f9 fccb 	bl	d40bc <__cxa_guard_acquire>
   da726:	9901      	ldr	r1, [sp, #4]
   da728:	b128      	cbz	r0, da736 <pinAvailable+0x3a>
   da72a:	4812      	ldr	r0, [pc, #72]	; (da774 <pinAvailable+0x78>)
   da72c:	f7ff fb0a 	bl	d9d44 <_ZN8SPIClassC1E19hal_spi_interface_t>
   da730:	4620      	mov	r0, r4
   da732:	f7f9 fcc8 	bl	d40c6 <__cxa_guard_release>
   da736:	4b0f      	ldr	r3, [pc, #60]	; (da774 <pinAvailable+0x78>)
   da738:	7818      	ldrb	r0, [r3, #0]
   da73a:	f7fd ffb3 	bl	d86a4 <hal_spi_is_enabled>
   da73e:	2800      	cmp	r0, #0
   da740:	d1df      	bne.n	da702 <pinAvailable+0x6>
  return true; // 'pin' is available
   da742:	2001      	movs	r0, #1
   da744:	e7de      	b.n	da704 <pinAvailable+0x8>
  if((pin == SCL || pin == SDA) && hal_i2c_is_enabled(Wire.interface(), nullptr) == true)
   da746:	2801      	cmp	r0, #1
   da748:	d809      	bhi.n	da75e <pinAvailable+0x62>
   da74a:	f000 f86f 	bl	da82c <_Z19__fetch_global_Wirev>
   da74e:	2100      	movs	r1, #0
   da750:	7c00      	ldrb	r0, [r0, #16]
   da752:	f7fd ff5f 	bl	d8614 <hal_i2c_is_enabled>
  if((pin == RX || pin == TX) && hal_usart_is_enabled(Serial1.interface()) == true)
   da756:	f080 0001 	eor.w	r0, r0, #1
   da75a:	b2c0      	uxtb	r0, r0
   da75c:	e7d2      	b.n	da704 <pinAvailable+0x8>
   da75e:	3809      	subs	r0, #9
   da760:	2801      	cmp	r0, #1
   da762:	d8ee      	bhi.n	da742 <pinAvailable+0x46>
   da764:	f7ff fe20 	bl	da3a8 <_Z22__fetch_global_Serial1v>
   da768:	7c00      	ldrb	r0, [r0, #16]
   da76a:	f7fd ffd3 	bl	d8714 <hal_usart_is_enabled>
   da76e:	e7f2      	b.n	da756 <pinAvailable+0x5a>
   da770:	2003e7d0 	.word	0x2003e7d0
   da774:	2003e7d4 	.word	0x2003e7d4

000da778 <pinMode>:
  if(pin >= TOTAL_PINS || setMode == PIN_MODE_NONE )
   da778:	2823      	cmp	r0, #35	; 0x23
{
   da77a:	b538      	push	{r3, r4, r5, lr}
   da77c:	4604      	mov	r4, r0
   da77e:	460d      	mov	r5, r1
  if(pin >= TOTAL_PINS || setMode == PIN_MODE_NONE )
   da780:	d80a      	bhi.n	da798 <pinMode+0x20>
   da782:	29ff      	cmp	r1, #255	; 0xff
   da784:	d008      	beq.n	da798 <pinMode+0x20>
  if( !pinAvailable(pin) ) {
   da786:	f7ff ffb9 	bl	da6fc <pinAvailable>
   da78a:	b128      	cbz	r0, da798 <pinMode+0x20>
  HAL_Pin_Mode(pin, setMode);
   da78c:	4629      	mov	r1, r5
   da78e:	4620      	mov	r0, r4
}
   da790:	e8bd 4038 	ldmia.w	sp!, {r3, r4, r5, lr}
  HAL_Pin_Mode(pin, setMode);
   da794:	f7fd bece 	b.w	d8534 <HAL_Pin_Mode>
}
   da798:	bd38      	pop	{r3, r4, r5, pc}

000da79a <digitalWrite>:

/*
 * @brief Sets a GPIO pin to HIGH or LOW.
 */
void digitalWrite(pin_t pin, uint8_t value)
{
   da79a:	b538      	push	{r3, r4, r5, lr}
   da79c:	4604      	mov	r4, r0
   da79e:	460d      	mov	r5, r1
    PinMode mode = HAL_Get_Pin_Mode(pin);
   da7a0:	f7fd fed0 	bl	d8544 <HAL_Get_Pin_Mode>
    if (mode==PIN_MODE_NONE || is_input_mode(mode))
   da7a4:	28ff      	cmp	r0, #255	; 0xff
   da7a6:	d010      	beq.n	da7ca <digitalWrite+0x30>
            mode == INPUT_PULLDOWN ||
   da7a8:	2806      	cmp	r0, #6
   da7aa:	d804      	bhi.n	da7b6 <digitalWrite+0x1c>
   da7ac:	234d      	movs	r3, #77	; 0x4d
   da7ae:	fa23 f000 	lsr.w	r0, r3, r0
   da7b2:	07c3      	lsls	r3, r0, #31
   da7b4:	d409      	bmi.n	da7ca <digitalWrite+0x30>
        return;
  // Safety check
  if( !pinAvailable(pin) ) {
   da7b6:	4620      	mov	r0, r4
   da7b8:	f7ff ffa0 	bl	da6fc <pinAvailable>
   da7bc:	b128      	cbz	r0, da7ca <digitalWrite+0x30>
    return;
  }

  HAL_GPIO_Write(pin, value);
   da7be:	4629      	mov	r1, r5
   da7c0:	4620      	mov	r0, r4
}
   da7c2:	e8bd 4038 	ldmia.w	sp!, {r3, r4, r5, lr}
  HAL_GPIO_Write(pin, value);
   da7c6:	f7fd bec5 	b.w	d8554 <HAL_GPIO_Write>
}
   da7ca:	bd38      	pop	{r3, r4, r5, pc}

000da7cc <analogRead>:
 * Note: ADC is 12-bit. Currently it returns 0-4095
 */
int32_t analogRead(pin_t pin)
{
  // Allow people to use 0-7 to define analog pins by checking to see if the values are too low.
  if(pin < FIRST_ANALOG_PIN)
   da7cc:	280d      	cmp	r0, #13
{
   da7ce:	b510      	push	{r4, lr}
   da7d0:	4604      	mov	r4, r0
  {
    pin = pin + FIRST_ANALOG_PIN;
   da7d2:	bf9c      	itt	ls
   da7d4:	340e      	addls	r4, #14
   da7d6:	b2a4      	uxthls	r4, r4
  }

  // Safety check
  if( !pinAvailable(pin) ) {
   da7d8:	4620      	mov	r0, r4
   da7da:	f7ff ff8f 	bl	da6fc <pinAvailable>
   da7de:	b150      	cbz	r0, da7f6 <analogRead+0x2a>
    return LOW;
  }

  if(HAL_Validate_Pin_Function(pin, PF_ADC)!=PF_ADC)
   da7e0:	2103      	movs	r1, #3
   da7e2:	4620      	mov	r0, r4
   da7e4:	f7fd fe9e 	bl	d8524 <HAL_Validate_Pin_Function>
   da7e8:	2803      	cmp	r0, #3
   da7ea:	d104      	bne.n	da7f6 <analogRead+0x2a>
  {
    return LOW;
  }

  return hal_adc_read(pin);
   da7ec:	4620      	mov	r0, r4
}
   da7ee:	e8bd 4010 	ldmia.w	sp!, {r4, lr}
  return hal_adc_read(pin);
   da7f2:	f7fd bec7 	b.w	d8584 <hal_adc_read>
}
   da7f6:	2000      	movs	r0, #0
   da7f8:	bd10      	pop	{r4, pc}
	...

000da7fc <_Z17acquireWireBufferv>:
}

} // anonymous

hal_i2c_config_t __attribute__((weak)) acquireWireBuffer()
{
   da7fc:	b538      	push	{r3, r4, r5, lr}
	hal_i2c_config_t config = {
   da7fe:	2300      	movs	r3, #0
   da800:	2520      	movs	r5, #32
   da802:	8043      	strh	r3, [r0, #2]
   da804:	2314      	movs	r3, #20
{
   da806:	4604      	mov	r4, r0
	hal_i2c_config_t config = {
   da808:	8003      	strh	r3, [r0, #0]
   da80a:	6085      	str	r5, [r0, #8]
   da80c:	6105      	str	r5, [r0, #16]
		.rx_buffer = new (std::nothrow) uint8_t[I2C_BUFFER_LENGTH],
   da80e:	4906      	ldr	r1, [pc, #24]	; (da828 <_Z17acquireWireBufferv+0x2c>)
   da810:	4628      	mov	r0, r5
   da812:	f000 f83c 	bl	da88e <_ZnajRKSt9nothrow_t>
		.tx_buffer = new (std::nothrow) uint8_t[I2C_BUFFER_LENGTH],
   da816:	4904      	ldr	r1, [pc, #16]	; (da828 <_Z17acquireWireBufferv+0x2c>)
	};
   da818:	6060      	str	r0, [r4, #4]
		.tx_buffer = new (std::nothrow) uint8_t[I2C_BUFFER_LENGTH],
   da81a:	4628      	mov	r0, r5
   da81c:	f000 f837 	bl	da88e <_ZnajRKSt9nothrow_t>
	};
   da820:	60e0      	str	r0, [r4, #12]
	return defaultWireConfig();
}
   da822:	4620      	mov	r0, r4
   da824:	bd38      	pop	{r3, r4, r5, pc}
   da826:	bf00      	nop
   da828:	000de4f0 	.word	0x000de4f0

000da82c <_Z19__fetch_global_Wirev>:
	return defaultWireConfig();
}
#endif

TwoWire& __fetch_global_Wire()
{
   da82c:	b530      	push	{r4, r5, lr}
	static TwoWire wire(HAL_I2C_INTERFACE1, acquireWireBuffer());
   da82e:	4d0f      	ldr	r5, [pc, #60]	; (da86c <_Z19__fetch_global_Wirev+0x40>)
   da830:	7829      	ldrb	r1, [r5, #0]
   da832:	f3bf 8f5b 	dmb	ish
   da836:	f011 0401 	ands.w	r4, r1, #1
{
   da83a:	b087      	sub	sp, #28
	static TwoWire wire(HAL_I2C_INTERFACE1, acquireWireBuffer());
   da83c:	d113      	bne.n	da866 <_Z19__fetch_global_Wirev+0x3a>
   da83e:	4628      	mov	r0, r5
   da840:	f7f9 fc3c 	bl	d40bc <__cxa_guard_acquire>
   da844:	b178      	cbz	r0, da866 <_Z19__fetch_global_Wirev+0x3a>
   da846:	a801      	add	r0, sp, #4
   da848:	f7ff ffd8 	bl	da7fc <_Z17acquireWireBufferv>
   da84c:	aa01      	add	r2, sp, #4
   da84e:	4621      	mov	r1, r4
   da850:	4807      	ldr	r0, [pc, #28]	; (da870 <_Z19__fetch_global_Wirev+0x44>)
   da852:	f7fe fd11 	bl	d9278 <_ZN7TwoWireC1E19hal_i2c_interface_tRK16hal_i2c_config_t>
   da856:	4628      	mov	r0, r5
   da858:	f7f9 fc35 	bl	d40c6 <__cxa_guard_release>
   da85c:	4a05      	ldr	r2, [pc, #20]	; (da874 <_Z19__fetch_global_Wirev+0x48>)
   da85e:	4906      	ldr	r1, [pc, #24]	; (da878 <_Z19__fetch_global_Wirev+0x4c>)
   da860:	4803      	ldr	r0, [pc, #12]	; (da870 <_Z19__fetch_global_Wirev+0x44>)
   da862:	f000 f80b 	bl	da87c <__aeabi_atexit>
	return wire;
}
   da866:	4802      	ldr	r0, [pc, #8]	; (da870 <_Z19__fetch_global_Wirev+0x44>)
   da868:	b007      	add	sp, #28
   da86a:	bd30      	pop	{r4, r5, pc}
   da86c:	2003e7e0 	.word	0x2003e7e0
   da870:	2003e7e4 	.word	0x2003e7e4
   da874:	2003dee0 	.word	0x2003dee0
   da878:	000d9221 	.word	0x000d9221

000da87c <__aeabi_atexit>:
   da87c:	460b      	mov	r3, r1
   da87e:	4601      	mov	r1, r0
   da880:	4618      	mov	r0, r3
   da882:	f000 be55 	b.w	db530 <__cxa_atexit>

000da886 <_ZdlPvj>:
   da886:	f7f9 bc0a 	b.w	d409e <_ZdlPv>

000da88a <_ZnwjRKSt9nothrow_t>:
   da88a:	f7f9 bc04 	b.w	d4096 <_Znwj>

000da88e <_ZnajRKSt9nothrow_t>:
   da88e:	f7f9 bc04 	b.w	d409a <_Znaj>

000da892 <_ZSt25__throw_bad_function_callv>:
   da892:	b508      	push	{r3, lr}
   da894:	f7fe f8f4 	bl	d8a80 <abort>

000da898 <sqrt>:
   da898:	e92d 43f0 	stmdb	sp!, {r4, r5, r6, r7, r8, r9, lr}
   da89c:	ed2d 8b02 	vpush	{d8}
   da8a0:	b08b      	sub	sp, #44	; 0x2c
   da8a2:	ec55 4b10 	vmov	r4, r5, d0
   da8a6:	f000 f855 	bl	da954 <__ieee754_sqrt>
   da8aa:	4b28      	ldr	r3, [pc, #160]	; (da94c <sqrt+0xb4>)
   da8ac:	eeb0 8a40 	vmov.f32	s16, s0
   da8b0:	eef0 8a60 	vmov.f32	s17, s1
   da8b4:	f993 7000 	ldrsb.w	r7, [r3]
   da8b8:	1c7b      	adds	r3, r7, #1
   da8ba:	d012      	beq.n	da8e2 <sqrt+0x4a>
   da8bc:	4622      	mov	r2, r4
   da8be:	462b      	mov	r3, r5
   da8c0:	4620      	mov	r0, r4
   da8c2:	4629      	mov	r1, r5
   da8c4:	f000 fd62 	bl	db38c <__aeabi_dcmpun>
   da8c8:	4606      	mov	r6, r0
   da8ca:	b950      	cbnz	r0, da8e2 <sqrt+0x4a>
   da8cc:	f04f 0800 	mov.w	r8, #0
   da8d0:	f04f 0900 	mov.w	r9, #0
   da8d4:	4620      	mov	r0, r4
   da8d6:	4629      	mov	r1, r5
   da8d8:	4642      	mov	r2, r8
   da8da:	464b      	mov	r3, r9
   da8dc:	f000 fd2e 	bl	db33c <__aeabi_dcmplt>
   da8e0:	b940      	cbnz	r0, da8f4 <sqrt+0x5c>
   da8e2:	eeb0 0a48 	vmov.f32	s0, s16
   da8e6:	eef0 0a68 	vmov.f32	s1, s17
   da8ea:	b00b      	add	sp, #44	; 0x2c
   da8ec:	ecbd 8b02 	vpop	{d8}
   da8f0:	e8bd 83f0 	ldmia.w	sp!, {r4, r5, r6, r7, r8, r9, pc}
   da8f4:	4b16      	ldr	r3, [pc, #88]	; (da950 <sqrt+0xb8>)
   da8f6:	9608      	str	r6, [sp, #32]
   da8f8:	2201      	movs	r2, #1
   da8fa:	e9cd 4504 	strd	r4, r5, [sp, #16]
   da8fe:	e9cd 4502 	strd	r4, r5, [sp, #8]
   da902:	9200      	str	r2, [sp, #0]
   da904:	9301      	str	r3, [sp, #4]
   da906:	b197      	cbz	r7, da92e <sqrt+0x96>
   da908:	4642      	mov	r2, r8
   da90a:	464b      	mov	r3, r9
   da90c:	4640      	mov	r0, r8
   da90e:	4649      	mov	r1, r9
   da910:	f000 fbcc 	bl	db0ac <__aeabi_ddiv>
   da914:	2f02      	cmp	r7, #2
   da916:	e9cd 0106 	strd	r0, r1, [sp, #24]
   da91a:	d10a      	bne.n	da932 <sqrt+0x9a>
   da91c:	f7fe f8c0 	bl	d8aa0 <__errno>
   da920:	2321      	movs	r3, #33	; 0x21
   da922:	6003      	str	r3, [r0, #0]
   da924:	9b08      	ldr	r3, [sp, #32]
   da926:	b963      	cbnz	r3, da942 <sqrt+0xaa>
   da928:	ed9d 8b06 	vldr	d8, [sp, #24]
   da92c:	e7d9      	b.n	da8e2 <sqrt+0x4a>
   da92e:	e9cd 8906 	strd	r8, r9, [sp, #24]
   da932:	4668      	mov	r0, sp
   da934:	f000 f8d2 	bl	daadc <matherr>
   da938:	2800      	cmp	r0, #0
   da93a:	d0ef      	beq.n	da91c <sqrt+0x84>
   da93c:	9b08      	ldr	r3, [sp, #32]
   da93e:	2b00      	cmp	r3, #0
   da940:	d0f2      	beq.n	da928 <sqrt+0x90>
   da942:	f7fe f8ad 	bl	d8aa0 <__errno>
   da946:	9b08      	ldr	r3, [sp, #32]
   da948:	6003      	str	r3, [r0, #0]
   da94a:	e7ed      	b.n	da928 <sqrt+0x90>
   da94c:	2003dd04 	.word	0x2003dd04
   da950:	000de4f4 	.word	0x000de4f4

000da954 <__ieee754_sqrt>:
   da954:	e92d 41f0 	stmdb	sp!, {r4, r5, r6, r7, r8, lr}
   da958:	4a5f      	ldr	r2, [pc, #380]	; (daad8 <__ieee754_sqrt+0x184>)
   da95a:	ec57 6b10 	vmov	r6, r7, d0
   da95e:	43ba      	bics	r2, r7
   da960:	f000 8098 	beq.w	daa94 <__ieee754_sqrt+0x140>
   da964:	2f00      	cmp	r7, #0
   da966:	ee10 4a10 	vmov	r4, s0
   da96a:	463b      	mov	r3, r7
   da96c:	dd4e      	ble.n	daa0c <__ieee754_sqrt+0xb8>
   da96e:	1539      	asrs	r1, r7, #20
   da970:	d05b      	beq.n	daa2a <__ieee754_sqrt+0xd6>
   da972:	f3c3 0313 	ubfx	r3, r3, #0, #20
   da976:	07ca      	lsls	r2, r1, #31
   da978:	f443 1380 	orr.w	r3, r3, #1048576	; 0x100000
   da97c:	f2a1 3eff 	subw	lr, r1, #1023	; 0x3ff
   da980:	d403      	bmi.n	da98a <__ieee754_sqrt+0x36>
   da982:	005b      	lsls	r3, r3, #1
   da984:	eb03 73d4 	add.w	r3, r3, r4, lsr #31
   da988:	0064      	lsls	r4, r4, #1
   da98a:	0fe2      	lsrs	r2, r4, #31
   da98c:	f04f 0c00 	mov.w	ip, #0
   da990:	eb02 0343 	add.w	r3, r2, r3, lsl #1
   da994:	ea4f 0e6e 	mov.w	lr, lr, asr #1
   da998:	0064      	lsls	r4, r4, #1
   da99a:	4666      	mov	r6, ip
   da99c:	2516      	movs	r5, #22
   da99e:	f44f 1200 	mov.w	r2, #2097152	; 0x200000
   da9a2:	18b1      	adds	r1, r6, r2
   da9a4:	4299      	cmp	r1, r3
   da9a6:	dc02      	bgt.n	da9ae <__ieee754_sqrt+0x5a>
   da9a8:	1a5b      	subs	r3, r3, r1
   da9aa:	188e      	adds	r6, r1, r2
   da9ac:	4494      	add	ip, r2
   da9ae:	005b      	lsls	r3, r3, #1
   da9b0:	3d01      	subs	r5, #1
   da9b2:	eb03 73d4 	add.w	r3, r3, r4, lsr #31
   da9b6:	ea4f 0252 	mov.w	r2, r2, lsr #1
   da9ba:	ea4f 0444 	mov.w	r4, r4, lsl #1
   da9be:	d1f0      	bne.n	da9a2 <__ieee754_sqrt+0x4e>
   da9c0:	462f      	mov	r7, r5
   da9c2:	2020      	movs	r0, #32
   da9c4:	f04f 4200 	mov.w	r2, #2147483648	; 0x80000000
   da9c8:	e009      	b.n	da9de <__ieee754_sqrt+0x8a>
   da9ca:	d03e      	beq.n	daa4a <__ieee754_sqrt+0xf6>
   da9cc:	0fe1      	lsrs	r1, r4, #31
   da9ce:	3801      	subs	r0, #1
   da9d0:	ea4f 0252 	mov.w	r2, r2, lsr #1
   da9d4:	eb01 0343 	add.w	r3, r1, r3, lsl #1
   da9d8:	ea4f 0444 	mov.w	r4, r4, lsl #1
   da9dc:	d03e      	beq.n	daa5c <__ieee754_sqrt+0x108>
   da9de:	42b3      	cmp	r3, r6
   da9e0:	eb02 0105 	add.w	r1, r2, r5
   da9e4:	ddf1      	ble.n	da9ca <__ieee754_sqrt+0x76>
   da9e6:	2900      	cmp	r1, #0
   da9e8:	eb01 0502 	add.w	r5, r1, r2
   da9ec:	db09      	blt.n	daa02 <__ieee754_sqrt+0xae>
   da9ee:	46b0      	mov	r8, r6
   da9f0:	1b9b      	subs	r3, r3, r6
   da9f2:	42a1      	cmp	r1, r4
   da9f4:	bf88      	it	hi
   da9f6:	f103 33ff 	addhi.w	r3, r3, #4294967295	; 0xffffffff
   da9fa:	1a64      	subs	r4, r4, r1
   da9fc:	4417      	add	r7, r2
   da9fe:	4646      	mov	r6, r8
   daa00:	e7e4      	b.n	da9cc <__ieee754_sqrt+0x78>
   daa02:	2d00      	cmp	r5, #0
   daa04:	dbf3      	blt.n	da9ee <__ieee754_sqrt+0x9a>
   daa06:	f106 0801 	add.w	r8, r6, #1
   daa0a:	e7f1      	b.n	da9f0 <__ieee754_sqrt+0x9c>
   daa0c:	f027 4200 	bic.w	r2, r7, #2147483648	; 0x80000000
   daa10:	4332      	orrs	r2, r6
   daa12:	d036      	beq.n	daa82 <__ieee754_sqrt+0x12e>
   daa14:	2f00      	cmp	r7, #0
   daa16:	d14d      	bne.n	daab4 <__ieee754_sqrt+0x160>
   daa18:	4639      	mov	r1, r7
   daa1a:	0ae2      	lsrs	r2, r4, #11
   daa1c:	3915      	subs	r1, #21
   daa1e:	0564      	lsls	r4, r4, #21
   daa20:	4613      	mov	r3, r2
   daa22:	2a00      	cmp	r2, #0
   daa24:	d0f9      	beq.n	daa1a <__ieee754_sqrt+0xc6>
   daa26:	02d7      	lsls	r7, r2, #11
   daa28:	d451      	bmi.n	daace <__ieee754_sqrt+0x17a>
   daa2a:	2000      	movs	r0, #0
   daa2c:	005b      	lsls	r3, r3, #1
   daa2e:	02de      	lsls	r6, r3, #11
   daa30:	4605      	mov	r5, r0
   daa32:	f100 0001 	add.w	r0, r0, #1
   daa36:	d5f9      	bpl.n	daa2c <__ieee754_sqrt+0xd8>
   daa38:	461a      	mov	r2, r3
   daa3a:	4623      	mov	r3, r4
   daa3c:	4084      	lsls	r4, r0
   daa3e:	f1c0 0020 	rsb	r0, r0, #32
   daa42:	40c3      	lsrs	r3, r0
   daa44:	4313      	orrs	r3, r2
   daa46:	1b49      	subs	r1, r1, r5
   daa48:	e793      	b.n	da972 <__ieee754_sqrt+0x1e>
   daa4a:	42a1      	cmp	r1, r4
   daa4c:	d8be      	bhi.n	da9cc <__ieee754_sqrt+0x78>
   daa4e:	2900      	cmp	r1, #0
   daa50:	eb01 0502 	add.w	r5, r1, r2
   daa54:	dbd5      	blt.n	daa02 <__ieee754_sqrt+0xae>
   daa56:	4698      	mov	r8, r3
   daa58:	2300      	movs	r3, #0
   daa5a:	e7ce      	b.n	da9fa <__ieee754_sqrt+0xa6>
   daa5c:	4323      	orrs	r3, r4
   daa5e:	d112      	bne.n	daa86 <__ieee754_sqrt+0x132>
   daa60:	0878      	lsrs	r0, r7, #1
   daa62:	ea4f 016c 	mov.w	r1, ip, asr #1
   daa66:	f101 517f 	add.w	r1, r1, #1069547520	; 0x3fc00000
   daa6a:	f01c 0f01 	tst.w	ip, #1
   daa6e:	f501 1100 	add.w	r1, r1, #2097152	; 0x200000
   daa72:	bf18      	it	ne
   daa74:	f040 4000 	orrne.w	r0, r0, #2147483648	; 0x80000000
   daa78:	eb01 530e 	add.w	r3, r1, lr, lsl #20
   daa7c:	4602      	mov	r2, r0
   daa7e:	ec43 2b10 	vmov	d0, r2, r3
   daa82:	e8bd 81f0 	ldmia.w	sp!, {r4, r5, r6, r7, r8, pc}
   daa86:	1c7b      	adds	r3, r7, #1
   daa88:	bf16      	itet	ne
   daa8a:	1c78      	addne	r0, r7, #1
   daa8c:	f10c 0c01 	addeq.w	ip, ip, #1
   daa90:	0840      	lsrne	r0, r0, #1
   daa92:	e7e6      	b.n	daa62 <__ieee754_sqrt+0x10e>
   daa94:	ee10 2a10 	vmov	r2, s0
   daa98:	ee10 0a10 	vmov	r0, s0
   daa9c:	463b      	mov	r3, r7
   daa9e:	4639      	mov	r1, r7
   daaa0:	f000 f9da 	bl	dae58 <__aeabi_dmul>
   daaa4:	4632      	mov	r2, r6
   daaa6:	463b      	mov	r3, r7
   daaa8:	f000 f820 	bl	daaec <__adddf3>
   daaac:	ec41 0b10 	vmov	d0, r0, r1
   daab0:	e8bd 81f0 	ldmia.w	sp!, {r4, r5, r6, r7, r8, pc}
   daab4:	ee10 2a10 	vmov	r2, s0
   daab8:	4630      	mov	r0, r6
   daaba:	4639      	mov	r1, r7
   daabc:	f000 f814 	bl	daae8 <__aeabi_dsub>
   daac0:	4602      	mov	r2, r0
   daac2:	460b      	mov	r3, r1
   daac4:	f000 faf2 	bl	db0ac <__aeabi_ddiv>
   daac8:	ec41 0b10 	vmov	d0, r0, r1
   daacc:	e7d9      	b.n	daa82 <__ieee754_sqrt+0x12e>
   daace:	4623      	mov	r3, r4
   daad0:	2020      	movs	r0, #32
   daad2:	f04f 35ff 	mov.w	r5, #4294967295	; 0xffffffff
   daad6:	e7b4      	b.n	daa42 <__ieee754_sqrt+0xee>
   daad8:	7ff00000 	.word	0x7ff00000

000daadc <matherr>:
   daadc:	2000      	movs	r0, #0
   daade:	4770      	bx	lr

000daae0 <__aeabi_drsub>:
   daae0:	f081 4100 	eor.w	r1, r1, #2147483648	; 0x80000000
   daae4:	e002      	b.n	daaec <__adddf3>
   daae6:	bf00      	nop

000daae8 <__aeabi_dsub>:
   daae8:	f083 4300 	eor.w	r3, r3, #2147483648	; 0x80000000

000daaec <__adddf3>:
   daaec:	b530      	push	{r4, r5, lr}
   daaee:	ea4f 0441 	mov.w	r4, r1, lsl #1
   daaf2:	ea4f 0543 	mov.w	r5, r3, lsl #1
   daaf6:	ea94 0f05 	teq	r4, r5
   daafa:	bf08      	it	eq
   daafc:	ea90 0f02 	teqeq	r0, r2
   dab00:	bf1f      	itttt	ne
   dab02:	ea54 0c00 	orrsne.w	ip, r4, r0
   dab06:	ea55 0c02 	orrsne.w	ip, r5, r2
   dab0a:	ea7f 5c64 	mvnsne.w	ip, r4, asr #21
   dab0e:	ea7f 5c65 	mvnsne.w	ip, r5, asr #21
   dab12:	f000 80e2 	beq.w	dacda <__adddf3+0x1ee>
   dab16:	ea4f 5454 	mov.w	r4, r4, lsr #21
   dab1a:	ebd4 5555 	rsbs	r5, r4, r5, lsr #21
   dab1e:	bfb8      	it	lt
   dab20:	426d      	neglt	r5, r5
   dab22:	dd0c      	ble.n	dab3e <__adddf3+0x52>
   dab24:	442c      	add	r4, r5
   dab26:	ea80 0202 	eor.w	r2, r0, r2
   dab2a:	ea81 0303 	eor.w	r3, r1, r3
   dab2e:	ea82 0000 	eor.w	r0, r2, r0
   dab32:	ea83 0101 	eor.w	r1, r3, r1
   dab36:	ea80 0202 	eor.w	r2, r0, r2
   dab3a:	ea81 0303 	eor.w	r3, r1, r3
   dab3e:	2d36      	cmp	r5, #54	; 0x36
   dab40:	bf88      	it	hi
   dab42:	bd30      	pophi	{r4, r5, pc}
   dab44:	f011 4f00 	tst.w	r1, #2147483648	; 0x80000000
   dab48:	ea4f 3101 	mov.w	r1, r1, lsl #12
   dab4c:	f44f 1c80 	mov.w	ip, #1048576	; 0x100000
   dab50:	ea4c 3111 	orr.w	r1, ip, r1, lsr #12
   dab54:	d002      	beq.n	dab5c <__adddf3+0x70>
   dab56:	4240      	negs	r0, r0
   dab58:	eb61 0141 	sbc.w	r1, r1, r1, lsl #1
   dab5c:	f013 4f00 	tst.w	r3, #2147483648	; 0x80000000
   dab60:	ea4f 3303 	mov.w	r3, r3, lsl #12
   dab64:	ea4c 3313 	orr.w	r3, ip, r3, lsr #12
   dab68:	d002      	beq.n	dab70 <__adddf3+0x84>
   dab6a:	4252      	negs	r2, r2
   dab6c:	eb63 0343 	sbc.w	r3, r3, r3, lsl #1
   dab70:	ea94 0f05 	teq	r4, r5
   dab74:	f000 80a7 	beq.w	dacc6 <__adddf3+0x1da>
   dab78:	f1a4 0401 	sub.w	r4, r4, #1
   dab7c:	f1d5 0e20 	rsbs	lr, r5, #32
   dab80:	db0d      	blt.n	dab9e <__adddf3+0xb2>
   dab82:	fa02 fc0e 	lsl.w	ip, r2, lr
   dab86:	fa22 f205 	lsr.w	r2, r2, r5
   dab8a:	1880      	adds	r0, r0, r2
   dab8c:	f141 0100 	adc.w	r1, r1, #0
   dab90:	fa03 f20e 	lsl.w	r2, r3, lr
   dab94:	1880      	adds	r0, r0, r2
   dab96:	fa43 f305 	asr.w	r3, r3, r5
   dab9a:	4159      	adcs	r1, r3
   dab9c:	e00e      	b.n	dabbc <__adddf3+0xd0>
   dab9e:	f1a5 0520 	sub.w	r5, r5, #32
   daba2:	f10e 0e20 	add.w	lr, lr, #32
   daba6:	2a01      	cmp	r2, #1
   daba8:	fa03 fc0e 	lsl.w	ip, r3, lr
   dabac:	bf28      	it	cs
   dabae:	f04c 0c02 	orrcs.w	ip, ip, #2
   dabb2:	fa43 f305 	asr.w	r3, r3, r5
   dabb6:	18c0      	adds	r0, r0, r3
   dabb8:	eb51 71e3 	adcs.w	r1, r1, r3, asr #31
   dabbc:	f001 4500 	and.w	r5, r1, #2147483648	; 0x80000000
   dabc0:	d507      	bpl.n	dabd2 <__adddf3+0xe6>
   dabc2:	f04f 0e00 	mov.w	lr, #0
   dabc6:	f1dc 0c00 	rsbs	ip, ip, #0
   dabca:	eb7e 0000 	sbcs.w	r0, lr, r0
   dabce:	eb6e 0101 	sbc.w	r1, lr, r1
   dabd2:	f5b1 1f80 	cmp.w	r1, #1048576	; 0x100000
   dabd6:	d31b      	bcc.n	dac10 <__adddf3+0x124>
   dabd8:	f5b1 1f00 	cmp.w	r1, #2097152	; 0x200000
   dabdc:	d30c      	bcc.n	dabf8 <__adddf3+0x10c>
   dabde:	0849      	lsrs	r1, r1, #1
   dabe0:	ea5f 0030 	movs.w	r0, r0, rrx
   dabe4:	ea4f 0c3c 	mov.w	ip, ip, rrx
   dabe8:	f104 0401 	add.w	r4, r4, #1
   dabec:	ea4f 5244 	mov.w	r2, r4, lsl #21
   dabf0:	f512 0f80 	cmn.w	r2, #4194304	; 0x400000
   dabf4:	f080 809a 	bcs.w	dad2c <__adddf3+0x240>
   dabf8:	f1bc 4f00 	cmp.w	ip, #2147483648	; 0x80000000
   dabfc:	bf08      	it	eq
   dabfe:	ea5f 0c50 	movseq.w	ip, r0, lsr #1
   dac02:	f150 0000 	adcs.w	r0, r0, #0
   dac06:	eb41 5104 	adc.w	r1, r1, r4, lsl #20
   dac0a:	ea41 0105 	orr.w	r1, r1, r5
   dac0e:	bd30      	pop	{r4, r5, pc}
   dac10:	ea5f 0c4c 	movs.w	ip, ip, lsl #1
   dac14:	4140      	adcs	r0, r0
   dac16:	eb41 0101 	adc.w	r1, r1, r1
   dac1a:	3c01      	subs	r4, #1
   dac1c:	bf28      	it	cs
   dac1e:	f5b1 1f80 	cmpcs.w	r1, #1048576	; 0x100000
   dac22:	d2e9      	bcs.n	dabf8 <__adddf3+0x10c>
   dac24:	f091 0f00 	teq	r1, #0
   dac28:	bf04      	itt	eq
   dac2a:	4601      	moveq	r1, r0
   dac2c:	2000      	moveq	r0, #0
   dac2e:	fab1 f381 	clz	r3, r1
   dac32:	bf08      	it	eq
   dac34:	3320      	addeq	r3, #32
   dac36:	f1a3 030b 	sub.w	r3, r3, #11
   dac3a:	f1b3 0220 	subs.w	r2, r3, #32
   dac3e:	da0c      	bge.n	dac5a <__adddf3+0x16e>
   dac40:	320c      	adds	r2, #12
   dac42:	dd08      	ble.n	dac56 <__adddf3+0x16a>
   dac44:	f102 0c14 	add.w	ip, r2, #20
   dac48:	f1c2 020c 	rsb	r2, r2, #12
   dac4c:	fa01 f00c 	lsl.w	r0, r1, ip
   dac50:	fa21 f102 	lsr.w	r1, r1, r2
   dac54:	e00c      	b.n	dac70 <__adddf3+0x184>
   dac56:	f102 0214 	add.w	r2, r2, #20
   dac5a:	bfd8      	it	le
   dac5c:	f1c2 0c20 	rsble	ip, r2, #32
   dac60:	fa01 f102 	lsl.w	r1, r1, r2
   dac64:	fa20 fc0c 	lsr.w	ip, r0, ip
   dac68:	bfdc      	itt	le
   dac6a:	ea41 010c 	orrle.w	r1, r1, ip
   dac6e:	4090      	lslle	r0, r2
   dac70:	1ae4      	subs	r4, r4, r3
   dac72:	bfa2      	ittt	ge
   dac74:	eb01 5104 	addge.w	r1, r1, r4, lsl #20
   dac78:	4329      	orrge	r1, r5
   dac7a:	bd30      	popge	{r4, r5, pc}
   dac7c:	ea6f 0404 	mvn.w	r4, r4
   dac80:	3c1f      	subs	r4, #31
   dac82:	da1c      	bge.n	dacbe <__adddf3+0x1d2>
   dac84:	340c      	adds	r4, #12
   dac86:	dc0e      	bgt.n	daca6 <__adddf3+0x1ba>
   dac88:	f104 0414 	add.w	r4, r4, #20
   dac8c:	f1c4 0220 	rsb	r2, r4, #32
   dac90:	fa20 f004 	lsr.w	r0, r0, r4
   dac94:	fa01 f302 	lsl.w	r3, r1, r2
   dac98:	ea40 0003 	orr.w	r0, r0, r3
   dac9c:	fa21 f304 	lsr.w	r3, r1, r4
   daca0:	ea45 0103 	orr.w	r1, r5, r3
   daca4:	bd30      	pop	{r4, r5, pc}
   daca6:	f1c4 040c 	rsb	r4, r4, #12
   dacaa:	f1c4 0220 	rsb	r2, r4, #32
   dacae:	fa20 f002 	lsr.w	r0, r0, r2
   dacb2:	fa01 f304 	lsl.w	r3, r1, r4
   dacb6:	ea40 0003 	orr.w	r0, r0, r3
   dacba:	4629      	mov	r1, r5
   dacbc:	bd30      	pop	{r4, r5, pc}
   dacbe:	fa21 f004 	lsr.w	r0, r1, r4
   dacc2:	4629      	mov	r1, r5
   dacc4:	bd30      	pop	{r4, r5, pc}
   dacc6:	f094 0f00 	teq	r4, #0
   dacca:	f483 1380 	eor.w	r3, r3, #1048576	; 0x100000
   dacce:	bf06      	itte	eq
   dacd0:	f481 1180 	eoreq.w	r1, r1, #1048576	; 0x100000
   dacd4:	3401      	addeq	r4, #1
   dacd6:	3d01      	subne	r5, #1
   dacd8:	e74e      	b.n	dab78 <__adddf3+0x8c>
   dacda:	ea7f 5c64 	mvns.w	ip, r4, asr #21
   dacde:	bf18      	it	ne
   dace0:	ea7f 5c65 	mvnsne.w	ip, r5, asr #21
   dace4:	d029      	beq.n	dad3a <__adddf3+0x24e>
   dace6:	ea94 0f05 	teq	r4, r5
   dacea:	bf08      	it	eq
   dacec:	ea90 0f02 	teqeq	r0, r2
   dacf0:	d005      	beq.n	dacfe <__adddf3+0x212>
   dacf2:	ea54 0c00 	orrs.w	ip, r4, r0
   dacf6:	bf04      	itt	eq
   dacf8:	4619      	moveq	r1, r3
   dacfa:	4610      	moveq	r0, r2
   dacfc:	bd30      	pop	{r4, r5, pc}
   dacfe:	ea91 0f03 	teq	r1, r3
   dad02:	bf1e      	ittt	ne
   dad04:	2100      	movne	r1, #0
   dad06:	2000      	movne	r0, #0
   dad08:	bd30      	popne	{r4, r5, pc}
   dad0a:	ea5f 5c54 	movs.w	ip, r4, lsr #21
   dad0e:	d105      	bne.n	dad1c <__adddf3+0x230>
   dad10:	0040      	lsls	r0, r0, #1
   dad12:	4149      	adcs	r1, r1
   dad14:	bf28      	it	cs
   dad16:	f041 4100 	orrcs.w	r1, r1, #2147483648	; 0x80000000
   dad1a:	bd30      	pop	{r4, r5, pc}
   dad1c:	f514 0480 	adds.w	r4, r4, #4194304	; 0x400000
   dad20:	bf3c      	itt	cc
   dad22:	f501 1180 	addcc.w	r1, r1, #1048576	; 0x100000
   dad26:	bd30      	popcc	{r4, r5, pc}
   dad28:	f001 4500 	and.w	r5, r1, #2147483648	; 0x80000000
   dad2c:	f045 41fe 	orr.w	r1, r5, #2130706432	; 0x7f000000
   dad30:	f441 0170 	orr.w	r1, r1, #15728640	; 0xf00000
   dad34:	f04f 0000 	mov.w	r0, #0
   dad38:	bd30      	pop	{r4, r5, pc}
   dad3a:	ea7f 5c64 	mvns.w	ip, r4, asr #21
   dad3e:	bf1a      	itte	ne
   dad40:	4619      	movne	r1, r3
   dad42:	4610      	movne	r0, r2
   dad44:	ea7f 5c65 	mvnseq.w	ip, r5, asr #21
   dad48:	bf1c      	itt	ne
   dad4a:	460b      	movne	r3, r1
   dad4c:	4602      	movne	r2, r0
   dad4e:	ea50 3401 	orrs.w	r4, r0, r1, lsl #12
   dad52:	bf06      	itte	eq
   dad54:	ea52 3503 	orrseq.w	r5, r2, r3, lsl #12
   dad58:	ea91 0f03 	teqeq	r1, r3
   dad5c:	f441 2100 	orrne.w	r1, r1, #524288	; 0x80000
   dad60:	bd30      	pop	{r4, r5, pc}
   dad62:	bf00      	nop

000dad64 <__aeabi_ui2d>:
   dad64:	f090 0f00 	teq	r0, #0
   dad68:	bf04      	itt	eq
   dad6a:	2100      	moveq	r1, #0
   dad6c:	4770      	bxeq	lr
   dad6e:	b530      	push	{r4, r5, lr}
   dad70:	f44f 6480 	mov.w	r4, #1024	; 0x400
   dad74:	f104 0432 	add.w	r4, r4, #50	; 0x32
   dad78:	f04f 0500 	mov.w	r5, #0
   dad7c:	f04f 0100 	mov.w	r1, #0
   dad80:	e750      	b.n	dac24 <__adddf3+0x138>
   dad82:	bf00      	nop

000dad84 <__aeabi_i2d>:
   dad84:	f090 0f00 	teq	r0, #0
   dad88:	bf04      	itt	eq
   dad8a:	2100      	moveq	r1, #0
   dad8c:	4770      	bxeq	lr
   dad8e:	b530      	push	{r4, r5, lr}
   dad90:	f44f 6480 	mov.w	r4, #1024	; 0x400
   dad94:	f104 0432 	add.w	r4, r4, #50	; 0x32
   dad98:	f010 4500 	ands.w	r5, r0, #2147483648	; 0x80000000
   dad9c:	bf48      	it	mi
   dad9e:	4240      	negmi	r0, r0
   dada0:	f04f 0100 	mov.w	r1, #0
   dada4:	e73e      	b.n	dac24 <__adddf3+0x138>
   dada6:	bf00      	nop

000dada8 <__aeabi_f2d>:
   dada8:	0042      	lsls	r2, r0, #1
   dadaa:	ea4f 01e2 	mov.w	r1, r2, asr #3
   dadae:	ea4f 0131 	mov.w	r1, r1, rrx
   dadb2:	ea4f 7002 	mov.w	r0, r2, lsl #28
   dadb6:	bf1f      	itttt	ne
   dadb8:	f012 437f 	andsne.w	r3, r2, #4278190080	; 0xff000000
   dadbc:	f093 4f7f 	teqne	r3, #4278190080	; 0xff000000
   dadc0:	f081 5160 	eorne.w	r1, r1, #939524096	; 0x38000000
   dadc4:	4770      	bxne	lr
   dadc6:	f032 427f 	bics.w	r2, r2, #4278190080	; 0xff000000
   dadca:	bf08      	it	eq
   dadcc:	4770      	bxeq	lr
   dadce:	f093 4f7f 	teq	r3, #4278190080	; 0xff000000
   dadd2:	bf04      	itt	eq
   dadd4:	f441 2100 	orreq.w	r1, r1, #524288	; 0x80000
   dadd8:	4770      	bxeq	lr
   dadda:	b530      	push	{r4, r5, lr}
   daddc:	f44f 7460 	mov.w	r4, #896	; 0x380
   dade0:	f001 4500 	and.w	r5, r1, #2147483648	; 0x80000000
   dade4:	f021 4100 	bic.w	r1, r1, #2147483648	; 0x80000000
   dade8:	e71c      	b.n	dac24 <__adddf3+0x138>
   dadea:	bf00      	nop

000dadec <__aeabi_ul2d>:
   dadec:	ea50 0201 	orrs.w	r2, r0, r1
   dadf0:	bf08      	it	eq
   dadf2:	4770      	bxeq	lr
   dadf4:	b530      	push	{r4, r5, lr}
   dadf6:	f04f 0500 	mov.w	r5, #0
   dadfa:	e00a      	b.n	dae12 <__aeabi_l2d+0x16>

000dadfc <__aeabi_l2d>:
   dadfc:	ea50 0201 	orrs.w	r2, r0, r1
   dae00:	bf08      	it	eq
   dae02:	4770      	bxeq	lr
   dae04:	b530      	push	{r4, r5, lr}
   dae06:	f011 4500 	ands.w	r5, r1, #2147483648	; 0x80000000
   dae0a:	d502      	bpl.n	dae12 <__aeabi_l2d+0x16>
   dae0c:	4240      	negs	r0, r0
   dae0e:	eb61 0141 	sbc.w	r1, r1, r1, lsl #1
   dae12:	f44f 6480 	mov.w	r4, #1024	; 0x400
   dae16:	f104 0432 	add.w	r4, r4, #50	; 0x32
   dae1a:	ea5f 5c91 	movs.w	ip, r1, lsr #22
   dae1e:	f43f aed8 	beq.w	dabd2 <__adddf3+0xe6>
   dae22:	f04f 0203 	mov.w	r2, #3
   dae26:	ea5f 0cdc 	movs.w	ip, ip, lsr #3
   dae2a:	bf18      	it	ne
   dae2c:	3203      	addne	r2, #3
   dae2e:	ea5f 0cdc 	movs.w	ip, ip, lsr #3
   dae32:	bf18      	it	ne
   dae34:	3203      	addne	r2, #3
   dae36:	eb02 02dc 	add.w	r2, r2, ip, lsr #3
   dae3a:	f1c2 0320 	rsb	r3, r2, #32
   dae3e:	fa00 fc03 	lsl.w	ip, r0, r3
   dae42:	fa20 f002 	lsr.w	r0, r0, r2
   dae46:	fa01 fe03 	lsl.w	lr, r1, r3
   dae4a:	ea40 000e 	orr.w	r0, r0, lr
   dae4e:	fa21 f102 	lsr.w	r1, r1, r2
   dae52:	4414      	add	r4, r2
   dae54:	e6bd      	b.n	dabd2 <__adddf3+0xe6>
   dae56:	bf00      	nop

000dae58 <__aeabi_dmul>:
   dae58:	b570      	push	{r4, r5, r6, lr}
   dae5a:	f04f 0cff 	mov.w	ip, #255	; 0xff
   dae5e:	f44c 6ce0 	orr.w	ip, ip, #1792	; 0x700
   dae62:	ea1c 5411 	ands.w	r4, ip, r1, lsr #20
   dae66:	bf1d      	ittte	ne
   dae68:	ea1c 5513 	andsne.w	r5, ip, r3, lsr #20
   dae6c:	ea94 0f0c 	teqne	r4, ip
   dae70:	ea95 0f0c 	teqne	r5, ip
   dae74:	f000 f8de 	bleq	db034 <__aeabi_dmul+0x1dc>
   dae78:	442c      	add	r4, r5
   dae7a:	ea81 0603 	eor.w	r6, r1, r3
   dae7e:	ea21 514c 	bic.w	r1, r1, ip, lsl #21
   dae82:	ea23 534c 	bic.w	r3, r3, ip, lsl #21
   dae86:	ea50 3501 	orrs.w	r5, r0, r1, lsl #12
   dae8a:	bf18      	it	ne
   dae8c:	ea52 3503 	orrsne.w	r5, r2, r3, lsl #12
   dae90:	f441 1180 	orr.w	r1, r1, #1048576	; 0x100000
   dae94:	f443 1380 	orr.w	r3, r3, #1048576	; 0x100000
   dae98:	d038      	beq.n	daf0c <__aeabi_dmul+0xb4>
   dae9a:	fba0 ce02 	umull	ip, lr, r0, r2
   dae9e:	f04f 0500 	mov.w	r5, #0
   daea2:	fbe1 e502 	umlal	lr, r5, r1, r2
   daea6:	f006 4200 	and.w	r2, r6, #2147483648	; 0x80000000
   daeaa:	fbe0 e503 	umlal	lr, r5, r0, r3
   daeae:	f04f 0600 	mov.w	r6, #0
   daeb2:	fbe1 5603 	umlal	r5, r6, r1, r3
   daeb6:	f09c 0f00 	teq	ip, #0
   daeba:	bf18      	it	ne
   daebc:	f04e 0e01 	orrne.w	lr, lr, #1
   daec0:	f1a4 04ff 	sub.w	r4, r4, #255	; 0xff
   daec4:	f5b6 7f00 	cmp.w	r6, #512	; 0x200
   daec8:	f564 7440 	sbc.w	r4, r4, #768	; 0x300
   daecc:	d204      	bcs.n	daed8 <__aeabi_dmul+0x80>
   daece:	ea5f 0e4e 	movs.w	lr, lr, lsl #1
   daed2:	416d      	adcs	r5, r5
   daed4:	eb46 0606 	adc.w	r6, r6, r6
   daed8:	ea42 21c6 	orr.w	r1, r2, r6, lsl #11
   daedc:	ea41 5155 	orr.w	r1, r1, r5, lsr #21
   daee0:	ea4f 20c5 	mov.w	r0, r5, lsl #11
   daee4:	ea40 505e 	orr.w	r0, r0, lr, lsr #21
   daee8:	ea4f 2ece 	mov.w	lr, lr, lsl #11
   daeec:	f1b4 0cfd 	subs.w	ip, r4, #253	; 0xfd
   daef0:	bf88      	it	hi
   daef2:	f5bc 6fe0 	cmphi.w	ip, #1792	; 0x700
   daef6:	d81e      	bhi.n	daf36 <__aeabi_dmul+0xde>
   daef8:	f1be 4f00 	cmp.w	lr, #2147483648	; 0x80000000
   daefc:	bf08      	it	eq
   daefe:	ea5f 0e50 	movseq.w	lr, r0, lsr #1
   daf02:	f150 0000 	adcs.w	r0, r0, #0
   daf06:	eb41 5104 	adc.w	r1, r1, r4, lsl #20
   daf0a:	bd70      	pop	{r4, r5, r6, pc}
   daf0c:	f006 4600 	and.w	r6, r6, #2147483648	; 0x80000000
   daf10:	ea46 0101 	orr.w	r1, r6, r1
   daf14:	ea40 0002 	orr.w	r0, r0, r2
   daf18:	ea81 0103 	eor.w	r1, r1, r3
   daf1c:	ebb4 045c 	subs.w	r4, r4, ip, lsr #1
   daf20:	bfc2      	ittt	gt
   daf22:	ebd4 050c 	rsbsgt	r5, r4, ip
   daf26:	ea41 5104 	orrgt.w	r1, r1, r4, lsl #20
   daf2a:	bd70      	popgt	{r4, r5, r6, pc}
   daf2c:	f441 1180 	orr.w	r1, r1, #1048576	; 0x100000
   daf30:	f04f 0e00 	mov.w	lr, #0
   daf34:	3c01      	subs	r4, #1
   daf36:	f300 80ab 	bgt.w	db090 <__aeabi_dmul+0x238>
   daf3a:	f114 0f36 	cmn.w	r4, #54	; 0x36
   daf3e:	bfde      	ittt	le
   daf40:	2000      	movle	r0, #0
   daf42:	f001 4100 	andle.w	r1, r1, #2147483648	; 0x80000000
   daf46:	bd70      	pople	{r4, r5, r6, pc}
   daf48:	f1c4 0400 	rsb	r4, r4, #0
   daf4c:	3c20      	subs	r4, #32
   daf4e:	da35      	bge.n	dafbc <__aeabi_dmul+0x164>
   daf50:	340c      	adds	r4, #12
   daf52:	dc1b      	bgt.n	daf8c <__aeabi_dmul+0x134>
   daf54:	f104 0414 	add.w	r4, r4, #20
   daf58:	f1c4 0520 	rsb	r5, r4, #32
   daf5c:	fa00 f305 	lsl.w	r3, r0, r5
   daf60:	fa20 f004 	lsr.w	r0, r0, r4
   daf64:	fa01 f205 	lsl.w	r2, r1, r5
   daf68:	ea40 0002 	orr.w	r0, r0, r2
   daf6c:	f001 4200 	and.w	r2, r1, #2147483648	; 0x80000000
   daf70:	f021 4100 	bic.w	r1, r1, #2147483648	; 0x80000000
   daf74:	eb10 70d3 	adds.w	r0, r0, r3, lsr #31
   daf78:	fa21 f604 	lsr.w	r6, r1, r4
   daf7c:	eb42 0106 	adc.w	r1, r2, r6
   daf80:	ea5e 0e43 	orrs.w	lr, lr, r3, lsl #1
   daf84:	bf08      	it	eq
   daf86:	ea20 70d3 	biceq.w	r0, r0, r3, lsr #31
   daf8a:	bd70      	pop	{r4, r5, r6, pc}
   daf8c:	f1c4 040c 	rsb	r4, r4, #12
   daf90:	f1c4 0520 	rsb	r5, r4, #32
   daf94:	fa00 f304 	lsl.w	r3, r0, r4
   daf98:	fa20 f005 	lsr.w	r0, r0, r5
   daf9c:	fa01 f204 	lsl.w	r2, r1, r4
   dafa0:	ea40 0002 	orr.w	r0, r0, r2
   dafa4:	f001 4100 	and.w	r1, r1, #2147483648	; 0x80000000
   dafa8:	eb10 70d3 	adds.w	r0, r0, r3, lsr #31
   dafac:	f141 0100 	adc.w	r1, r1, #0
   dafb0:	ea5e 0e43 	orrs.w	lr, lr, r3, lsl #1
   dafb4:	bf08      	it	eq
   dafb6:	ea20 70d3 	biceq.w	r0, r0, r3, lsr #31
   dafba:	bd70      	pop	{r4, r5, r6, pc}
   dafbc:	f1c4 0520 	rsb	r5, r4, #32
   dafc0:	fa00 f205 	lsl.w	r2, r0, r5
   dafc4:	ea4e 0e02 	orr.w	lr, lr, r2
   dafc8:	fa20 f304 	lsr.w	r3, r0, r4
   dafcc:	fa01 f205 	lsl.w	r2, r1, r5
   dafd0:	ea43 0302 	orr.w	r3, r3, r2
   dafd4:	fa21 f004 	lsr.w	r0, r1, r4
   dafd8:	f001 4100 	and.w	r1, r1, #2147483648	; 0x80000000
   dafdc:	fa21 f204 	lsr.w	r2, r1, r4
   dafe0:	ea20 0002 	bic.w	r0, r0, r2
   dafe4:	eb00 70d3 	add.w	r0, r0, r3, lsr #31
   dafe8:	ea5e 0e43 	orrs.w	lr, lr, r3, lsl #1
   dafec:	bf08      	it	eq
   dafee:	ea20 70d3 	biceq.w	r0, r0, r3, lsr #31
   daff2:	bd70      	pop	{r4, r5, r6, pc}
   daff4:	f094 0f00 	teq	r4, #0
   daff8:	d10f      	bne.n	db01a <__aeabi_dmul+0x1c2>
   daffa:	f001 4600 	and.w	r6, r1, #2147483648	; 0x80000000
   daffe:	0040      	lsls	r0, r0, #1
   db000:	eb41 0101 	adc.w	r1, r1, r1
   db004:	f411 1f80 	tst.w	r1, #1048576	; 0x100000
   db008:	bf08      	it	eq
   db00a:	3c01      	subeq	r4, #1
   db00c:	d0f7      	beq.n	daffe <__aeabi_dmul+0x1a6>
   db00e:	ea41 0106 	orr.w	r1, r1, r6
   db012:	f095 0f00 	teq	r5, #0
   db016:	bf18      	it	ne
   db018:	4770      	bxne	lr
   db01a:	f003 4600 	and.w	r6, r3, #2147483648	; 0x80000000
   db01e:	0052      	lsls	r2, r2, #1
   db020:	eb43 0303 	adc.w	r3, r3, r3
   db024:	f413 1f80 	tst.w	r3, #1048576	; 0x100000
   db028:	bf08      	it	eq
   db02a:	3d01      	subeq	r5, #1
   db02c:	d0f7      	beq.n	db01e <__aeabi_dmul+0x1c6>
   db02e:	ea43 0306 	orr.w	r3, r3, r6
   db032:	4770      	bx	lr
   db034:	ea94 0f0c 	teq	r4, ip
   db038:	ea0c 5513 	and.w	r5, ip, r3, lsr #20
   db03c:	bf18      	it	ne
   db03e:	ea95 0f0c 	teqne	r5, ip
   db042:	d00c      	beq.n	db05e <__aeabi_dmul+0x206>
   db044:	ea50 0641 	orrs.w	r6, r0, r1, lsl #1
   db048:	bf18      	it	ne
   db04a:	ea52 0643 	orrsne.w	r6, r2, r3, lsl #1
   db04e:	d1d1      	bne.n	daff4 <__aeabi_dmul+0x19c>
   db050:	ea81 0103 	eor.w	r1, r1, r3
   db054:	f001 4100 	and.w	r1, r1, #2147483648	; 0x80000000
   db058:	f04f 0000 	mov.w	r0, #0
   db05c:	bd70      	pop	{r4, r5, r6, pc}
   db05e:	ea50 0641 	orrs.w	r6, r0, r1, lsl #1
   db062:	bf06      	itte	eq
   db064:	4610      	moveq	r0, r2
   db066:	4619      	moveq	r1, r3
   db068:	ea52 0643 	orrsne.w	r6, r2, r3, lsl #1
   db06c:	d019      	beq.n	db0a2 <__aeabi_dmul+0x24a>
   db06e:	ea94 0f0c 	teq	r4, ip
   db072:	d102      	bne.n	db07a <__aeabi_dmul+0x222>
   db074:	ea50 3601 	orrs.w	r6, r0, r1, lsl #12
   db078:	d113      	bne.n	db0a2 <__aeabi_dmul+0x24a>
   db07a:	ea95 0f0c 	teq	r5, ip
   db07e:	d105      	bne.n	db08c <__aeabi_dmul+0x234>
   db080:	ea52 3603 	orrs.w	r6, r2, r3, lsl #12
   db084:	bf1c      	itt	ne
   db086:	4610      	movne	r0, r2
   db088:	4619      	movne	r1, r3
   db08a:	d10a      	bne.n	db0a2 <__aeabi_dmul+0x24a>
   db08c:	ea81 0103 	eor.w	r1, r1, r3
   db090:	f001 4100 	and.w	r1, r1, #2147483648	; 0x80000000
   db094:	f041 41fe 	orr.w	r1, r1, #2130706432	; 0x7f000000
   db098:	f441 0170 	orr.w	r1, r1, #15728640	; 0xf00000
   db09c:	f04f 0000 	mov.w	r0, #0
   db0a0:	bd70      	pop	{r4, r5, r6, pc}
   db0a2:	f041 41fe 	orr.w	r1, r1, #2130706432	; 0x7f000000
   db0a6:	f441 0178 	orr.w	r1, r1, #16252928	; 0xf80000
   db0aa:	bd70      	pop	{r4, r5, r6, pc}

000db0ac <__aeabi_ddiv>:
   db0ac:	b570      	push	{r4, r5, r6, lr}
   db0ae:	f04f 0cff 	mov.w	ip, #255	; 0xff
   db0b2:	f44c 6ce0 	orr.w	ip, ip, #1792	; 0x700
   db0b6:	ea1c 5411 	ands.w	r4, ip, r1, lsr #20
   db0ba:	bf1d      	ittte	ne
   db0bc:	ea1c 5513 	andsne.w	r5, ip, r3, lsr #20
   db0c0:	ea94 0f0c 	teqne	r4, ip
   db0c4:	ea95 0f0c 	teqne	r5, ip
   db0c8:	f000 f8a7 	bleq	db21a <__aeabi_ddiv+0x16e>
   db0cc:	eba4 0405 	sub.w	r4, r4, r5
   db0d0:	ea81 0e03 	eor.w	lr, r1, r3
   db0d4:	ea52 3503 	orrs.w	r5, r2, r3, lsl #12
   db0d8:	ea4f 3101 	mov.w	r1, r1, lsl #12
   db0dc:	f000 8088 	beq.w	db1f0 <__aeabi_ddiv+0x144>
   db0e0:	ea4f 3303 	mov.w	r3, r3, lsl #12
   db0e4:	f04f 5580 	mov.w	r5, #268435456	; 0x10000000
   db0e8:	ea45 1313 	orr.w	r3, r5, r3, lsr #4
   db0ec:	ea43 6312 	orr.w	r3, r3, r2, lsr #24
   db0f0:	ea4f 2202 	mov.w	r2, r2, lsl #8
   db0f4:	ea45 1511 	orr.w	r5, r5, r1, lsr #4
   db0f8:	ea45 6510 	orr.w	r5, r5, r0, lsr #24
   db0fc:	ea4f 2600 	mov.w	r6, r0, lsl #8
   db100:	f00e 4100 	and.w	r1, lr, #2147483648	; 0x80000000
   db104:	429d      	cmp	r5, r3
   db106:	bf08      	it	eq
   db108:	4296      	cmpeq	r6, r2
   db10a:	f144 04fd 	adc.w	r4, r4, #253	; 0xfd
   db10e:	f504 7440 	add.w	r4, r4, #768	; 0x300
   db112:	d202      	bcs.n	db11a <__aeabi_ddiv+0x6e>
   db114:	085b      	lsrs	r3, r3, #1
   db116:	ea4f 0232 	mov.w	r2, r2, rrx
   db11a:	1ab6      	subs	r6, r6, r2
   db11c:	eb65 0503 	sbc.w	r5, r5, r3
   db120:	085b      	lsrs	r3, r3, #1
   db122:	ea4f 0232 	mov.w	r2, r2, rrx
   db126:	f44f 1080 	mov.w	r0, #1048576	; 0x100000
   db12a:	f44f 2c00 	mov.w	ip, #524288	; 0x80000
   db12e:	ebb6 0e02 	subs.w	lr, r6, r2
   db132:	eb75 0e03 	sbcs.w	lr, r5, r3
   db136:	bf22      	ittt	cs
   db138:	1ab6      	subcs	r6, r6, r2
   db13a:	4675      	movcs	r5, lr
   db13c:	ea40 000c 	orrcs.w	r0, r0, ip
   db140:	085b      	lsrs	r3, r3, #1
   db142:	ea4f 0232 	mov.w	r2, r2, rrx
   db146:	ebb6 0e02 	subs.w	lr, r6, r2
   db14a:	eb75 0e03 	sbcs.w	lr, r5, r3
   db14e:	bf22      	ittt	cs
   db150:	1ab6      	subcs	r6, r6, r2
   db152:	4675      	movcs	r5, lr
   db154:	ea40 005c 	orrcs.w	r0, r0, ip, lsr #1
   db158:	085b      	lsrs	r3, r3, #1
   db15a:	ea4f 0232 	mov.w	r2, r2, rrx
   db15e:	ebb6 0e02 	subs.w	lr, r6, r2
   db162:	eb75 0e03 	sbcs.w	lr, r5, r3
   db166:	bf22      	ittt	cs
   db168:	1ab6      	subcs	r6, r6, r2
   db16a:	4675      	movcs	r5, lr
   db16c:	ea40 009c 	orrcs.w	r0, r0, ip, lsr #2
   db170:	085b      	lsrs	r3, r3, #1
   db172:	ea4f 0232 	mov.w	r2, r2, rrx
   db176:	ebb6 0e02 	subs.w	lr, r6, r2
   db17a:	eb75 0e03 	sbcs.w	lr, r5, r3
   db17e:	bf22      	ittt	cs
   db180:	1ab6      	subcs	r6, r6, r2
   db182:	4675      	movcs	r5, lr
   db184:	ea40 00dc 	orrcs.w	r0, r0, ip, lsr #3
   db188:	ea55 0e06 	orrs.w	lr, r5, r6
   db18c:	d018      	beq.n	db1c0 <__aeabi_ddiv+0x114>
   db18e:	ea4f 1505 	mov.w	r5, r5, lsl #4
   db192:	ea45 7516 	orr.w	r5, r5, r6, lsr #28
   db196:	ea4f 1606 	mov.w	r6, r6, lsl #4
   db19a:	ea4f 03c3 	mov.w	r3, r3, lsl #3
   db19e:	ea43 7352 	orr.w	r3, r3, r2, lsr #29
   db1a2:	ea4f 02c2 	mov.w	r2, r2, lsl #3
   db1a6:	ea5f 1c1c 	movs.w	ip, ip, lsr #4
   db1aa:	d1c0      	bne.n	db12e <__aeabi_ddiv+0x82>
   db1ac:	f411 1f80 	tst.w	r1, #1048576	; 0x100000
   db1b0:	d10b      	bne.n	db1ca <__aeabi_ddiv+0x11e>
   db1b2:	ea41 0100 	orr.w	r1, r1, r0
   db1b6:	f04f 0000 	mov.w	r0, #0
   db1ba:	f04f 4c00 	mov.w	ip, #2147483648	; 0x80000000
   db1be:	e7b6      	b.n	db12e <__aeabi_ddiv+0x82>
   db1c0:	f411 1f80 	tst.w	r1, #1048576	; 0x100000
   db1c4:	bf04      	itt	eq
   db1c6:	4301      	orreq	r1, r0
   db1c8:	2000      	moveq	r0, #0
   db1ca:	f1b4 0cfd 	subs.w	ip, r4, #253	; 0xfd
   db1ce:	bf88      	it	hi
   db1d0:	f5bc 6fe0 	cmphi.w	ip, #1792	; 0x700
   db1d4:	f63f aeaf 	bhi.w	daf36 <__aeabi_dmul+0xde>
   db1d8:	ebb5 0c03 	subs.w	ip, r5, r3
   db1dc:	bf04      	itt	eq
   db1de:	ebb6 0c02 	subseq.w	ip, r6, r2
   db1e2:	ea5f 0c50 	movseq.w	ip, r0, lsr #1
   db1e6:	f150 0000 	adcs.w	r0, r0, #0
   db1ea:	eb41 5104 	adc.w	r1, r1, r4, lsl #20
   db1ee:	bd70      	pop	{r4, r5, r6, pc}
   db1f0:	f00e 4e00 	and.w	lr, lr, #2147483648	; 0x80000000
   db1f4:	ea4e 3111 	orr.w	r1, lr, r1, lsr #12
   db1f8:	eb14 045c 	adds.w	r4, r4, ip, lsr #1
   db1fc:	bfc2      	ittt	gt
   db1fe:	ebd4 050c 	rsbsgt	r5, r4, ip
   db202:	ea41 5104 	orrgt.w	r1, r1, r4, lsl #20
   db206:	bd70      	popgt	{r4, r5, r6, pc}
   db208:	f441 1180 	orr.w	r1, r1, #1048576	; 0x100000
   db20c:	f04f 0e00 	mov.w	lr, #0
   db210:	3c01      	subs	r4, #1
   db212:	e690      	b.n	daf36 <__aeabi_dmul+0xde>
   db214:	ea45 0e06 	orr.w	lr, r5, r6
   db218:	e68d      	b.n	daf36 <__aeabi_dmul+0xde>
   db21a:	ea0c 5513 	and.w	r5, ip, r3, lsr #20
   db21e:	ea94 0f0c 	teq	r4, ip
   db222:	bf08      	it	eq
   db224:	ea95 0f0c 	teqeq	r5, ip
   db228:	f43f af3b 	beq.w	db0a2 <__aeabi_dmul+0x24a>
   db22c:	ea94 0f0c 	teq	r4, ip
   db230:	d10a      	bne.n	db248 <__aeabi_ddiv+0x19c>
   db232:	ea50 3401 	orrs.w	r4, r0, r1, lsl #12
   db236:	f47f af34 	bne.w	db0a2 <__aeabi_dmul+0x24a>
   db23a:	ea95 0f0c 	teq	r5, ip
   db23e:	f47f af25 	bne.w	db08c <__aeabi_dmul+0x234>
   db242:	4610      	mov	r0, r2
   db244:	4619      	mov	r1, r3
   db246:	e72c      	b.n	db0a2 <__aeabi_dmul+0x24a>
   db248:	ea95 0f0c 	teq	r5, ip
   db24c:	d106      	bne.n	db25c <__aeabi_ddiv+0x1b0>
   db24e:	ea52 3503 	orrs.w	r5, r2, r3, lsl #12
   db252:	f43f aefd 	beq.w	db050 <__aeabi_dmul+0x1f8>
   db256:	4610      	mov	r0, r2
   db258:	4619      	mov	r1, r3
   db25a:	e722      	b.n	db0a2 <__aeabi_dmul+0x24a>
   db25c:	ea50 0641 	orrs.w	r6, r0, r1, lsl #1
   db260:	bf18      	it	ne
   db262:	ea52 0643 	orrsne.w	r6, r2, r3, lsl #1
   db266:	f47f aec5 	bne.w	daff4 <__aeabi_dmul+0x19c>
   db26a:	ea50 0441 	orrs.w	r4, r0, r1, lsl #1
   db26e:	f47f af0d 	bne.w	db08c <__aeabi_dmul+0x234>
   db272:	ea52 0543 	orrs.w	r5, r2, r3, lsl #1
   db276:	f47f aeeb 	bne.w	db050 <__aeabi_dmul+0x1f8>
   db27a:	e712      	b.n	db0a2 <__aeabi_dmul+0x24a>

000db27c <__gedf2>:
   db27c:	f04f 3cff 	mov.w	ip, #4294967295	; 0xffffffff
   db280:	e006      	b.n	db290 <__cmpdf2+0x4>
   db282:	bf00      	nop

000db284 <__ledf2>:
   db284:	f04f 0c01 	mov.w	ip, #1
   db288:	e002      	b.n	db290 <__cmpdf2+0x4>
   db28a:	bf00      	nop

000db28c <__cmpdf2>:
   db28c:	f04f 0c01 	mov.w	ip, #1
   db290:	f84d cd04 	str.w	ip, [sp, #-4]!
   db294:	ea4f 0c41 	mov.w	ip, r1, lsl #1
   db298:	ea7f 5c6c 	mvns.w	ip, ip, asr #21
   db29c:	ea4f 0c43 	mov.w	ip, r3, lsl #1
   db2a0:	bf18      	it	ne
   db2a2:	ea7f 5c6c 	mvnsne.w	ip, ip, asr #21
   db2a6:	d01b      	beq.n	db2e0 <__cmpdf2+0x54>
   db2a8:	b001      	add	sp, #4
   db2aa:	ea50 0c41 	orrs.w	ip, r0, r1, lsl #1
   db2ae:	bf0c      	ite	eq
   db2b0:	ea52 0c43 	orrseq.w	ip, r2, r3, lsl #1
   db2b4:	ea91 0f03 	teqne	r1, r3
   db2b8:	bf02      	ittt	eq
   db2ba:	ea90 0f02 	teqeq	r0, r2
   db2be:	2000      	moveq	r0, #0
   db2c0:	4770      	bxeq	lr
   db2c2:	f110 0f00 	cmn.w	r0, #0
   db2c6:	ea91 0f03 	teq	r1, r3
   db2ca:	bf58      	it	pl
   db2cc:	4299      	cmppl	r1, r3
   db2ce:	bf08      	it	eq
   db2d0:	4290      	cmpeq	r0, r2
   db2d2:	bf2c      	ite	cs
   db2d4:	17d8      	asrcs	r0, r3, #31
   db2d6:	ea6f 70e3 	mvncc.w	r0, r3, asr #31
   db2da:	f040 0001 	orr.w	r0, r0, #1
   db2de:	4770      	bx	lr
   db2e0:	ea4f 0c41 	mov.w	ip, r1, lsl #1
   db2e4:	ea7f 5c6c 	mvns.w	ip, ip, asr #21
   db2e8:	d102      	bne.n	db2f0 <__cmpdf2+0x64>
   db2ea:	ea50 3c01 	orrs.w	ip, r0, r1, lsl #12
   db2ee:	d107      	bne.n	db300 <__cmpdf2+0x74>
   db2f0:	ea4f 0c43 	mov.w	ip, r3, lsl #1
   db2f4:	ea7f 5c6c 	mvns.w	ip, ip, asr #21
   db2f8:	d1d6      	bne.n	db2a8 <__cmpdf2+0x1c>
   db2fa:	ea52 3c03 	orrs.w	ip, r2, r3, lsl #12
   db2fe:	d0d3      	beq.n	db2a8 <__cmpdf2+0x1c>
   db300:	f85d 0b04 	ldr.w	r0, [sp], #4
   db304:	4770      	bx	lr
   db306:	bf00      	nop

000db308 <__aeabi_cdrcmple>:
   db308:	4684      	mov	ip, r0
   db30a:	4610      	mov	r0, r2
   db30c:	4662      	mov	r2, ip
   db30e:	468c      	mov	ip, r1
   db310:	4619      	mov	r1, r3
   db312:	4663      	mov	r3, ip
   db314:	e000      	b.n	db318 <__aeabi_cdcmpeq>
   db316:	bf00      	nop

000db318 <__aeabi_cdcmpeq>:
   db318:	b501      	push	{r0, lr}
   db31a:	f7ff ffb7 	bl	db28c <__cmpdf2>
   db31e:	2800      	cmp	r0, #0
   db320:	bf48      	it	mi
   db322:	f110 0f00 	cmnmi.w	r0, #0
   db326:	bd01      	pop	{r0, pc}

000db328 <__aeabi_dcmpeq>:
   db328:	f84d ed08 	str.w	lr, [sp, #-8]!
   db32c:	f7ff fff4 	bl	db318 <__aeabi_cdcmpeq>
   db330:	bf0c      	ite	eq
   db332:	2001      	moveq	r0, #1
   db334:	2000      	movne	r0, #0
   db336:	f85d fb08 	ldr.w	pc, [sp], #8
   db33a:	bf00      	nop

000db33c <__aeabi_dcmplt>:
   db33c:	f84d ed08 	str.w	lr, [sp, #-8]!
   db340:	f7ff ffea 	bl	db318 <__aeabi_cdcmpeq>
   db344:	bf34      	ite	cc
   db346:	2001      	movcc	r0, #1
   db348:	2000      	movcs	r0, #0
   db34a:	f85d fb08 	ldr.w	pc, [sp], #8
   db34e:	bf00      	nop

000db350 <__aeabi_dcmple>:
   db350:	f84d ed08 	str.w	lr, [sp, #-8]!
   db354:	f7ff ffe0 	bl	db318 <__aeabi_cdcmpeq>
   db358:	bf94      	ite	ls
   db35a:	2001      	movls	r0, #1
   db35c:	2000      	movhi	r0, #0
   db35e:	f85d fb08 	ldr.w	pc, [sp], #8
   db362:	bf00      	nop

000db364 <__aeabi_dcmpge>:
   db364:	f84d ed08 	str.w	lr, [sp, #-8]!
   db368:	f7ff ffce 	bl	db308 <__aeabi_cdrcmple>
   db36c:	bf94      	ite	ls
   db36e:	2001      	movls	r0, #1
   db370:	2000      	movhi	r0, #0
   db372:	f85d fb08 	ldr.w	pc, [sp], #8
   db376:	bf00      	nop

000db378 <__aeabi_dcmpgt>:
   db378:	f84d ed08 	str.w	lr, [sp, #-8]!
   db37c:	f7ff ffc4 	bl	db308 <__aeabi_cdrcmple>
   db380:	bf34      	ite	cc
   db382:	2001      	movcc	r0, #1
   db384:	2000      	movcs	r0, #0
   db386:	f85d fb08 	ldr.w	pc, [sp], #8
   db38a:	bf00      	nop

000db38c <__aeabi_dcmpun>:
   db38c:	ea4f 0c41 	mov.w	ip, r1, lsl #1
   db390:	ea7f 5c6c 	mvns.w	ip, ip, asr #21
   db394:	d102      	bne.n	db39c <__aeabi_dcmpun+0x10>
   db396:	ea50 3c01 	orrs.w	ip, r0, r1, lsl #12
   db39a:	d10a      	bne.n	db3b2 <__aeabi_dcmpun+0x26>
   db39c:	ea4f 0c43 	mov.w	ip, r3, lsl #1
   db3a0:	ea7f 5c6c 	mvns.w	ip, ip, asr #21
   db3a4:	d102      	bne.n	db3ac <__aeabi_dcmpun+0x20>
   db3a6:	ea52 3c03 	orrs.w	ip, r2, r3, lsl #12
   db3aa:	d102      	bne.n	db3b2 <__aeabi_dcmpun+0x26>
   db3ac:	f04f 0000 	mov.w	r0, #0
   db3b0:	4770      	bx	lr
   db3b2:	f04f 0001 	mov.w	r0, #1
   db3b6:	4770      	bx	lr

000db3b8 <__aeabi_d2uiz>:
   db3b8:	004a      	lsls	r2, r1, #1
   db3ba:	d211      	bcs.n	db3e0 <__aeabi_d2uiz+0x28>
   db3bc:	f512 1200 	adds.w	r2, r2, #2097152	; 0x200000
   db3c0:	d211      	bcs.n	db3e6 <__aeabi_d2uiz+0x2e>
   db3c2:	d50d      	bpl.n	db3e0 <__aeabi_d2uiz+0x28>
   db3c4:	f46f 7378 	mvn.w	r3, #992	; 0x3e0
   db3c8:	ebb3 5262 	subs.w	r2, r3, r2, asr #21
   db3cc:	d40e      	bmi.n	db3ec <__aeabi_d2uiz+0x34>
   db3ce:	ea4f 23c1 	mov.w	r3, r1, lsl #11
   db3d2:	f043 4300 	orr.w	r3, r3, #2147483648	; 0x80000000
   db3d6:	ea43 5350 	orr.w	r3, r3, r0, lsr #21
   db3da:	fa23 f002 	lsr.w	r0, r3, r2
   db3de:	4770      	bx	lr
   db3e0:	f04f 0000 	mov.w	r0, #0
   db3e4:	4770      	bx	lr
   db3e6:	ea50 3001 	orrs.w	r0, r0, r1, lsl #12
   db3ea:	d102      	bne.n	db3f2 <__aeabi_d2uiz+0x3a>
   db3ec:	f04f 30ff 	mov.w	r0, #4294967295	; 0xffffffff
   db3f0:	4770      	bx	lr
   db3f2:	f04f 0000 	mov.w	r0, #0
   db3f6:	4770      	bx	lr

000db3f8 <__aeabi_d2f>:
   db3f8:	ea4f 0241 	mov.w	r2, r1, lsl #1
   db3fc:	f1b2 43e0 	subs.w	r3, r2, #1879048192	; 0x70000000
   db400:	bf24      	itt	cs
   db402:	f5b3 1c00 	subscs.w	ip, r3, #2097152	; 0x200000
   db406:	f1dc 5cfe 	rsbscs	ip, ip, #532676608	; 0x1fc00000
   db40a:	d90d      	bls.n	db428 <__aeabi_d2f+0x30>
   db40c:	f001 4c00 	and.w	ip, r1, #2147483648	; 0x80000000
   db410:	ea4f 02c0 	mov.w	r2, r0, lsl #3
   db414:	ea4c 7050 	orr.w	r0, ip, r0, lsr #29
   db418:	f1b2 4f00 	cmp.w	r2, #2147483648	; 0x80000000
   db41c:	eb40 0083 	adc.w	r0, r0, r3, lsl #2
   db420:	bf08      	it	eq
   db422:	f020 0001 	biceq.w	r0, r0, #1
   db426:	4770      	bx	lr
   db428:	f011 4f80 	tst.w	r1, #1073741824	; 0x40000000
   db42c:	d121      	bne.n	db472 <__aeabi_d2f+0x7a>
   db42e:	f113 7238 	adds.w	r2, r3, #48234496	; 0x2e00000
   db432:	bfbc      	itt	lt
   db434:	f001 4000 	andlt.w	r0, r1, #2147483648	; 0x80000000
   db438:	4770      	bxlt	lr
   db43a:	f441 1180 	orr.w	r1, r1, #1048576	; 0x100000
   db43e:	ea4f 5252 	mov.w	r2, r2, lsr #21
   db442:	f1c2 0218 	rsb	r2, r2, #24
   db446:	f1c2 0c20 	rsb	ip, r2, #32
   db44a:	fa10 f30c 	lsls.w	r3, r0, ip
   db44e:	fa20 f002 	lsr.w	r0, r0, r2
   db452:	bf18      	it	ne
   db454:	f040 0001 	orrne.w	r0, r0, #1
   db458:	ea4f 23c1 	mov.w	r3, r1, lsl #11
   db45c:	ea4f 23d3 	mov.w	r3, r3, lsr #11
   db460:	fa03 fc0c 	lsl.w	ip, r3, ip
   db464:	ea40 000c 	orr.w	r0, r0, ip
   db468:	fa23 f302 	lsr.w	r3, r3, r2
   db46c:	ea4f 0343 	mov.w	r3, r3, lsl #1
   db470:	e7cc      	b.n	db40c <__aeabi_d2f+0x14>
   db472:	ea7f 5362 	mvns.w	r3, r2, asr #21
   db476:	d107      	bne.n	db488 <__aeabi_d2f+0x90>
   db478:	ea50 3301 	orrs.w	r3, r0, r1, lsl #12
   db47c:	bf1e      	ittt	ne
   db47e:	f04f 40fe 	movne.w	r0, #2130706432	; 0x7f000000
   db482:	f440 0040 	orrne.w	r0, r0, #12582912	; 0xc00000
   db486:	4770      	bxne	lr
   db488:	f001 4000 	and.w	r0, r1, #2147483648	; 0x80000000
   db48c:	f040 40fe 	orr.w	r0, r0, #2130706432	; 0x7f000000
   db490:	f440 0000 	orr.w	r0, r0, #8388608	; 0x800000
   db494:	4770      	bx	lr
   db496:	bf00      	nop

000db498 <__aeabi_d2ulz>:
   db498:	b5d0      	push	{r4, r6, r7, lr}
   db49a:	4b0c      	ldr	r3, [pc, #48]	; (db4cc <__aeabi_d2ulz+0x34>)
   db49c:	2200      	movs	r2, #0
   db49e:	4606      	mov	r6, r0
   db4a0:	460f      	mov	r7, r1
   db4a2:	f7ff fcd9 	bl	dae58 <__aeabi_dmul>
   db4a6:	f7ff ff87 	bl	db3b8 <__aeabi_d2uiz>
   db4aa:	4604      	mov	r4, r0
   db4ac:	f7ff fc5a 	bl	dad64 <__aeabi_ui2d>
   db4b0:	4b07      	ldr	r3, [pc, #28]	; (db4d0 <__aeabi_d2ulz+0x38>)
   db4b2:	2200      	movs	r2, #0
   db4b4:	f7ff fcd0 	bl	dae58 <__aeabi_dmul>
   db4b8:	4602      	mov	r2, r0
   db4ba:	460b      	mov	r3, r1
   db4bc:	4630      	mov	r0, r6
   db4be:	4639      	mov	r1, r7
   db4c0:	f7ff fb12 	bl	daae8 <__aeabi_dsub>
   db4c4:	f7ff ff78 	bl	db3b8 <__aeabi_d2uiz>
   db4c8:	4621      	mov	r1, r4
   db4ca:	bdd0      	pop	{r4, r6, r7, pc}
   db4cc:	3df00000 	.word	0x3df00000
   db4d0:	41f00000 	.word	0x41f00000

000db4d4 <asctime_r>:
   db4d4:	b510      	push	{r4, lr}
   db4d6:	460c      	mov	r4, r1
   db4d8:	6941      	ldr	r1, [r0, #20]
   db4da:	6903      	ldr	r3, [r0, #16]
   db4dc:	6982      	ldr	r2, [r0, #24]
   db4de:	b086      	sub	sp, #24
   db4e0:	f201 716c 	addw	r1, r1, #1900	; 0x76c
   db4e4:	9104      	str	r1, [sp, #16]
   db4e6:	6801      	ldr	r1, [r0, #0]
   db4e8:	9103      	str	r1, [sp, #12]
   db4ea:	6841      	ldr	r1, [r0, #4]
   db4ec:	9102      	str	r1, [sp, #8]
   db4ee:	6881      	ldr	r1, [r0, #8]
   db4f0:	9101      	str	r1, [sp, #4]
   db4f2:	68c1      	ldr	r1, [r0, #12]
   db4f4:	9100      	str	r1, [sp, #0]
   db4f6:	4907      	ldr	r1, [pc, #28]	; (db514 <asctime_r+0x40>)
   db4f8:	eb03 0343 	add.w	r3, r3, r3, lsl #1
   db4fc:	440b      	add	r3, r1
   db4fe:	4906      	ldr	r1, [pc, #24]	; (db518 <asctime_r+0x44>)
   db500:	eb02 0242 	add.w	r2, r2, r2, lsl #1
   db504:	440a      	add	r2, r1
   db506:	4620      	mov	r0, r4
   db508:	4904      	ldr	r1, [pc, #16]	; (db51c <asctime_r+0x48>)
   db50a:	f7fd faa1 	bl	d8a50 <siprintf>
   db50e:	4620      	mov	r0, r4
   db510:	b006      	add	sp, #24
   db512:	bd10      	pop	{r4, pc}
   db514:	000de52e 	.word	0x000de52e
   db518:	000de519 	.word	0x000de519
   db51c:	000de4f9 	.word	0x000de4f9

000db520 <atof>:
   db520:	2100      	movs	r1, #0
   db522:	f000 befb 	b.w	dc31c <strtod>

000db526 <atoi>:
   db526:	220a      	movs	r2, #10
   db528:	2100      	movs	r1, #0
   db52a:	f000 bf7d 	b.w	dc428 <strtol>
	...

000db530 <__cxa_atexit>:
   db530:	b510      	push	{r4, lr}
   db532:	4c05      	ldr	r4, [pc, #20]	; (db548 <__cxa_atexit+0x18>)
   db534:	4613      	mov	r3, r2
   db536:	b12c      	cbz	r4, db544 <__cxa_atexit+0x14>
   db538:	460a      	mov	r2, r1
   db53a:	4601      	mov	r1, r0
   db53c:	2002      	movs	r0, #2
   db53e:	f3af 8000 	nop.w
   db542:	bd10      	pop	{r4, pc}
   db544:	4620      	mov	r0, r4
   db546:	e7fc      	b.n	db542 <__cxa_atexit+0x12>
   db548:	00000000 	.word	0x00000000

000db54c <gmtime>:
   db54c:	b538      	push	{r3, r4, r5, lr}
   db54e:	4b07      	ldr	r3, [pc, #28]	; (db56c <gmtime+0x20>)
   db550:	681d      	ldr	r5, [r3, #0]
   db552:	6beb      	ldr	r3, [r5, #60]	; 0x3c
   db554:	4604      	mov	r4, r0
   db556:	b91b      	cbnz	r3, db560 <gmtime+0x14>
   db558:	2024      	movs	r0, #36	; 0x24
   db55a:	f7fd fa61 	bl	d8a20 <malloc>
   db55e:	63e8      	str	r0, [r5, #60]	; 0x3c
   db560:	6be9      	ldr	r1, [r5, #60]	; 0x3c
   db562:	4620      	mov	r0, r4
   db564:	e8bd 4038 	ldmia.w	sp!, {r3, r4, r5, lr}
   db568:	f7fd baba 	b.w	d8ae0 <gmtime_r>
   db56c:	2003dd08 	.word	0x2003dd08

000db570 <memcpy>:
   db570:	440a      	add	r2, r1
   db572:	4291      	cmp	r1, r2
   db574:	f100 33ff 	add.w	r3, r0, #4294967295	; 0xffffffff
   db578:	d100      	bne.n	db57c <memcpy+0xc>
   db57a:	4770      	bx	lr
   db57c:	b510      	push	{r4, lr}
   db57e:	f811 4b01 	ldrb.w	r4, [r1], #1
   db582:	f803 4f01 	strb.w	r4, [r3, #1]!
   db586:	4291      	cmp	r1, r2
   db588:	d1f9      	bne.n	db57e <memcpy+0xe>
   db58a:	bd10      	pop	{r4, pc}

000db58c <memmove>:
   db58c:	4288      	cmp	r0, r1
   db58e:	b510      	push	{r4, lr}
   db590:	eb01 0402 	add.w	r4, r1, r2
   db594:	d902      	bls.n	db59c <memmove+0x10>
   db596:	4284      	cmp	r4, r0
   db598:	4623      	mov	r3, r4
   db59a:	d807      	bhi.n	db5ac <memmove+0x20>
   db59c:	1e43      	subs	r3, r0, #1
   db59e:	42a1      	cmp	r1, r4
   db5a0:	d008      	beq.n	db5b4 <memmove+0x28>
   db5a2:	f811 2b01 	ldrb.w	r2, [r1], #1
   db5a6:	f803 2f01 	strb.w	r2, [r3, #1]!
   db5aa:	e7f8      	b.n	db59e <memmove+0x12>
   db5ac:	4402      	add	r2, r0
   db5ae:	4601      	mov	r1, r0
   db5b0:	428a      	cmp	r2, r1
   db5b2:	d100      	bne.n	db5b6 <memmove+0x2a>
   db5b4:	bd10      	pop	{r4, pc}
   db5b6:	f813 4d01 	ldrb.w	r4, [r3, #-1]!
   db5ba:	f802 4d01 	strb.w	r4, [r2, #-1]!
   db5be:	e7f7      	b.n	db5b0 <memmove+0x24>

000db5c0 <memset>:
   db5c0:	4402      	add	r2, r0
   db5c2:	4603      	mov	r3, r0
   db5c4:	4293      	cmp	r3, r2
   db5c6:	d100      	bne.n	db5ca <memset+0xa>
   db5c8:	4770      	bx	lr
   db5ca:	f803 1b01 	strb.w	r1, [r3], #1
   db5ce:	e7f9      	b.n	db5c4 <memset+0x4>

000db5d0 <srand>:
   db5d0:	b538      	push	{r3, r4, r5, lr}
   db5d2:	4b0d      	ldr	r3, [pc, #52]	; (db608 <srand+0x38>)
   db5d4:	681d      	ldr	r5, [r3, #0]
   db5d6:	6bab      	ldr	r3, [r5, #56]	; 0x38
   db5d8:	4604      	mov	r4, r0
   db5da:	b97b      	cbnz	r3, db5fc <srand+0x2c>
   db5dc:	2018      	movs	r0, #24
   db5de:	f7fd fa1f 	bl	d8a20 <malloc>
   db5e2:	4a0a      	ldr	r2, [pc, #40]	; (db60c <srand+0x3c>)
   db5e4:	4b0a      	ldr	r3, [pc, #40]	; (db610 <srand+0x40>)
   db5e6:	63a8      	str	r0, [r5, #56]	; 0x38
   db5e8:	e9c0 2300 	strd	r2, r3, [r0]
   db5ec:	4b09      	ldr	r3, [pc, #36]	; (db614 <srand+0x44>)
   db5ee:	6083      	str	r3, [r0, #8]
   db5f0:	230b      	movs	r3, #11
   db5f2:	8183      	strh	r3, [r0, #12]
   db5f4:	2201      	movs	r2, #1
   db5f6:	2300      	movs	r3, #0
   db5f8:	e9c0 2304 	strd	r2, r3, [r0, #16]
   db5fc:	6bab      	ldr	r3, [r5, #56]	; 0x38
   db5fe:	2200      	movs	r2, #0
   db600:	611c      	str	r4, [r3, #16]
   db602:	615a      	str	r2, [r3, #20]
   db604:	bd38      	pop	{r3, r4, r5, pc}
   db606:	bf00      	nop
   db608:	2003dd08 	.word	0x2003dd08
   db60c:	abcd330e 	.word	0xabcd330e
   db610:	e66d1234 	.word	0xe66d1234
   db614:	0005deec 	.word	0x0005deec

000db618 <strcmp>:
   db618:	f810 2b01 	ldrb.w	r2, [r0], #1
   db61c:	f811 3b01 	ldrb.w	r3, [r1], #1
   db620:	2a01      	cmp	r2, #1
   db622:	bf28      	it	cs
   db624:	429a      	cmpcs	r2, r3
   db626:	d0f7      	beq.n	db618 <strcmp>
   db628:	1ad0      	subs	r0, r2, r3
   db62a:	4770      	bx	lr

000db62c <strcpy>:
   db62c:	4603      	mov	r3, r0
   db62e:	f811 2b01 	ldrb.w	r2, [r1], #1
   db632:	f803 2b01 	strb.w	r2, [r3], #1
   db636:	2a00      	cmp	r2, #0
   db638:	d1f9      	bne.n	db62e <strcpy+0x2>
   db63a:	4770      	bx	lr

000db63c <strdup>:
   db63c:	4b02      	ldr	r3, [pc, #8]	; (db648 <strdup+0xc>)
   db63e:	4601      	mov	r1, r0
   db640:	6818      	ldr	r0, [r3, #0]
   db642:	f000 b803 	b.w	db64c <_strdup_r>
   db646:	bf00      	nop
   db648:	2003dd08 	.word	0x2003dd08

000db64c <_strdup_r>:
   db64c:	b537      	push	{r0, r1, r2, r4, r5, lr}
   db64e:	4604      	mov	r4, r0
   db650:	4608      	mov	r0, r1
   db652:	460d      	mov	r5, r1
   db654:	f000 f80f 	bl	db676 <strlen>
   db658:	1c42      	adds	r2, r0, #1
   db65a:	4611      	mov	r1, r2
   db65c:	4620      	mov	r0, r4
   db65e:	9201      	str	r2, [sp, #4]
   db660:	f7fd fa16 	bl	d8a90 <_malloc_r>
   db664:	4604      	mov	r4, r0
   db666:	b118      	cbz	r0, db670 <_strdup_r+0x24>
   db668:	9a01      	ldr	r2, [sp, #4]
   db66a:	4629      	mov	r1, r5
   db66c:	f7ff ff80 	bl	db570 <memcpy>
   db670:	4620      	mov	r0, r4
   db672:	b003      	add	sp, #12
   db674:	bd30      	pop	{r4, r5, pc}

000db676 <strlen>:
   db676:	4603      	mov	r3, r0
   db678:	f813 2b01 	ldrb.w	r2, [r3], #1
   db67c:	2a00      	cmp	r2, #0
   db67e:	d1fb      	bne.n	db678 <strlen+0x2>
   db680:	1a18      	subs	r0, r3, r0
   db682:	3801      	subs	r0, #1
   db684:	4770      	bx	lr

000db686 <strncmp>:
   db686:	b510      	push	{r4, lr}
   db688:	b16a      	cbz	r2, db6a6 <strncmp+0x20>
   db68a:	3901      	subs	r1, #1
   db68c:	1884      	adds	r4, r0, r2
   db68e:	f810 3b01 	ldrb.w	r3, [r0], #1
   db692:	f811 2f01 	ldrb.w	r2, [r1, #1]!
   db696:	4293      	cmp	r3, r2
   db698:	d103      	bne.n	db6a2 <strncmp+0x1c>
   db69a:	42a0      	cmp	r0, r4
   db69c:	d001      	beq.n	db6a2 <strncmp+0x1c>
   db69e:	2b00      	cmp	r3, #0
   db6a0:	d1f5      	bne.n	db68e <strncmp+0x8>
   db6a2:	1a98      	subs	r0, r3, r2
   db6a4:	bd10      	pop	{r4, pc}
   db6a6:	4610      	mov	r0, r2
   db6a8:	e7fc      	b.n	db6a4 <strncmp+0x1e>

000db6aa <strncpy>:
   db6aa:	b510      	push	{r4, lr}
   db6ac:	3901      	subs	r1, #1
   db6ae:	4603      	mov	r3, r0
   db6b0:	b132      	cbz	r2, db6c0 <strncpy+0x16>
   db6b2:	f811 4f01 	ldrb.w	r4, [r1, #1]!
   db6b6:	f803 4b01 	strb.w	r4, [r3], #1
   db6ba:	3a01      	subs	r2, #1
   db6bc:	2c00      	cmp	r4, #0
   db6be:	d1f7      	bne.n	db6b0 <strncpy+0x6>
   db6c0:	441a      	add	r2, r3
   db6c2:	2100      	movs	r1, #0
   db6c4:	4293      	cmp	r3, r2
   db6c6:	d100      	bne.n	db6ca <strncpy+0x20>
   db6c8:	bd10      	pop	{r4, pc}
   db6ca:	f803 1b01 	strb.w	r1, [r3], #1
   db6ce:	e7f9      	b.n	db6c4 <strncpy+0x1a>

000db6d0 <sulp>:
   db6d0:	b570      	push	{r4, r5, r6, lr}
   db6d2:	4604      	mov	r4, r0
   db6d4:	460d      	mov	r5, r1
   db6d6:	ec45 4b10 	vmov	d0, r4, r5
   db6da:	4616      	mov	r6, r2
   db6dc:	f001 fd1a 	bl	dd114 <__ulp>
   db6e0:	ec51 0b10 	vmov	r0, r1, d0
   db6e4:	b17e      	cbz	r6, db706 <sulp+0x36>
   db6e6:	f3c5 530a 	ubfx	r3, r5, #20, #11
   db6ea:	f1c3 036b 	rsb	r3, r3, #107	; 0x6b
   db6ee:	2b00      	cmp	r3, #0
   db6f0:	dd09      	ble.n	db706 <sulp+0x36>
   db6f2:	051b      	lsls	r3, r3, #20
   db6f4:	f103 557f 	add.w	r5, r3, #1069547520	; 0x3fc00000
   db6f8:	2400      	movs	r4, #0
   db6fa:	f505 1540 	add.w	r5, r5, #3145728	; 0x300000
   db6fe:	4622      	mov	r2, r4
   db700:	462b      	mov	r3, r5
   db702:	f7ff fba9 	bl	dae58 <__aeabi_dmul>
   db706:	bd70      	pop	{r4, r5, r6, pc}

000db708 <_strtod_l>:
   db708:	e92d 4ff0 	stmdb	sp!, {r4, r5, r6, r7, r8, r9, sl, fp, lr}
   db70c:	b0a3      	sub	sp, #140	; 0x8c
   db70e:	461f      	mov	r7, r3
   db710:	2300      	movs	r3, #0
   db712:	931e      	str	r3, [sp, #120]	; 0x78
   db714:	4ba4      	ldr	r3, [pc, #656]	; (db9a8 <_strtod_l+0x2a0>)
   db716:	9219      	str	r2, [sp, #100]	; 0x64
   db718:	681b      	ldr	r3, [r3, #0]
   db71a:	9307      	str	r3, [sp, #28]
   db71c:	4604      	mov	r4, r0
   db71e:	4618      	mov	r0, r3
   db720:	4688      	mov	r8, r1
   db722:	f7ff ffa8 	bl	db676 <strlen>
   db726:	f04f 0a00 	mov.w	sl, #0
   db72a:	4605      	mov	r5, r0
   db72c:	f04f 0b00 	mov.w	fp, #0
   db730:	f8cd 8074 	str.w	r8, [sp, #116]	; 0x74
   db734:	9b1d      	ldr	r3, [sp, #116]	; 0x74
   db736:	781a      	ldrb	r2, [r3, #0]
   db738:	2a2b      	cmp	r2, #43	; 0x2b
   db73a:	d04c      	beq.n	db7d6 <_strtod_l+0xce>
   db73c:	d839      	bhi.n	db7b2 <_strtod_l+0xaa>
   db73e:	2a0d      	cmp	r2, #13
   db740:	d832      	bhi.n	db7a8 <_strtod_l+0xa0>
   db742:	2a08      	cmp	r2, #8
   db744:	d832      	bhi.n	db7ac <_strtod_l+0xa4>
   db746:	2a00      	cmp	r2, #0
   db748:	d03c      	beq.n	db7c4 <_strtod_l+0xbc>
   db74a:	2300      	movs	r3, #0
   db74c:	930e      	str	r3, [sp, #56]	; 0x38
   db74e:	9e1d      	ldr	r6, [sp, #116]	; 0x74
   db750:	7833      	ldrb	r3, [r6, #0]
   db752:	2b30      	cmp	r3, #48	; 0x30
   db754:	f040 80b4 	bne.w	db8c0 <_strtod_l+0x1b8>
   db758:	7873      	ldrb	r3, [r6, #1]
   db75a:	f003 03df 	and.w	r3, r3, #223	; 0xdf
   db75e:	2b58      	cmp	r3, #88	; 0x58
   db760:	d16c      	bne.n	db83c <_strtod_l+0x134>
   db762:	9b0e      	ldr	r3, [sp, #56]	; 0x38
   db764:	9301      	str	r3, [sp, #4]
   db766:	ab1e      	add	r3, sp, #120	; 0x78
   db768:	9702      	str	r7, [sp, #8]
   db76a:	9300      	str	r3, [sp, #0]
   db76c:	4a8f      	ldr	r2, [pc, #572]	; (db9ac <_strtod_l+0x2a4>)
   db76e:	ab1f      	add	r3, sp, #124	; 0x7c
   db770:	a91d      	add	r1, sp, #116	; 0x74
   db772:	4620      	mov	r0, r4
   db774:	f000 feca 	bl	dc50c <__gethex>
   db778:	f010 0707 	ands.w	r7, r0, #7
   db77c:	4605      	mov	r5, r0
   db77e:	d005      	beq.n	db78c <_strtod_l+0x84>
   db780:	2f06      	cmp	r7, #6
   db782:	d12a      	bne.n	db7da <_strtod_l+0xd2>
   db784:	3601      	adds	r6, #1
   db786:	2300      	movs	r3, #0
   db788:	961d      	str	r6, [sp, #116]	; 0x74
   db78a:	930e      	str	r3, [sp, #56]	; 0x38
   db78c:	9b19      	ldr	r3, [sp, #100]	; 0x64
   db78e:	2b00      	cmp	r3, #0
   db790:	f040 8596 	bne.w	dc2c0 <_strtod_l+0xbb8>
   db794:	9b0e      	ldr	r3, [sp, #56]	; 0x38
   db796:	b1db      	cbz	r3, db7d0 <_strtod_l+0xc8>
   db798:	4652      	mov	r2, sl
   db79a:	f10b 4300 	add.w	r3, fp, #2147483648	; 0x80000000
   db79e:	ec43 2b10 	vmov	d0, r2, r3
   db7a2:	b023      	add	sp, #140	; 0x8c
   db7a4:	e8bd 8ff0 	ldmia.w	sp!, {r4, r5, r6, r7, r8, r9, sl, fp, pc}
   db7a8:	2a20      	cmp	r2, #32
   db7aa:	d1ce      	bne.n	db74a <_strtod_l+0x42>
   db7ac:	3301      	adds	r3, #1
   db7ae:	931d      	str	r3, [sp, #116]	; 0x74
   db7b0:	e7c0      	b.n	db734 <_strtod_l+0x2c>
   db7b2:	2a2d      	cmp	r2, #45	; 0x2d
   db7b4:	d1c9      	bne.n	db74a <_strtod_l+0x42>
   db7b6:	2201      	movs	r2, #1
   db7b8:	920e      	str	r2, [sp, #56]	; 0x38
   db7ba:	1c5a      	adds	r2, r3, #1
   db7bc:	921d      	str	r2, [sp, #116]	; 0x74
   db7be:	785b      	ldrb	r3, [r3, #1]
   db7c0:	2b00      	cmp	r3, #0
   db7c2:	d1c4      	bne.n	db74e <_strtod_l+0x46>
   db7c4:	9b19      	ldr	r3, [sp, #100]	; 0x64
   db7c6:	f8cd 8074 	str.w	r8, [sp, #116]	; 0x74
   db7ca:	2b00      	cmp	r3, #0
   db7cc:	f040 8576 	bne.w	dc2bc <_strtod_l+0xbb4>
   db7d0:	4652      	mov	r2, sl
   db7d2:	465b      	mov	r3, fp
   db7d4:	e7e3      	b.n	db79e <_strtod_l+0x96>
   db7d6:	2200      	movs	r2, #0
   db7d8:	e7ee      	b.n	db7b8 <_strtod_l+0xb0>
   db7da:	9a1e      	ldr	r2, [sp, #120]	; 0x78
   db7dc:	b13a      	cbz	r2, db7ee <_strtod_l+0xe6>
   db7de:	2135      	movs	r1, #53	; 0x35
   db7e0:	a820      	add	r0, sp, #128	; 0x80
   db7e2:	f001 fd96 	bl	dd312 <__copybits>
   db7e6:	991e      	ldr	r1, [sp, #120]	; 0x78
   db7e8:	4620      	mov	r0, r4
   db7ea:	f001 f9cb 	bl	dcb84 <_Bfree>
   db7ee:	3f01      	subs	r7, #1
   db7f0:	2f05      	cmp	r7, #5
   db7f2:	d807      	bhi.n	db804 <_strtod_l+0xfc>
   db7f4:	e8df f007 	tbb	[pc, r7]
   db7f8:	1d180b0e 	.word	0x1d180b0e
   db7fc:	030e      	.short	0x030e
   db7fe:	f04f 0b00 	mov.w	fp, #0
   db802:	46da      	mov	sl, fp
   db804:	0728      	lsls	r0, r5, #28
   db806:	d5c1      	bpl.n	db78c <_strtod_l+0x84>
   db808:	f04b 4b00 	orr.w	fp, fp, #2147483648	; 0x80000000
   db80c:	e7be      	b.n	db78c <_strtod_l+0x84>
   db80e:	e9dd ab20 	ldrd	sl, fp, [sp, #128]	; 0x80
   db812:	e7f7      	b.n	db804 <_strtod_l+0xfc>
   db814:	e9dd a320 	ldrd	sl, r3, [sp, #128]	; 0x80
   db818:	9a1f      	ldr	r2, [sp, #124]	; 0x7c
   db81a:	f423 1380 	bic.w	r3, r3, #1048576	; 0x100000
   db81e:	f202 4233 	addw	r2, r2, #1075	; 0x433
   db822:	ea43 5b02 	orr.w	fp, r3, r2, lsl #20
   db826:	e7ed      	b.n	db804 <_strtod_l+0xfc>
   db828:	f8df b184 	ldr.w	fp, [pc, #388]	; db9b0 <_strtod_l+0x2a8>
   db82c:	f04f 0a00 	mov.w	sl, #0
   db830:	e7e8      	b.n	db804 <_strtod_l+0xfc>
   db832:	f06f 4b00 	mvn.w	fp, #2147483648	; 0x80000000
   db836:	f04f 3aff 	mov.w	sl, #4294967295	; 0xffffffff
   db83a:	e7e3      	b.n	db804 <_strtod_l+0xfc>
   db83c:	9b1d      	ldr	r3, [sp, #116]	; 0x74
   db83e:	1c5a      	adds	r2, r3, #1
   db840:	921d      	str	r2, [sp, #116]	; 0x74
   db842:	785b      	ldrb	r3, [r3, #1]
   db844:	2b30      	cmp	r3, #48	; 0x30
   db846:	d0f9      	beq.n	db83c <_strtod_l+0x134>
   db848:	2b00      	cmp	r3, #0
   db84a:	d09f      	beq.n	db78c <_strtod_l+0x84>
   db84c:	2301      	movs	r3, #1
   db84e:	f04f 0900 	mov.w	r9, #0
   db852:	9304      	str	r3, [sp, #16]
   db854:	9b1d      	ldr	r3, [sp, #116]	; 0x74
   db856:	930a      	str	r3, [sp, #40]	; 0x28
   db858:	f8cd 9024 	str.w	r9, [sp, #36]	; 0x24
   db85c:	464f      	mov	r7, r9
   db85e:	220a      	movs	r2, #10
   db860:	981d      	ldr	r0, [sp, #116]	; 0x74
   db862:	7806      	ldrb	r6, [r0, #0]
   db864:	f1a6 0330 	sub.w	r3, r6, #48	; 0x30
   db868:	b2d9      	uxtb	r1, r3
   db86a:	2909      	cmp	r1, #9
   db86c:	d92a      	bls.n	db8c4 <_strtod_l+0x1bc>
   db86e:	9907      	ldr	r1, [sp, #28]
   db870:	462a      	mov	r2, r5
   db872:	f7ff ff08 	bl	db686 <strncmp>
   db876:	b398      	cbz	r0, db8e0 <_strtod_l+0x1d8>
   db878:	2000      	movs	r0, #0
   db87a:	4633      	mov	r3, r6
   db87c:	463d      	mov	r5, r7
   db87e:	9007      	str	r0, [sp, #28]
   db880:	4602      	mov	r2, r0
   db882:	2b65      	cmp	r3, #101	; 0x65
   db884:	d001      	beq.n	db88a <_strtod_l+0x182>
   db886:	2b45      	cmp	r3, #69	; 0x45
   db888:	d118      	bne.n	db8bc <_strtod_l+0x1b4>
   db88a:	b91d      	cbnz	r5, db894 <_strtod_l+0x18c>
   db88c:	9b04      	ldr	r3, [sp, #16]
   db88e:	4303      	orrs	r3, r0
   db890:	d098      	beq.n	db7c4 <_strtod_l+0xbc>
   db892:	2500      	movs	r5, #0
   db894:	f8dd 8074 	ldr.w	r8, [sp, #116]	; 0x74
   db898:	f108 0301 	add.w	r3, r8, #1
   db89c:	931d      	str	r3, [sp, #116]	; 0x74
   db89e:	f898 3001 	ldrb.w	r3, [r8, #1]
   db8a2:	2b2b      	cmp	r3, #43	; 0x2b
   db8a4:	d075      	beq.n	db992 <_strtod_l+0x28a>
   db8a6:	2b2d      	cmp	r3, #45	; 0x2d
   db8a8:	d07b      	beq.n	db9a2 <_strtod_l+0x29a>
   db8aa:	f04f 0c00 	mov.w	ip, #0
   db8ae:	f1a3 0130 	sub.w	r1, r3, #48	; 0x30
   db8b2:	2909      	cmp	r1, #9
   db8b4:	f240 8082 	bls.w	db9bc <_strtod_l+0x2b4>
   db8b8:	f8cd 8074 	str.w	r8, [sp, #116]	; 0x74
   db8bc:	2600      	movs	r6, #0
   db8be:	e09d      	b.n	db9fc <_strtod_l+0x2f4>
   db8c0:	2300      	movs	r3, #0
   db8c2:	e7c4      	b.n	db84e <_strtod_l+0x146>
   db8c4:	2f08      	cmp	r7, #8
   db8c6:	bfd8      	it	le
   db8c8:	9909      	ldrle	r1, [sp, #36]	; 0x24
   db8ca:	f100 0001 	add.w	r0, r0, #1
   db8ce:	bfda      	itte	le
   db8d0:	fb02 3301 	mlale	r3, r2, r1, r3
   db8d4:	9309      	strle	r3, [sp, #36]	; 0x24
   db8d6:	fb02 3909 	mlagt	r9, r2, r9, r3
   db8da:	3701      	adds	r7, #1
   db8dc:	901d      	str	r0, [sp, #116]	; 0x74
   db8de:	e7bf      	b.n	db860 <_strtod_l+0x158>
   db8e0:	9b1d      	ldr	r3, [sp, #116]	; 0x74
   db8e2:	195a      	adds	r2, r3, r5
   db8e4:	921d      	str	r2, [sp, #116]	; 0x74
   db8e6:	5d5b      	ldrb	r3, [r3, r5]
   db8e8:	2f00      	cmp	r7, #0
   db8ea:	d037      	beq.n	db95c <_strtod_l+0x254>
   db8ec:	9007      	str	r0, [sp, #28]
   db8ee:	463d      	mov	r5, r7
   db8f0:	f1a3 0230 	sub.w	r2, r3, #48	; 0x30
   db8f4:	2a09      	cmp	r2, #9
   db8f6:	d912      	bls.n	db91e <_strtod_l+0x216>
   db8f8:	2201      	movs	r2, #1
   db8fa:	e7c2      	b.n	db882 <_strtod_l+0x17a>
   db8fc:	9b1d      	ldr	r3, [sp, #116]	; 0x74
   db8fe:	1c5a      	adds	r2, r3, #1
   db900:	921d      	str	r2, [sp, #116]	; 0x74
   db902:	785b      	ldrb	r3, [r3, #1]
   db904:	3001      	adds	r0, #1
   db906:	2b30      	cmp	r3, #48	; 0x30
   db908:	d0f8      	beq.n	db8fc <_strtod_l+0x1f4>
   db90a:	f1a3 0231 	sub.w	r2, r3, #49	; 0x31
   db90e:	2a08      	cmp	r2, #8
   db910:	f200 84db 	bhi.w	dc2ca <_strtod_l+0xbc2>
   db914:	9a1d      	ldr	r2, [sp, #116]	; 0x74
   db916:	9007      	str	r0, [sp, #28]
   db918:	2000      	movs	r0, #0
   db91a:	920a      	str	r2, [sp, #40]	; 0x28
   db91c:	4605      	mov	r5, r0
   db91e:	3b30      	subs	r3, #48	; 0x30
   db920:	f100 0201 	add.w	r2, r0, #1
   db924:	d014      	beq.n	db950 <_strtod_l+0x248>
   db926:	9907      	ldr	r1, [sp, #28]
   db928:	4411      	add	r1, r2
   db92a:	9107      	str	r1, [sp, #28]
   db92c:	462a      	mov	r2, r5
   db92e:	eb00 0e05 	add.w	lr, r0, r5
   db932:	210a      	movs	r1, #10
   db934:	4572      	cmp	r2, lr
   db936:	d113      	bne.n	db960 <_strtod_l+0x258>
   db938:	182a      	adds	r2, r5, r0
   db93a:	2a08      	cmp	r2, #8
   db93c:	f105 0501 	add.w	r5, r5, #1
   db940:	4405      	add	r5, r0
   db942:	dc1c      	bgt.n	db97e <_strtod_l+0x276>
   db944:	9909      	ldr	r1, [sp, #36]	; 0x24
   db946:	220a      	movs	r2, #10
   db948:	fb02 3301 	mla	r3, r2, r1, r3
   db94c:	9309      	str	r3, [sp, #36]	; 0x24
   db94e:	2200      	movs	r2, #0
   db950:	9b1d      	ldr	r3, [sp, #116]	; 0x74
   db952:	1c59      	adds	r1, r3, #1
   db954:	911d      	str	r1, [sp, #116]	; 0x74
   db956:	785b      	ldrb	r3, [r3, #1]
   db958:	4610      	mov	r0, r2
   db95a:	e7c9      	b.n	db8f0 <_strtod_l+0x1e8>
   db95c:	4638      	mov	r0, r7
   db95e:	e7d2      	b.n	db906 <_strtod_l+0x1fe>
   db960:	2a08      	cmp	r2, #8
   db962:	dc04      	bgt.n	db96e <_strtod_l+0x266>
   db964:	9e09      	ldr	r6, [sp, #36]	; 0x24
   db966:	434e      	muls	r6, r1
   db968:	9609      	str	r6, [sp, #36]	; 0x24
   db96a:	3201      	adds	r2, #1
   db96c:	e7e2      	b.n	db934 <_strtod_l+0x22c>
   db96e:	f102 0c01 	add.w	ip, r2, #1
   db972:	f1bc 0f10 	cmp.w	ip, #16
   db976:	bfd8      	it	le
   db978:	fb01 f909 	mulle.w	r9, r1, r9
   db97c:	e7f5      	b.n	db96a <_strtod_l+0x262>
   db97e:	2d10      	cmp	r5, #16
   db980:	bfdc      	itt	le
   db982:	220a      	movle	r2, #10
   db984:	fb02 3909 	mlale	r9, r2, r9, r3
   db988:	e7e1      	b.n	db94e <_strtod_l+0x246>
   db98a:	2300      	movs	r3, #0
   db98c:	9307      	str	r3, [sp, #28]
   db98e:	2201      	movs	r2, #1
   db990:	e77c      	b.n	db88c <_strtod_l+0x184>
   db992:	f04f 0c00 	mov.w	ip, #0
   db996:	f108 0302 	add.w	r3, r8, #2
   db99a:	931d      	str	r3, [sp, #116]	; 0x74
   db99c:	f898 3002 	ldrb.w	r3, [r8, #2]
   db9a0:	e785      	b.n	db8ae <_strtod_l+0x1a6>
   db9a2:	f04f 0c01 	mov.w	ip, #1
   db9a6:	e7f6      	b.n	db996 <_strtod_l+0x28e>
   db9a8:	000de6b4 	.word	0x000de6b4
   db9ac:	000de560 	.word	0x000de560
   db9b0:	7ff00000 	.word	0x7ff00000
   db9b4:	9b1d      	ldr	r3, [sp, #116]	; 0x74
   db9b6:	1c59      	adds	r1, r3, #1
   db9b8:	911d      	str	r1, [sp, #116]	; 0x74
   db9ba:	785b      	ldrb	r3, [r3, #1]
   db9bc:	2b30      	cmp	r3, #48	; 0x30
   db9be:	d0f9      	beq.n	db9b4 <_strtod_l+0x2ac>
   db9c0:	f1a3 0131 	sub.w	r1, r3, #49	; 0x31
   db9c4:	2908      	cmp	r1, #8
   db9c6:	f63f af79 	bhi.w	db8bc <_strtod_l+0x1b4>
   db9ca:	f1a3 0e30 	sub.w	lr, r3, #48	; 0x30
   db9ce:	9b1d      	ldr	r3, [sp, #116]	; 0x74
   db9d0:	9308      	str	r3, [sp, #32]
   db9d2:	9b1d      	ldr	r3, [sp, #116]	; 0x74
   db9d4:	1c59      	adds	r1, r3, #1
   db9d6:	911d      	str	r1, [sp, #116]	; 0x74
   db9d8:	785b      	ldrb	r3, [r3, #1]
   db9da:	f1a3 0630 	sub.w	r6, r3, #48	; 0x30
   db9de:	2e09      	cmp	r6, #9
   db9e0:	d937      	bls.n	dba52 <_strtod_l+0x34a>
   db9e2:	9e08      	ldr	r6, [sp, #32]
   db9e4:	1b89      	subs	r1, r1, r6
   db9e6:	2908      	cmp	r1, #8
   db9e8:	f644 661f 	movw	r6, #19999	; 0x4e1f
   db9ec:	dc02      	bgt.n	db9f4 <_strtod_l+0x2ec>
   db9ee:	4576      	cmp	r6, lr
   db9f0:	bfa8      	it	ge
   db9f2:	4676      	movge	r6, lr
   db9f4:	f1bc 0f00 	cmp.w	ip, #0
   db9f8:	d000      	beq.n	db9fc <_strtod_l+0x2f4>
   db9fa:	4276      	negs	r6, r6
   db9fc:	2d00      	cmp	r5, #0
   db9fe:	d14f      	bne.n	dbaa0 <_strtod_l+0x398>
   dba00:	9904      	ldr	r1, [sp, #16]
   dba02:	4301      	orrs	r1, r0
   dba04:	f47f aec2 	bne.w	db78c <_strtod_l+0x84>
   dba08:	2a00      	cmp	r2, #0
   dba0a:	f47f aedb 	bne.w	db7c4 <_strtod_l+0xbc>
   dba0e:	2b69      	cmp	r3, #105	; 0x69
   dba10:	d027      	beq.n	dba62 <_strtod_l+0x35a>
   dba12:	dc24      	bgt.n	dba5e <_strtod_l+0x356>
   dba14:	2b49      	cmp	r3, #73	; 0x49
   dba16:	d024      	beq.n	dba62 <_strtod_l+0x35a>
   dba18:	2b4e      	cmp	r3, #78	; 0x4e
   dba1a:	f47f aed3 	bne.w	db7c4 <_strtod_l+0xbc>
   dba1e:	499e      	ldr	r1, [pc, #632]	; (dbc98 <_strtod_l+0x590>)
   dba20:	a81d      	add	r0, sp, #116	; 0x74
   dba22:	f000 ffb9 	bl	dc998 <__match>
   dba26:	2800      	cmp	r0, #0
   dba28:	f43f aecc 	beq.w	db7c4 <_strtod_l+0xbc>
   dba2c:	9b1d      	ldr	r3, [sp, #116]	; 0x74
   dba2e:	781b      	ldrb	r3, [r3, #0]
   dba30:	2b28      	cmp	r3, #40	; 0x28
   dba32:	d12d      	bne.n	dba90 <_strtod_l+0x388>
   dba34:	4999      	ldr	r1, [pc, #612]	; (dbc9c <_strtod_l+0x594>)
   dba36:	aa20      	add	r2, sp, #128	; 0x80
   dba38:	a81d      	add	r0, sp, #116	; 0x74
   dba3a:	f000 ffc1 	bl	dc9c0 <__hexnan>
   dba3e:	2805      	cmp	r0, #5
   dba40:	d126      	bne.n	dba90 <_strtod_l+0x388>
   dba42:	9b21      	ldr	r3, [sp, #132]	; 0x84
   dba44:	f8dd a080 	ldr.w	sl, [sp, #128]	; 0x80
   dba48:	f043 4bff 	orr.w	fp, r3, #2139095040	; 0x7f800000
   dba4c:	f44b 0be0 	orr.w	fp, fp, #7340032	; 0x700000
   dba50:	e69c      	b.n	db78c <_strtod_l+0x84>
   dba52:	210a      	movs	r1, #10
   dba54:	fb01 3e0e 	mla	lr, r1, lr, r3
   dba58:	f1ae 0e30 	sub.w	lr, lr, #48	; 0x30
   dba5c:	e7b9      	b.n	db9d2 <_strtod_l+0x2ca>
   dba5e:	2b6e      	cmp	r3, #110	; 0x6e
   dba60:	e7db      	b.n	dba1a <_strtod_l+0x312>
   dba62:	498f      	ldr	r1, [pc, #572]	; (dbca0 <_strtod_l+0x598>)
   dba64:	a81d      	add	r0, sp, #116	; 0x74
   dba66:	f000 ff97 	bl	dc998 <__match>
   dba6a:	2800      	cmp	r0, #0
   dba6c:	f43f aeaa 	beq.w	db7c4 <_strtod_l+0xbc>
   dba70:	9b1d      	ldr	r3, [sp, #116]	; 0x74
   dba72:	498c      	ldr	r1, [pc, #560]	; (dbca4 <_strtod_l+0x59c>)
   dba74:	3b01      	subs	r3, #1
   dba76:	a81d      	add	r0, sp, #116	; 0x74
   dba78:	931d      	str	r3, [sp, #116]	; 0x74
   dba7a:	f000 ff8d 	bl	dc998 <__match>
   dba7e:	b910      	cbnz	r0, dba86 <_strtod_l+0x37e>
   dba80:	9b1d      	ldr	r3, [sp, #116]	; 0x74
   dba82:	3301      	adds	r3, #1
   dba84:	931d      	str	r3, [sp, #116]	; 0x74
   dba86:	f8df b22c 	ldr.w	fp, [pc, #556]	; dbcb4 <_strtod_l+0x5ac>
   dba8a:	f04f 0a00 	mov.w	sl, #0
   dba8e:	e67d      	b.n	db78c <_strtod_l+0x84>
   dba90:	4885      	ldr	r0, [pc, #532]	; (dbca8 <_strtod_l+0x5a0>)
   dba92:	f001 fc91 	bl	dd3b8 <nan>
   dba96:	ed8d 0b04 	vstr	d0, [sp, #16]
   dba9a:	e9dd ab04 	ldrd	sl, fp, [sp, #16]
   dba9e:	e675      	b.n	db78c <_strtod_l+0x84>
   dbaa0:	9b07      	ldr	r3, [sp, #28]
   dbaa2:	9809      	ldr	r0, [sp, #36]	; 0x24
   dbaa4:	1af3      	subs	r3, r6, r3
   dbaa6:	2f00      	cmp	r7, #0
   dbaa8:	bf08      	it	eq
   dbaaa:	462f      	moveq	r7, r5
   dbaac:	2d10      	cmp	r5, #16
   dbaae:	9308      	str	r3, [sp, #32]
   dbab0:	46a8      	mov	r8, r5
   dbab2:	bfa8      	it	ge
   dbab4:	f04f 0810 	movge.w	r8, #16
   dbab8:	f7ff f954 	bl	dad64 <__aeabi_ui2d>
   dbabc:	2d09      	cmp	r5, #9
   dbabe:	4682      	mov	sl, r0
   dbac0:	468b      	mov	fp, r1
   dbac2:	dd13      	ble.n	dbaec <_strtod_l+0x3e4>
   dbac4:	4b79      	ldr	r3, [pc, #484]	; (dbcac <_strtod_l+0x5a4>)
   dbac6:	eb03 03c8 	add.w	r3, r3, r8, lsl #3
   dbaca:	e953 2312 	ldrd	r2, r3, [r3, #-72]	; 0x48
   dbace:	f7ff f9c3 	bl	dae58 <__aeabi_dmul>
   dbad2:	4682      	mov	sl, r0
   dbad4:	4648      	mov	r0, r9
   dbad6:	468b      	mov	fp, r1
   dbad8:	f7ff f944 	bl	dad64 <__aeabi_ui2d>
   dbadc:	4602      	mov	r2, r0
   dbade:	460b      	mov	r3, r1
   dbae0:	4650      	mov	r0, sl
   dbae2:	4659      	mov	r1, fp
   dbae4:	f7ff f802 	bl	daaec <__adddf3>
   dbae8:	4682      	mov	sl, r0
   dbaea:	468b      	mov	fp, r1
   dbaec:	2d0f      	cmp	r5, #15
   dbaee:	dc38      	bgt.n	dbb62 <_strtod_l+0x45a>
   dbaf0:	9b08      	ldr	r3, [sp, #32]
   dbaf2:	2b00      	cmp	r3, #0
   dbaf4:	f43f ae4a 	beq.w	db78c <_strtod_l+0x84>
   dbaf8:	dd24      	ble.n	dbb44 <_strtod_l+0x43c>
   dbafa:	2b16      	cmp	r3, #22
   dbafc:	dc0b      	bgt.n	dbb16 <_strtod_l+0x40e>
   dbafe:	4d6b      	ldr	r5, [pc, #428]	; (dbcac <_strtod_l+0x5a4>)
   dbb00:	eb05 05c3 	add.w	r5, r5, r3, lsl #3
   dbb04:	e9d5 0100 	ldrd	r0, r1, [r5]
   dbb08:	4652      	mov	r2, sl
   dbb0a:	465b      	mov	r3, fp
   dbb0c:	f7ff f9a4 	bl	dae58 <__aeabi_dmul>
   dbb10:	4682      	mov	sl, r0
   dbb12:	468b      	mov	fp, r1
   dbb14:	e63a      	b.n	db78c <_strtod_l+0x84>
   dbb16:	9a08      	ldr	r2, [sp, #32]
   dbb18:	f1c5 0325 	rsb	r3, r5, #37	; 0x25
   dbb1c:	4293      	cmp	r3, r2
   dbb1e:	db20      	blt.n	dbb62 <_strtod_l+0x45a>
   dbb20:	4c62      	ldr	r4, [pc, #392]	; (dbcac <_strtod_l+0x5a4>)
   dbb22:	f1c5 050f 	rsb	r5, r5, #15
   dbb26:	eb04 01c5 	add.w	r1, r4, r5, lsl #3
   dbb2a:	4652      	mov	r2, sl
   dbb2c:	465b      	mov	r3, fp
   dbb2e:	e9d1 0100 	ldrd	r0, r1, [r1]
   dbb32:	f7ff f991 	bl	dae58 <__aeabi_dmul>
   dbb36:	9b08      	ldr	r3, [sp, #32]
   dbb38:	1b5d      	subs	r5, r3, r5
   dbb3a:	eb04 04c5 	add.w	r4, r4, r5, lsl #3
   dbb3e:	e9d4 2300 	ldrd	r2, r3, [r4]
   dbb42:	e7e3      	b.n	dbb0c <_strtod_l+0x404>
   dbb44:	9b08      	ldr	r3, [sp, #32]
   dbb46:	3316      	adds	r3, #22
   dbb48:	db0b      	blt.n	dbb62 <_strtod_l+0x45a>
   dbb4a:	9b07      	ldr	r3, [sp, #28]
   dbb4c:	4a57      	ldr	r2, [pc, #348]	; (dbcac <_strtod_l+0x5a4>)
   dbb4e:	1b9e      	subs	r6, r3, r6
   dbb50:	eb02 06c6 	add.w	r6, r2, r6, lsl #3
   dbb54:	e9d6 2300 	ldrd	r2, r3, [r6]
   dbb58:	4650      	mov	r0, sl
   dbb5a:	4659      	mov	r1, fp
   dbb5c:	f7ff faa6 	bl	db0ac <__aeabi_ddiv>
   dbb60:	e7d6      	b.n	dbb10 <_strtod_l+0x408>
   dbb62:	9b08      	ldr	r3, [sp, #32]
   dbb64:	eba5 0808 	sub.w	r8, r5, r8
   dbb68:	4498      	add	r8, r3
   dbb6a:	f1b8 0f00 	cmp.w	r8, #0
   dbb6e:	dd71      	ble.n	dbc54 <_strtod_l+0x54c>
   dbb70:	f018 030f 	ands.w	r3, r8, #15
   dbb74:	d00a      	beq.n	dbb8c <_strtod_l+0x484>
   dbb76:	494d      	ldr	r1, [pc, #308]	; (dbcac <_strtod_l+0x5a4>)
   dbb78:	eb01 01c3 	add.w	r1, r1, r3, lsl #3
   dbb7c:	4652      	mov	r2, sl
   dbb7e:	465b      	mov	r3, fp
   dbb80:	e9d1 0100 	ldrd	r0, r1, [r1]
   dbb84:	f7ff f968 	bl	dae58 <__aeabi_dmul>
   dbb88:	4682      	mov	sl, r0
   dbb8a:	468b      	mov	fp, r1
   dbb8c:	f038 080f 	bics.w	r8, r8, #15
   dbb90:	d04d      	beq.n	dbc2e <_strtod_l+0x526>
   dbb92:	f5b8 7f9a 	cmp.w	r8, #308	; 0x134
   dbb96:	dd22      	ble.n	dbbde <_strtod_l+0x4d6>
   dbb98:	2500      	movs	r5, #0
   dbb9a:	462e      	mov	r6, r5
   dbb9c:	9509      	str	r5, [sp, #36]	; 0x24
   dbb9e:	9507      	str	r5, [sp, #28]
   dbba0:	2322      	movs	r3, #34	; 0x22
   dbba2:	f8df b110 	ldr.w	fp, [pc, #272]	; dbcb4 <_strtod_l+0x5ac>
   dbba6:	6023      	str	r3, [r4, #0]
   dbba8:	f04f 0a00 	mov.w	sl, #0
   dbbac:	9b09      	ldr	r3, [sp, #36]	; 0x24
   dbbae:	2b00      	cmp	r3, #0
   dbbb0:	f43f adec 	beq.w	db78c <_strtod_l+0x84>
   dbbb4:	991e      	ldr	r1, [sp, #120]	; 0x78
   dbbb6:	4620      	mov	r0, r4
   dbbb8:	f000 ffe4 	bl	dcb84 <_Bfree>
   dbbbc:	9907      	ldr	r1, [sp, #28]
   dbbbe:	4620      	mov	r0, r4
   dbbc0:	f000 ffe0 	bl	dcb84 <_Bfree>
   dbbc4:	4631      	mov	r1, r6
   dbbc6:	4620      	mov	r0, r4
   dbbc8:	f000 ffdc 	bl	dcb84 <_Bfree>
   dbbcc:	9909      	ldr	r1, [sp, #36]	; 0x24
   dbbce:	4620      	mov	r0, r4
   dbbd0:	f000 ffd8 	bl	dcb84 <_Bfree>
   dbbd4:	4629      	mov	r1, r5
   dbbd6:	4620      	mov	r0, r4
   dbbd8:	f000 ffd4 	bl	dcb84 <_Bfree>
   dbbdc:	e5d6      	b.n	db78c <_strtod_l+0x84>
   dbbde:	2300      	movs	r3, #0
   dbbe0:	ea4f 1828 	mov.w	r8, r8, asr #4
   dbbe4:	4650      	mov	r0, sl
   dbbe6:	4659      	mov	r1, fp
   dbbe8:	4699      	mov	r9, r3
   dbbea:	f1b8 0f01 	cmp.w	r8, #1
   dbbee:	dc21      	bgt.n	dbc34 <_strtod_l+0x52c>
   dbbf0:	b10b      	cbz	r3, dbbf6 <_strtod_l+0x4ee>
   dbbf2:	4682      	mov	sl, r0
   dbbf4:	468b      	mov	fp, r1
   dbbf6:	4b2e      	ldr	r3, [pc, #184]	; (dbcb0 <_strtod_l+0x5a8>)
   dbbf8:	f1ab 7b54 	sub.w	fp, fp, #55574528	; 0x3500000
   dbbfc:	eb03 09c9 	add.w	r9, r3, r9, lsl #3
   dbc00:	4652      	mov	r2, sl
   dbc02:	465b      	mov	r3, fp
   dbc04:	e9d9 0100 	ldrd	r0, r1, [r9]
   dbc08:	f7ff f926 	bl	dae58 <__aeabi_dmul>
   dbc0c:	4b29      	ldr	r3, [pc, #164]	; (dbcb4 <_strtod_l+0x5ac>)
   dbc0e:	460a      	mov	r2, r1
   dbc10:	400b      	ands	r3, r1
   dbc12:	4929      	ldr	r1, [pc, #164]	; (dbcb8 <_strtod_l+0x5b0>)
   dbc14:	428b      	cmp	r3, r1
   dbc16:	4682      	mov	sl, r0
   dbc18:	d8be      	bhi.n	dbb98 <_strtod_l+0x490>
   dbc1a:	f5a1 1180 	sub.w	r1, r1, #1048576	; 0x100000
   dbc1e:	428b      	cmp	r3, r1
   dbc20:	bf86      	itte	hi
   dbc22:	f8df b098 	ldrhi.w	fp, [pc, #152]	; dbcbc <_strtod_l+0x5b4>
   dbc26:	f04f 3aff 	movhi.w	sl, #4294967295	; 0xffffffff
   dbc2a:	f102 7b54 	addls.w	fp, r2, #55574528	; 0x3500000
   dbc2e:	2300      	movs	r3, #0
   dbc30:	9304      	str	r3, [sp, #16]
   dbc32:	e081      	b.n	dbd38 <_strtod_l+0x630>
   dbc34:	f018 0f01 	tst.w	r8, #1
   dbc38:	d007      	beq.n	dbc4a <_strtod_l+0x542>
   dbc3a:	4b1d      	ldr	r3, [pc, #116]	; (dbcb0 <_strtod_l+0x5a8>)
   dbc3c:	eb03 03c9 	add.w	r3, r3, r9, lsl #3
   dbc40:	e9d3 2300 	ldrd	r2, r3, [r3]
   dbc44:	f7ff f908 	bl	dae58 <__aeabi_dmul>
   dbc48:	2301      	movs	r3, #1
   dbc4a:	f109 0901 	add.w	r9, r9, #1
   dbc4e:	ea4f 0868 	mov.w	r8, r8, asr #1
   dbc52:	e7ca      	b.n	dbbea <_strtod_l+0x4e2>
   dbc54:	d0eb      	beq.n	dbc2e <_strtod_l+0x526>
   dbc56:	f1c8 0800 	rsb	r8, r8, #0
   dbc5a:	f018 020f 	ands.w	r2, r8, #15
   dbc5e:	d00a      	beq.n	dbc76 <_strtod_l+0x56e>
   dbc60:	4b12      	ldr	r3, [pc, #72]	; (dbcac <_strtod_l+0x5a4>)
   dbc62:	eb03 03c2 	add.w	r3, r3, r2, lsl #3
   dbc66:	4650      	mov	r0, sl
   dbc68:	4659      	mov	r1, fp
   dbc6a:	e9d3 2300 	ldrd	r2, r3, [r3]
   dbc6e:	f7ff fa1d 	bl	db0ac <__aeabi_ddiv>
   dbc72:	4682      	mov	sl, r0
   dbc74:	468b      	mov	fp, r1
   dbc76:	ea5f 1828 	movs.w	r8, r8, asr #4
   dbc7a:	d0d8      	beq.n	dbc2e <_strtod_l+0x526>
   dbc7c:	f1b8 0f1f 	cmp.w	r8, #31
   dbc80:	dd1e      	ble.n	dbcc0 <_strtod_l+0x5b8>
   dbc82:	2500      	movs	r5, #0
   dbc84:	462e      	mov	r6, r5
   dbc86:	9509      	str	r5, [sp, #36]	; 0x24
   dbc88:	9507      	str	r5, [sp, #28]
   dbc8a:	2322      	movs	r3, #34	; 0x22
   dbc8c:	f04f 0a00 	mov.w	sl, #0
   dbc90:	f04f 0b00 	mov.w	fp, #0
   dbc94:	6023      	str	r3, [r4, #0]
   dbc96:	e789      	b.n	dbbac <_strtod_l+0x4a4>
   dbc98:	000de55b 	.word	0x000de55b
   dbc9c:	000de574 	.word	0x000de574
   dbca0:	000de552 	.word	0x000de552
   dbca4:	000de555 	.word	0x000de555
   dbca8:	000de518 	.word	0x000de518
   dbcac:	000de6f0 	.word	0x000de6f0
   dbcb0:	000de6c8 	.word	0x000de6c8
   dbcb4:	7ff00000 	.word	0x7ff00000
   dbcb8:	7ca00000 	.word	0x7ca00000
   dbcbc:	7fefffff 	.word	0x7fefffff
   dbcc0:	f018 0310 	ands.w	r3, r8, #16
   dbcc4:	bf18      	it	ne
   dbcc6:	236a      	movne	r3, #106	; 0x6a
   dbcc8:	f8df 93b4 	ldr.w	r9, [pc, #948]	; dc080 <_strtod_l+0x978>
   dbccc:	9304      	str	r3, [sp, #16]
   dbcce:	4650      	mov	r0, sl
   dbcd0:	4659      	mov	r1, fp
   dbcd2:	2300      	movs	r3, #0
   dbcd4:	f018 0f01 	tst.w	r8, #1
   dbcd8:	d004      	beq.n	dbce4 <_strtod_l+0x5dc>
   dbcda:	e9d9 2300 	ldrd	r2, r3, [r9]
   dbcde:	f7ff f8bb 	bl	dae58 <__aeabi_dmul>
   dbce2:	2301      	movs	r3, #1
   dbce4:	ea5f 0868 	movs.w	r8, r8, asr #1
   dbce8:	f109 0908 	add.w	r9, r9, #8
   dbcec:	d1f2      	bne.n	dbcd4 <_strtod_l+0x5cc>
   dbcee:	b10b      	cbz	r3, dbcf4 <_strtod_l+0x5ec>
   dbcf0:	4682      	mov	sl, r0
   dbcf2:	468b      	mov	fp, r1
   dbcf4:	9b04      	ldr	r3, [sp, #16]
   dbcf6:	b1bb      	cbz	r3, dbd28 <_strtod_l+0x620>
   dbcf8:	f3cb 530a 	ubfx	r3, fp, #20, #11
   dbcfc:	f1c3 036b 	rsb	r3, r3, #107	; 0x6b
   dbd00:	2b00      	cmp	r3, #0
   dbd02:	4659      	mov	r1, fp
   dbd04:	dd10      	ble.n	dbd28 <_strtod_l+0x620>
   dbd06:	2b1f      	cmp	r3, #31
   dbd08:	f340 8128 	ble.w	dbf5c <_strtod_l+0x854>
   dbd0c:	2b34      	cmp	r3, #52	; 0x34
   dbd0e:	bfde      	ittt	le
   dbd10:	3b20      	suble	r3, #32
   dbd12:	f04f 32ff 	movle.w	r2, #4294967295	; 0xffffffff
   dbd16:	fa02 f303 	lslle.w	r3, r2, r3
   dbd1a:	f04f 0a00 	mov.w	sl, #0
   dbd1e:	bfcc      	ite	gt
   dbd20:	f04f 7b5c 	movgt.w	fp, #57671680	; 0x3700000
   dbd24:	ea03 0b01 	andle.w	fp, r3, r1
   dbd28:	2200      	movs	r2, #0
   dbd2a:	2300      	movs	r3, #0
   dbd2c:	4650      	mov	r0, sl
   dbd2e:	4659      	mov	r1, fp
   dbd30:	f7ff fafa 	bl	db328 <__aeabi_dcmpeq>
   dbd34:	2800      	cmp	r0, #0
   dbd36:	d1a4      	bne.n	dbc82 <_strtod_l+0x57a>
   dbd38:	9b09      	ldr	r3, [sp, #36]	; 0x24
   dbd3a:	9300      	str	r3, [sp, #0]
   dbd3c:	990a      	ldr	r1, [sp, #40]	; 0x28
   dbd3e:	462b      	mov	r3, r5
   dbd40:	463a      	mov	r2, r7
   dbd42:	4620      	mov	r0, r4
   dbd44:	f000 ff73 	bl	dcc2e <__s2b>
   dbd48:	9009      	str	r0, [sp, #36]	; 0x24
   dbd4a:	2800      	cmp	r0, #0
   dbd4c:	f43f af24 	beq.w	dbb98 <_strtod_l+0x490>
   dbd50:	9b07      	ldr	r3, [sp, #28]
   dbd52:	1b9e      	subs	r6, r3, r6
   dbd54:	9b08      	ldr	r3, [sp, #32]
   dbd56:	2b00      	cmp	r3, #0
   dbd58:	bfb4      	ite	lt
   dbd5a:	4633      	movlt	r3, r6
   dbd5c:	2300      	movge	r3, #0
   dbd5e:	9310      	str	r3, [sp, #64]	; 0x40
   dbd60:	9b08      	ldr	r3, [sp, #32]
   dbd62:	2500      	movs	r5, #0
   dbd64:	ea23 73e3 	bic.w	r3, r3, r3, asr #31
   dbd68:	9318      	str	r3, [sp, #96]	; 0x60
   dbd6a:	462e      	mov	r6, r5
   dbd6c:	9b09      	ldr	r3, [sp, #36]	; 0x24
   dbd6e:	4620      	mov	r0, r4
   dbd70:	6859      	ldr	r1, [r3, #4]
   dbd72:	f000 fed3 	bl	dcb1c <_Balloc>
   dbd76:	9007      	str	r0, [sp, #28]
   dbd78:	2800      	cmp	r0, #0
   dbd7a:	f43f af11 	beq.w	dbba0 <_strtod_l+0x498>
   dbd7e:	9b09      	ldr	r3, [sp, #36]	; 0x24
   dbd80:	691a      	ldr	r2, [r3, #16]
   dbd82:	3202      	adds	r2, #2
   dbd84:	f103 010c 	add.w	r1, r3, #12
   dbd88:	0092      	lsls	r2, r2, #2
   dbd8a:	300c      	adds	r0, #12
   dbd8c:	f7ff fbf0 	bl	db570 <memcpy>
   dbd90:	ec4b ab10 	vmov	d0, sl, fp
   dbd94:	aa20      	add	r2, sp, #128	; 0x80
   dbd96:	a91f      	add	r1, sp, #124	; 0x7c
   dbd98:	4620      	mov	r0, r4
   dbd9a:	e9cd ab0a 	strd	sl, fp, [sp, #40]	; 0x28
   dbd9e:	f001 fa35 	bl	dd20c <__d2b>
   dbda2:	901e      	str	r0, [sp, #120]	; 0x78
   dbda4:	2800      	cmp	r0, #0
   dbda6:	f43f aefb 	beq.w	dbba0 <_strtod_l+0x498>
   dbdaa:	2101      	movs	r1, #1
   dbdac:	4620      	mov	r0, r4
   dbdae:	f000 ffcc 	bl	dcd4a <__i2b>
   dbdb2:	4606      	mov	r6, r0
   dbdb4:	2800      	cmp	r0, #0
   dbdb6:	f43f aef3 	beq.w	dbba0 <_strtod_l+0x498>
   dbdba:	9b1f      	ldr	r3, [sp, #124]	; 0x7c
   dbdbc:	9904      	ldr	r1, [sp, #16]
   dbdbe:	2b00      	cmp	r3, #0
   dbdc0:	bfab      	itete	ge
   dbdc2:	9a10      	ldrge	r2, [sp, #64]	; 0x40
   dbdc4:	9a18      	ldrlt	r2, [sp, #96]	; 0x60
   dbdc6:	9f18      	ldrge	r7, [sp, #96]	; 0x60
   dbdc8:	f8dd 9040 	ldrlt.w	r9, [sp, #64]	; 0x40
   dbdcc:	bfac      	ite	ge
   dbdce:	eb03 0902 	addge.w	r9, r3, r2
   dbdd2:	1ad7      	sublt	r7, r2, r3
   dbdd4:	9a20      	ldr	r2, [sp, #128]	; 0x80
   dbdd6:	eba3 0801 	sub.w	r8, r3, r1
   dbdda:	4490      	add	r8, r2
   dbddc:	4ba3      	ldr	r3, [pc, #652]	; (dc06c <_strtod_l+0x964>)
   dbdde:	f108 38ff 	add.w	r8, r8, #4294967295	; 0xffffffff
   dbde2:	4598      	cmp	r8, r3
   dbde4:	f1c2 0236 	rsb	r2, r2, #54	; 0x36
   dbde8:	f280 80cc 	bge.w	dbf84 <_strtod_l+0x87c>
   dbdec:	eba3 0308 	sub.w	r3, r3, r8
   dbdf0:	2b1f      	cmp	r3, #31
   dbdf2:	eba2 0203 	sub.w	r2, r2, r3
   dbdf6:	f04f 0101 	mov.w	r1, #1
   dbdfa:	f300 80b6 	bgt.w	dbf6a <_strtod_l+0x862>
   dbdfe:	fa01 f303 	lsl.w	r3, r1, r3
   dbe02:	9311      	str	r3, [sp, #68]	; 0x44
   dbe04:	2300      	movs	r3, #0
   dbe06:	930c      	str	r3, [sp, #48]	; 0x30
   dbe08:	eb09 0802 	add.w	r8, r9, r2
   dbe0c:	9b04      	ldr	r3, [sp, #16]
   dbe0e:	45c1      	cmp	r9, r8
   dbe10:	4417      	add	r7, r2
   dbe12:	441f      	add	r7, r3
   dbe14:	464b      	mov	r3, r9
   dbe16:	bfa8      	it	ge
   dbe18:	4643      	movge	r3, r8
   dbe1a:	42bb      	cmp	r3, r7
   dbe1c:	bfa8      	it	ge
   dbe1e:	463b      	movge	r3, r7
   dbe20:	2b00      	cmp	r3, #0
   dbe22:	bfc2      	ittt	gt
   dbe24:	eba8 0803 	subgt.w	r8, r8, r3
   dbe28:	1aff      	subgt	r7, r7, r3
   dbe2a:	eba9 0903 	subgt.w	r9, r9, r3
   dbe2e:	9b10      	ldr	r3, [sp, #64]	; 0x40
   dbe30:	2b00      	cmp	r3, #0
   dbe32:	dd17      	ble.n	dbe64 <_strtod_l+0x75c>
   dbe34:	4631      	mov	r1, r6
   dbe36:	461a      	mov	r2, r3
   dbe38:	4620      	mov	r0, r4
   dbe3a:	f001 f82b 	bl	dce94 <__pow5mult>
   dbe3e:	4606      	mov	r6, r0
   dbe40:	2800      	cmp	r0, #0
   dbe42:	f43f aead 	beq.w	dbba0 <_strtod_l+0x498>
   dbe46:	4601      	mov	r1, r0
   dbe48:	9a1e      	ldr	r2, [sp, #120]	; 0x78
   dbe4a:	4620      	mov	r0, r4
   dbe4c:	f000 ff86 	bl	dcd5c <__multiply>
   dbe50:	900f      	str	r0, [sp, #60]	; 0x3c
   dbe52:	2800      	cmp	r0, #0
   dbe54:	f43f aea4 	beq.w	dbba0 <_strtod_l+0x498>
   dbe58:	991e      	ldr	r1, [sp, #120]	; 0x78
   dbe5a:	4620      	mov	r0, r4
   dbe5c:	f000 fe92 	bl	dcb84 <_Bfree>
   dbe60:	9b0f      	ldr	r3, [sp, #60]	; 0x3c
   dbe62:	931e      	str	r3, [sp, #120]	; 0x78
   dbe64:	f1b8 0f00 	cmp.w	r8, #0
   dbe68:	f300 8091 	bgt.w	dbf8e <_strtod_l+0x886>
   dbe6c:	9b08      	ldr	r3, [sp, #32]
   dbe6e:	2b00      	cmp	r3, #0
   dbe70:	dd08      	ble.n	dbe84 <_strtod_l+0x77c>
   dbe72:	9a18      	ldr	r2, [sp, #96]	; 0x60
   dbe74:	9907      	ldr	r1, [sp, #28]
   dbe76:	4620      	mov	r0, r4
   dbe78:	f001 f80c 	bl	dce94 <__pow5mult>
   dbe7c:	9007      	str	r0, [sp, #28]
   dbe7e:	2800      	cmp	r0, #0
   dbe80:	f43f ae8e 	beq.w	dbba0 <_strtod_l+0x498>
   dbe84:	2f00      	cmp	r7, #0
   dbe86:	dd08      	ble.n	dbe9a <_strtod_l+0x792>
   dbe88:	9907      	ldr	r1, [sp, #28]
   dbe8a:	463a      	mov	r2, r7
   dbe8c:	4620      	mov	r0, r4
   dbe8e:	f001 f84f 	bl	dcf30 <__lshift>
   dbe92:	9007      	str	r0, [sp, #28]
   dbe94:	2800      	cmp	r0, #0
   dbe96:	f43f ae83 	beq.w	dbba0 <_strtod_l+0x498>
   dbe9a:	f1b9 0f00 	cmp.w	r9, #0
   dbe9e:	dd08      	ble.n	dbeb2 <_strtod_l+0x7aa>
   dbea0:	4631      	mov	r1, r6
   dbea2:	464a      	mov	r2, r9
   dbea4:	4620      	mov	r0, r4
   dbea6:	f001 f843 	bl	dcf30 <__lshift>
   dbeaa:	4606      	mov	r6, r0
   dbeac:	2800      	cmp	r0, #0
   dbeae:	f43f ae77 	beq.w	dbba0 <_strtod_l+0x498>
   dbeb2:	9a07      	ldr	r2, [sp, #28]
   dbeb4:	991e      	ldr	r1, [sp, #120]	; 0x78
   dbeb6:	4620      	mov	r0, r4
   dbeb8:	f001 f8b5 	bl	dd026 <__mdiff>
   dbebc:	4605      	mov	r5, r0
   dbebe:	2800      	cmp	r0, #0
   dbec0:	f43f ae6e 	beq.w	dbba0 <_strtod_l+0x498>
   dbec4:	68c3      	ldr	r3, [r0, #12]
   dbec6:	930f      	str	r3, [sp, #60]	; 0x3c
   dbec8:	2300      	movs	r3, #0
   dbeca:	60c3      	str	r3, [r0, #12]
   dbecc:	4631      	mov	r1, r6
   dbece:	f001 f88e 	bl	dcfee <__mcmp>
   dbed2:	2800      	cmp	r0, #0
   dbed4:	da65      	bge.n	dbfa2 <_strtod_l+0x89a>
   dbed6:	9b0f      	ldr	r3, [sp, #60]	; 0x3c
   dbed8:	ea53 030a 	orrs.w	r3, r3, sl
   dbedc:	f040 8087 	bne.w	dbfee <_strtod_l+0x8e6>
   dbee0:	f3cb 0313 	ubfx	r3, fp, #0, #20
   dbee4:	2b00      	cmp	r3, #0
   dbee6:	f040 8082 	bne.w	dbfee <_strtod_l+0x8e6>
   dbeea:	f02b 4300 	bic.w	r3, fp, #2147483648	; 0x80000000
   dbeee:	0d1b      	lsrs	r3, r3, #20
   dbef0:	051b      	lsls	r3, r3, #20
   dbef2:	f1b3 6fd6 	cmp.w	r3, #112197632	; 0x6b00000
   dbef6:	d97a      	bls.n	dbfee <_strtod_l+0x8e6>
   dbef8:	696b      	ldr	r3, [r5, #20]
   dbefa:	b913      	cbnz	r3, dbf02 <_strtod_l+0x7fa>
   dbefc:	692b      	ldr	r3, [r5, #16]
   dbefe:	2b01      	cmp	r3, #1
   dbf00:	dd75      	ble.n	dbfee <_strtod_l+0x8e6>
   dbf02:	4629      	mov	r1, r5
   dbf04:	2201      	movs	r2, #1
   dbf06:	4620      	mov	r0, r4
   dbf08:	f001 f812 	bl	dcf30 <__lshift>
   dbf0c:	4631      	mov	r1, r6
   dbf0e:	4605      	mov	r5, r0
   dbf10:	f001 f86d 	bl	dcfee <__mcmp>
   dbf14:	2800      	cmp	r0, #0
   dbf16:	dd6a      	ble.n	dbfee <_strtod_l+0x8e6>
   dbf18:	9904      	ldr	r1, [sp, #16]
   dbf1a:	4a55      	ldr	r2, [pc, #340]	; (dc070 <_strtod_l+0x968>)
   dbf1c:	465b      	mov	r3, fp
   dbf1e:	2900      	cmp	r1, #0
   dbf20:	f000 8085 	beq.w	dc02e <_strtod_l+0x926>
   dbf24:	ea02 010b 	and.w	r1, r2, fp
   dbf28:	f1b1 6fd6 	cmp.w	r1, #112197632	; 0x6b00000
   dbf2c:	dc7f      	bgt.n	dc02e <_strtod_l+0x926>
   dbf2e:	f1b1 7f5c 	cmp.w	r1, #57671680	; 0x3700000
   dbf32:	f77f aeaa 	ble.w	dbc8a <_strtod_l+0x582>
   dbf36:	4a4f      	ldr	r2, [pc, #316]	; (dc074 <_strtod_l+0x96c>)
   dbf38:	2300      	movs	r3, #0
   dbf3a:	e9cd 3216 	strd	r3, r2, [sp, #88]	; 0x58
   dbf3e:	4650      	mov	r0, sl
   dbf40:	e9dd 2316 	ldrd	r2, r3, [sp, #88]	; 0x58
   dbf44:	4659      	mov	r1, fp
   dbf46:	f7fe ff87 	bl	dae58 <__aeabi_dmul>
   dbf4a:	460b      	mov	r3, r1
   dbf4c:	4303      	orrs	r3, r0
   dbf4e:	bf08      	it	eq
   dbf50:	2322      	moveq	r3, #34	; 0x22
   dbf52:	4682      	mov	sl, r0
   dbf54:	468b      	mov	fp, r1
   dbf56:	bf08      	it	eq
   dbf58:	6023      	streq	r3, [r4, #0]
   dbf5a:	e62b      	b.n	dbbb4 <_strtod_l+0x4ac>
   dbf5c:	f04f 32ff 	mov.w	r2, #4294967295	; 0xffffffff
   dbf60:	fa02 f303 	lsl.w	r3, r2, r3
   dbf64:	ea03 0a0a 	and.w	sl, r3, sl
   dbf68:	e6de      	b.n	dbd28 <_strtod_l+0x620>
   dbf6a:	f1c8 487f 	rsb	r8, r8, #4278190080	; 0xff000000
   dbf6e:	f508 087f 	add.w	r8, r8, #16711680	; 0xff0000
   dbf72:	f508 487b 	add.w	r8, r8, #64256	; 0xfb00
   dbf76:	f108 08e2 	add.w	r8, r8, #226	; 0xe2
   dbf7a:	fa01 f308 	lsl.w	r3, r1, r8
   dbf7e:	930c      	str	r3, [sp, #48]	; 0x30
   dbf80:	9111      	str	r1, [sp, #68]	; 0x44
   dbf82:	e741      	b.n	dbe08 <_strtod_l+0x700>
   dbf84:	2300      	movs	r3, #0
   dbf86:	930c      	str	r3, [sp, #48]	; 0x30
   dbf88:	2301      	movs	r3, #1
   dbf8a:	9311      	str	r3, [sp, #68]	; 0x44
   dbf8c:	e73c      	b.n	dbe08 <_strtod_l+0x700>
   dbf8e:	991e      	ldr	r1, [sp, #120]	; 0x78
   dbf90:	4642      	mov	r2, r8
   dbf92:	4620      	mov	r0, r4
   dbf94:	f000 ffcc 	bl	dcf30 <__lshift>
   dbf98:	901e      	str	r0, [sp, #120]	; 0x78
   dbf9a:	2800      	cmp	r0, #0
   dbf9c:	f47f af66 	bne.w	dbe6c <_strtod_l+0x764>
   dbfa0:	e5fe      	b.n	dbba0 <_strtod_l+0x498>
   dbfa2:	465f      	mov	r7, fp
   dbfa4:	d16e      	bne.n	dc084 <_strtod_l+0x97c>
   dbfa6:	9a0f      	ldr	r2, [sp, #60]	; 0x3c
   dbfa8:	f3cb 0313 	ubfx	r3, fp, #0, #20
   dbfac:	b342      	cbz	r2, dc000 <_strtod_l+0x8f8>
   dbfae:	4a32      	ldr	r2, [pc, #200]	; (dc078 <_strtod_l+0x970>)
   dbfb0:	4293      	cmp	r3, r2
   dbfb2:	d128      	bne.n	dc006 <_strtod_l+0x8fe>
   dbfb4:	9b04      	ldr	r3, [sp, #16]
   dbfb6:	4650      	mov	r0, sl
   dbfb8:	b1eb      	cbz	r3, dbff6 <_strtod_l+0x8ee>
   dbfba:	4a2d      	ldr	r2, [pc, #180]	; (dc070 <_strtod_l+0x968>)
   dbfbc:	403a      	ands	r2, r7
   dbfbe:	f1b2 6fd4 	cmp.w	r2, #111149056	; 0x6a00000
   dbfc2:	f04f 31ff 	mov.w	r1, #4294967295	; 0xffffffff
   dbfc6:	d819      	bhi.n	dbffc <_strtod_l+0x8f4>
   dbfc8:	0d12      	lsrs	r2, r2, #20
   dbfca:	f1c2 036b 	rsb	r3, r2, #107	; 0x6b
   dbfce:	fa01 f303 	lsl.w	r3, r1, r3
   dbfd2:	4298      	cmp	r0, r3
   dbfd4:	d117      	bne.n	dc006 <_strtod_l+0x8fe>
   dbfd6:	4b29      	ldr	r3, [pc, #164]	; (dc07c <_strtod_l+0x974>)
   dbfd8:	429f      	cmp	r7, r3
   dbfda:	d102      	bne.n	dbfe2 <_strtod_l+0x8da>
   dbfdc:	3001      	adds	r0, #1
   dbfde:	f43f addf 	beq.w	dbba0 <_strtod_l+0x498>
   dbfe2:	4b23      	ldr	r3, [pc, #140]	; (dc070 <_strtod_l+0x968>)
   dbfe4:	403b      	ands	r3, r7
   dbfe6:	f503 1b80 	add.w	fp, r3, #1048576	; 0x100000
   dbfea:	f04f 0a00 	mov.w	sl, #0
   dbfee:	9b04      	ldr	r3, [sp, #16]
   dbff0:	2b00      	cmp	r3, #0
   dbff2:	d1a0      	bne.n	dbf36 <_strtod_l+0x82e>
   dbff4:	e5de      	b.n	dbbb4 <_strtod_l+0x4ac>
   dbff6:	f04f 33ff 	mov.w	r3, #4294967295	; 0xffffffff
   dbffa:	e7ea      	b.n	dbfd2 <_strtod_l+0x8ca>
   dbffc:	460b      	mov	r3, r1
   dbffe:	e7e8      	b.n	dbfd2 <_strtod_l+0x8ca>
   dc000:	ea53 030a 	orrs.w	r3, r3, sl
   dc004:	d088      	beq.n	dbf18 <_strtod_l+0x810>
   dc006:	9b0c      	ldr	r3, [sp, #48]	; 0x30
   dc008:	b1db      	cbz	r3, dc042 <_strtod_l+0x93a>
   dc00a:	423b      	tst	r3, r7
   dc00c:	d0ef      	beq.n	dbfee <_strtod_l+0x8e6>
   dc00e:	9b0f      	ldr	r3, [sp, #60]	; 0x3c
   dc010:	9a04      	ldr	r2, [sp, #16]
   dc012:	4650      	mov	r0, sl
   dc014:	4659      	mov	r1, fp
   dc016:	b1c3      	cbz	r3, dc04a <_strtod_l+0x942>
   dc018:	f7ff fb5a 	bl	db6d0 <sulp>
   dc01c:	4602      	mov	r2, r0
   dc01e:	460b      	mov	r3, r1
   dc020:	e9dd 010a 	ldrd	r0, r1, [sp, #40]	; 0x28
   dc024:	f7fe fd62 	bl	daaec <__adddf3>
   dc028:	4682      	mov	sl, r0
   dc02a:	468b      	mov	fp, r1
   dc02c:	e7df      	b.n	dbfee <_strtod_l+0x8e6>
   dc02e:	4013      	ands	r3, r2
   dc030:	f5a3 1380 	sub.w	r3, r3, #1048576	; 0x100000
   dc034:	ea6f 5b13 	mvn.w	fp, r3, lsr #20
   dc038:	ea6f 5b0b 	mvn.w	fp, fp, lsl #20
   dc03c:	f04f 3aff 	mov.w	sl, #4294967295	; 0xffffffff
   dc040:	e7d5      	b.n	dbfee <_strtod_l+0x8e6>
   dc042:	9b11      	ldr	r3, [sp, #68]	; 0x44
   dc044:	ea13 0f0a 	tst.w	r3, sl
   dc048:	e7e0      	b.n	dc00c <_strtod_l+0x904>
   dc04a:	f7ff fb41 	bl	db6d0 <sulp>
   dc04e:	4602      	mov	r2, r0
   dc050:	460b      	mov	r3, r1
   dc052:	e9dd 010a 	ldrd	r0, r1, [sp, #40]	; 0x28
   dc056:	f7fe fd47 	bl	daae8 <__aeabi_dsub>
   dc05a:	2200      	movs	r2, #0
   dc05c:	2300      	movs	r3, #0
   dc05e:	4682      	mov	sl, r0
   dc060:	468b      	mov	fp, r1
   dc062:	f7ff f961 	bl	db328 <__aeabi_dcmpeq>
   dc066:	2800      	cmp	r0, #0
   dc068:	d0c1      	beq.n	dbfee <_strtod_l+0x8e6>
   dc06a:	e60e      	b.n	dbc8a <_strtod_l+0x582>
   dc06c:	fffffc02 	.word	0xfffffc02
   dc070:	7ff00000 	.word	0x7ff00000
   dc074:	39500000 	.word	0x39500000
   dc078:	000fffff 	.word	0x000fffff
   dc07c:	7fefffff 	.word	0x7fefffff
   dc080:	000de588 	.word	0x000de588
   dc084:	4631      	mov	r1, r6
   dc086:	4628      	mov	r0, r5
   dc088:	f001 f910 	bl	dd2ac <__ratio>
   dc08c:	ec59 8b10 	vmov	r8, r9, d0
   dc090:	ee10 0a10 	vmov	r0, s0
   dc094:	2200      	movs	r2, #0
   dc096:	f04f 4380 	mov.w	r3, #1073741824	; 0x40000000
   dc09a:	4649      	mov	r1, r9
   dc09c:	f7ff f958 	bl	db350 <__aeabi_dcmple>
   dc0a0:	2800      	cmp	r0, #0
   dc0a2:	d07c      	beq.n	dc19e <_strtod_l+0xa96>
   dc0a4:	9b0f      	ldr	r3, [sp, #60]	; 0x3c
   dc0a6:	2b00      	cmp	r3, #0
   dc0a8:	d04c      	beq.n	dc144 <_strtod_l+0xa3c>
   dc0aa:	4b95      	ldr	r3, [pc, #596]	; (dc300 <_strtod_l+0xbf8>)
   dc0ac:	2200      	movs	r2, #0
   dc0ae:	e9cd 230c 	strd	r2, r3, [sp, #48]	; 0x30
   dc0b2:	f8df 924c 	ldr.w	r9, [pc, #588]	; dc300 <_strtod_l+0xbf8>
   dc0b6:	f04f 0800 	mov.w	r8, #0
   dc0ba:	4b92      	ldr	r3, [pc, #584]	; (dc304 <_strtod_l+0xbfc>)
   dc0bc:	403b      	ands	r3, r7
   dc0be:	9311      	str	r3, [sp, #68]	; 0x44
   dc0c0:	9a11      	ldr	r2, [sp, #68]	; 0x44
   dc0c2:	4b91      	ldr	r3, [pc, #580]	; (dc308 <_strtod_l+0xc00>)
   dc0c4:	429a      	cmp	r2, r3
   dc0c6:	f040 80b2 	bne.w	dc22e <_strtod_l+0xb26>
   dc0ca:	e9dd 230a 	ldrd	r2, r3, [sp, #40]	; 0x28
   dc0ce:	e9dd 010c 	ldrd	r0, r1, [sp, #48]	; 0x30
   dc0d2:	f1a7 7b54 	sub.w	fp, r7, #55574528	; 0x3500000
   dc0d6:	ec4b ab10 	vmov	d0, sl, fp
   dc0da:	e9cd 2316 	strd	r2, r3, [sp, #88]	; 0x58
   dc0de:	e9cd 010c 	strd	r0, r1, [sp, #48]	; 0x30
   dc0e2:	f001 f817 	bl	dd114 <__ulp>
   dc0e6:	e9dd 010c 	ldrd	r0, r1, [sp, #48]	; 0x30
   dc0ea:	ec53 2b10 	vmov	r2, r3, d0
   dc0ee:	f7fe feb3 	bl	dae58 <__aeabi_dmul>
   dc0f2:	4652      	mov	r2, sl
   dc0f4:	465b      	mov	r3, fp
   dc0f6:	f7fe fcf9 	bl	daaec <__adddf3>
   dc0fa:	460b      	mov	r3, r1
   dc0fc:	4981      	ldr	r1, [pc, #516]	; (dc304 <_strtod_l+0xbfc>)
   dc0fe:	4a83      	ldr	r2, [pc, #524]	; (dc30c <_strtod_l+0xc04>)
   dc100:	4019      	ands	r1, r3
   dc102:	4291      	cmp	r1, r2
   dc104:	4682      	mov	sl, r0
   dc106:	d95e      	bls.n	dc1c6 <_strtod_l+0xabe>
   dc108:	9b0b      	ldr	r3, [sp, #44]	; 0x2c
   dc10a:	f102 7254 	add.w	r2, r2, #55574528	; 0x3500000
   dc10e:	4293      	cmp	r3, r2
   dc110:	d103      	bne.n	dc11a <_strtod_l+0xa12>
   dc112:	9b0a      	ldr	r3, [sp, #40]	; 0x28
   dc114:	3301      	adds	r3, #1
   dc116:	f43f ad43 	beq.w	dbba0 <_strtod_l+0x498>
   dc11a:	f8df b1fc 	ldr.w	fp, [pc, #508]	; dc318 <_strtod_l+0xc10>
   dc11e:	f04f 3aff 	mov.w	sl, #4294967295	; 0xffffffff
   dc122:	991e      	ldr	r1, [sp, #120]	; 0x78
   dc124:	4620      	mov	r0, r4
   dc126:	f000 fd2d 	bl	dcb84 <_Bfree>
   dc12a:	9907      	ldr	r1, [sp, #28]
   dc12c:	4620      	mov	r0, r4
   dc12e:	f000 fd29 	bl	dcb84 <_Bfree>
   dc132:	4631      	mov	r1, r6
   dc134:	4620      	mov	r0, r4
   dc136:	f000 fd25 	bl	dcb84 <_Bfree>
   dc13a:	4629      	mov	r1, r5
   dc13c:	4620      	mov	r0, r4
   dc13e:	f000 fd21 	bl	dcb84 <_Bfree>
   dc142:	e613      	b.n	dbd6c <_strtod_l+0x664>
   dc144:	f1ba 0f00 	cmp.w	sl, #0
   dc148:	d11b      	bne.n	dc182 <_strtod_l+0xa7a>
   dc14a:	f3cb 0313 	ubfx	r3, fp, #0, #20
   dc14e:	b9f3      	cbnz	r3, dc18e <_strtod_l+0xa86>
   dc150:	4b6b      	ldr	r3, [pc, #428]	; (dc300 <_strtod_l+0xbf8>)
   dc152:	2200      	movs	r2, #0
   dc154:	4640      	mov	r0, r8
   dc156:	4649      	mov	r1, r9
   dc158:	f7ff f8f0 	bl	db33c <__aeabi_dcmplt>
   dc15c:	b9d0      	cbnz	r0, dc194 <_strtod_l+0xa8c>
   dc15e:	4640      	mov	r0, r8
   dc160:	4649      	mov	r1, r9
   dc162:	4b6b      	ldr	r3, [pc, #428]	; (dc310 <_strtod_l+0xc08>)
   dc164:	2200      	movs	r2, #0
   dc166:	f7fe fe77 	bl	dae58 <__aeabi_dmul>
   dc16a:	4680      	mov	r8, r0
   dc16c:	4689      	mov	r9, r1
   dc16e:	f109 4300 	add.w	r3, r9, #2147483648	; 0x80000000
   dc172:	f8cd 8068 	str.w	r8, [sp, #104]	; 0x68
   dc176:	931b      	str	r3, [sp, #108]	; 0x6c
   dc178:	e9dd 231a 	ldrd	r2, r3, [sp, #104]	; 0x68
   dc17c:	e9cd 230c 	strd	r2, r3, [sp, #48]	; 0x30
   dc180:	e79b      	b.n	dc0ba <_strtod_l+0x9b2>
   dc182:	f1ba 0f01 	cmp.w	sl, #1
   dc186:	d102      	bne.n	dc18e <_strtod_l+0xa86>
   dc188:	2f00      	cmp	r7, #0
   dc18a:	f43f ad7e 	beq.w	dbc8a <_strtod_l+0x582>
   dc18e:	4b61      	ldr	r3, [pc, #388]	; (dc314 <_strtod_l+0xc0c>)
   dc190:	2200      	movs	r2, #0
   dc192:	e78c      	b.n	dc0ae <_strtod_l+0x9a6>
   dc194:	f8df 9178 	ldr.w	r9, [pc, #376]	; dc310 <_strtod_l+0xc08>
   dc198:	f04f 0800 	mov.w	r8, #0
   dc19c:	e7e7      	b.n	dc16e <_strtod_l+0xa66>
   dc19e:	4b5c      	ldr	r3, [pc, #368]	; (dc310 <_strtod_l+0xc08>)
   dc1a0:	4640      	mov	r0, r8
   dc1a2:	4649      	mov	r1, r9
   dc1a4:	2200      	movs	r2, #0
   dc1a6:	f7fe fe57 	bl	dae58 <__aeabi_dmul>
   dc1aa:	9b0f      	ldr	r3, [sp, #60]	; 0x3c
   dc1ac:	4680      	mov	r8, r0
   dc1ae:	4689      	mov	r9, r1
   dc1b0:	b933      	cbnz	r3, dc1c0 <_strtod_l+0xab8>
   dc1b2:	f101 4300 	add.w	r3, r1, #2147483648	; 0x80000000
   dc1b6:	9012      	str	r0, [sp, #72]	; 0x48
   dc1b8:	9313      	str	r3, [sp, #76]	; 0x4c
   dc1ba:	e9dd 2312 	ldrd	r2, r3, [sp, #72]	; 0x48
   dc1be:	e7dd      	b.n	dc17c <_strtod_l+0xa74>
   dc1c0:	e9cd 8912 	strd	r8, r9, [sp, #72]	; 0x48
   dc1c4:	e7f9      	b.n	dc1ba <_strtod_l+0xab2>
   dc1c6:	f103 7b54 	add.w	fp, r3, #55574528	; 0x3500000
   dc1ca:	9b04      	ldr	r3, [sp, #16]
   dc1cc:	2b00      	cmp	r3, #0
   dc1ce:	d1a8      	bne.n	dc122 <_strtod_l+0xa1a>
   dc1d0:	f02b 4300 	bic.w	r3, fp, #2147483648	; 0x80000000
   dc1d4:	9a11      	ldr	r2, [sp, #68]	; 0x44
   dc1d6:	0d1b      	lsrs	r3, r3, #20
   dc1d8:	051b      	lsls	r3, r3, #20
   dc1da:	429a      	cmp	r2, r3
   dc1dc:	d1a1      	bne.n	dc122 <_strtod_l+0xa1a>
   dc1de:	4640      	mov	r0, r8
   dc1e0:	4649      	mov	r1, r9
   dc1e2:	f001 f8ff 	bl	dd3e4 <__aeabi_d2lz>
   dc1e6:	f7fe fe09 	bl	dadfc <__aeabi_l2d>
   dc1ea:	4602      	mov	r2, r0
   dc1ec:	460b      	mov	r3, r1
   dc1ee:	4640      	mov	r0, r8
   dc1f0:	4649      	mov	r1, r9
   dc1f2:	f7fe fc79 	bl	daae8 <__aeabi_dsub>
   dc1f6:	9a0f      	ldr	r2, [sp, #60]	; 0x3c
   dc1f8:	f3cb 0313 	ubfx	r3, fp, #0, #20
   dc1fc:	ea43 030a 	orr.w	r3, r3, sl
   dc200:	4313      	orrs	r3, r2
   dc202:	4680      	mov	r8, r0
   dc204:	4689      	mov	r9, r1
   dc206:	d053      	beq.n	dc2b0 <_strtod_l+0xba8>
   dc208:	a335      	add	r3, pc, #212	; (adr r3, dc2e0 <_strtod_l+0xbd8>)
   dc20a:	e9d3 2300 	ldrd	r2, r3, [r3]
   dc20e:	f7ff f895 	bl	db33c <__aeabi_dcmplt>
   dc212:	2800      	cmp	r0, #0
   dc214:	f47f acce 	bne.w	dbbb4 <_strtod_l+0x4ac>
   dc218:	a333      	add	r3, pc, #204	; (adr r3, dc2e8 <_strtod_l+0xbe0>)
   dc21a:	e9d3 2300 	ldrd	r2, r3, [r3]
   dc21e:	4640      	mov	r0, r8
   dc220:	4649      	mov	r1, r9
   dc222:	f7ff f8a9 	bl	db378 <__aeabi_dcmpgt>
   dc226:	2800      	cmp	r0, #0
   dc228:	f43f af7b 	beq.w	dc122 <_strtod_l+0xa1a>
   dc22c:	e4c2      	b.n	dbbb4 <_strtod_l+0x4ac>
   dc22e:	9b04      	ldr	r3, [sp, #16]
   dc230:	b333      	cbz	r3, dc280 <_strtod_l+0xb78>
   dc232:	9b11      	ldr	r3, [sp, #68]	; 0x44
   dc234:	f1b3 6fd4 	cmp.w	r3, #111149056	; 0x6a00000
   dc238:	d822      	bhi.n	dc280 <_strtod_l+0xb78>
   dc23a:	a32d      	add	r3, pc, #180	; (adr r3, dc2f0 <_strtod_l+0xbe8>)
   dc23c:	e9d3 2300 	ldrd	r2, r3, [r3]
   dc240:	4640      	mov	r0, r8
   dc242:	4649      	mov	r1, r9
   dc244:	f7ff f884 	bl	db350 <__aeabi_dcmple>
   dc248:	b1a0      	cbz	r0, dc274 <_strtod_l+0xb6c>
   dc24a:	4649      	mov	r1, r9
   dc24c:	4640      	mov	r0, r8
   dc24e:	f7ff f8b3 	bl	db3b8 <__aeabi_d2uiz>
   dc252:	2801      	cmp	r0, #1
   dc254:	bf38      	it	cc
   dc256:	2001      	movcc	r0, #1
   dc258:	f7fe fd84 	bl	dad64 <__aeabi_ui2d>
   dc25c:	9b0f      	ldr	r3, [sp, #60]	; 0x3c
   dc25e:	4680      	mov	r8, r0
   dc260:	4689      	mov	r9, r1
   dc262:	bb13      	cbnz	r3, dc2aa <_strtod_l+0xba2>
   dc264:	f101 4300 	add.w	r3, r1, #2147483648	; 0x80000000
   dc268:	9014      	str	r0, [sp, #80]	; 0x50
   dc26a:	9315      	str	r3, [sp, #84]	; 0x54
   dc26c:	e9dd 2314 	ldrd	r2, r3, [sp, #80]	; 0x50
   dc270:	e9cd 230c 	strd	r2, r3, [sp, #48]	; 0x30
   dc274:	9b0d      	ldr	r3, [sp, #52]	; 0x34
   dc276:	9a11      	ldr	r2, [sp, #68]	; 0x44
   dc278:	f103 63d6 	add.w	r3, r3, #112197632	; 0x6b00000
   dc27c:	1a9b      	subs	r3, r3, r2
   dc27e:	930d      	str	r3, [sp, #52]	; 0x34
   dc280:	e9dd 010c 	ldrd	r0, r1, [sp, #48]	; 0x30
   dc284:	ed9d 0b0a 	vldr	d0, [sp, #40]	; 0x28
   dc288:	e9cd 010c 	strd	r0, r1, [sp, #48]	; 0x30
   dc28c:	f000 ff42 	bl	dd114 <__ulp>
   dc290:	e9dd 010c 	ldrd	r0, r1, [sp, #48]	; 0x30
   dc294:	ec53 2b10 	vmov	r2, r3, d0
   dc298:	f7fe fdde 	bl	dae58 <__aeabi_dmul>
   dc29c:	e9dd 230a 	ldrd	r2, r3, [sp, #40]	; 0x28
   dc2a0:	f7fe fc24 	bl	daaec <__adddf3>
   dc2a4:	4682      	mov	sl, r0
   dc2a6:	468b      	mov	fp, r1
   dc2a8:	e78f      	b.n	dc1ca <_strtod_l+0xac2>
   dc2aa:	e9cd 8914 	strd	r8, r9, [sp, #80]	; 0x50
   dc2ae:	e7dd      	b.n	dc26c <_strtod_l+0xb64>
   dc2b0:	a311      	add	r3, pc, #68	; (adr r3, dc2f8 <_strtod_l+0xbf0>)
   dc2b2:	e9d3 2300 	ldrd	r2, r3, [r3]
   dc2b6:	f7ff f841 	bl	db33c <__aeabi_dcmplt>
   dc2ba:	e7b4      	b.n	dc226 <_strtod_l+0xb1e>
   dc2bc:	2300      	movs	r3, #0
   dc2be:	930e      	str	r3, [sp, #56]	; 0x38
   dc2c0:	9a19      	ldr	r2, [sp, #100]	; 0x64
   dc2c2:	9b1d      	ldr	r3, [sp, #116]	; 0x74
   dc2c4:	6013      	str	r3, [r2, #0]
   dc2c6:	f7ff ba65 	b.w	db794 <_strtod_l+0x8c>
   dc2ca:	2b65      	cmp	r3, #101	; 0x65
   dc2cc:	f43f ab5d 	beq.w	db98a <_strtod_l+0x282>
   dc2d0:	2b45      	cmp	r3, #69	; 0x45
   dc2d2:	f43f ab5a 	beq.w	db98a <_strtod_l+0x282>
   dc2d6:	2201      	movs	r2, #1
   dc2d8:	f7ff bb92 	b.w	dba00 <_strtod_l+0x2f8>
   dc2dc:	f3af 8000 	nop.w
   dc2e0:	94a03595 	.word	0x94a03595
   dc2e4:	3fdfffff 	.word	0x3fdfffff
   dc2e8:	35afe535 	.word	0x35afe535
   dc2ec:	3fe00000 	.word	0x3fe00000
   dc2f0:	ffc00000 	.word	0xffc00000
   dc2f4:	41dfffff 	.word	0x41dfffff
   dc2f8:	94a03595 	.word	0x94a03595
   dc2fc:	3fcfffff 	.word	0x3fcfffff
   dc300:	3ff00000 	.word	0x3ff00000
   dc304:	7ff00000 	.word	0x7ff00000
   dc308:	7fe00000 	.word	0x7fe00000
   dc30c:	7c9fffff 	.word	0x7c9fffff
   dc310:	3fe00000 	.word	0x3fe00000
   dc314:	bff00000 	.word	0xbff00000
   dc318:	7fefffff 	.word	0x7fefffff

000dc31c <strtod>:
   dc31c:	460a      	mov	r2, r1
   dc31e:	4601      	mov	r1, r0
   dc320:	4802      	ldr	r0, [pc, #8]	; (dc32c <strtod+0x10>)
   dc322:	4b03      	ldr	r3, [pc, #12]	; (dc330 <strtod+0x14>)
   dc324:	6800      	ldr	r0, [r0, #0]
   dc326:	f7ff b9ef 	b.w	db708 <_strtod_l>
   dc32a:	bf00      	nop
   dc32c:	2003dd08 	.word	0x2003dd08
   dc330:	2003dd70 	.word	0x2003dd70

000dc334 <_strtol_l.isra.0>:
   dc334:	e92d 47f0 	stmdb	sp!, {r4, r5, r6, r7, r8, r9, sl, lr}
   dc338:	4e3a      	ldr	r6, [pc, #232]	; (dc424 <_strtol_l.isra.0+0xf0>)
   dc33a:	4686      	mov	lr, r0
   dc33c:	468c      	mov	ip, r1
   dc33e:	4660      	mov	r0, ip
   dc340:	f81c 4b01 	ldrb.w	r4, [ip], #1
   dc344:	5da5      	ldrb	r5, [r4, r6]
   dc346:	f015 0508 	ands.w	r5, r5, #8
   dc34a:	d1f8      	bne.n	dc33e <_strtol_l.isra.0+0xa>
   dc34c:	2c2d      	cmp	r4, #45	; 0x2d
   dc34e:	d133      	bne.n	dc3b8 <_strtol_l.isra.0+0x84>
   dc350:	f89c 4000 	ldrb.w	r4, [ip]
   dc354:	f04f 0801 	mov.w	r8, #1
   dc358:	f100 0c02 	add.w	ip, r0, #2
   dc35c:	2b00      	cmp	r3, #0
   dc35e:	d05c      	beq.n	dc41a <_strtol_l.isra.0+0xe6>
   dc360:	2b10      	cmp	r3, #16
   dc362:	d10c      	bne.n	dc37e <_strtol_l.isra.0+0x4a>
   dc364:	2c30      	cmp	r4, #48	; 0x30
   dc366:	d10a      	bne.n	dc37e <_strtol_l.isra.0+0x4a>
   dc368:	f89c 0000 	ldrb.w	r0, [ip]
   dc36c:	f000 00df 	and.w	r0, r0, #223	; 0xdf
   dc370:	2858      	cmp	r0, #88	; 0x58
   dc372:	d14d      	bne.n	dc410 <_strtol_l.isra.0+0xdc>
   dc374:	f89c 4001 	ldrb.w	r4, [ip, #1]
   dc378:	2310      	movs	r3, #16
   dc37a:	f10c 0c02 	add.w	ip, ip, #2
   dc37e:	f108 4700 	add.w	r7, r8, #2147483648	; 0x80000000
   dc382:	3f01      	subs	r7, #1
   dc384:	2600      	movs	r6, #0
   dc386:	fbb7 f9f3 	udiv	r9, r7, r3
   dc38a:	4630      	mov	r0, r6
   dc38c:	fb03 7a19 	mls	sl, r3, r9, r7
   dc390:	f1a4 0530 	sub.w	r5, r4, #48	; 0x30
   dc394:	2d09      	cmp	r5, #9
   dc396:	d818      	bhi.n	dc3ca <_strtol_l.isra.0+0x96>
   dc398:	462c      	mov	r4, r5
   dc39a:	42a3      	cmp	r3, r4
   dc39c:	dd24      	ble.n	dc3e8 <_strtol_l.isra.0+0xb4>
   dc39e:	1c75      	adds	r5, r6, #1
   dc3a0:	d007      	beq.n	dc3b2 <_strtol_l.isra.0+0x7e>
   dc3a2:	4581      	cmp	r9, r0
   dc3a4:	d31d      	bcc.n	dc3e2 <_strtol_l.isra.0+0xae>
   dc3a6:	d101      	bne.n	dc3ac <_strtol_l.isra.0+0x78>
   dc3a8:	45a2      	cmp	sl, r4
   dc3aa:	db1a      	blt.n	dc3e2 <_strtol_l.isra.0+0xae>
   dc3ac:	fb00 4003 	mla	r0, r0, r3, r4
   dc3b0:	2601      	movs	r6, #1
   dc3b2:	f81c 4b01 	ldrb.w	r4, [ip], #1
   dc3b6:	e7eb      	b.n	dc390 <_strtol_l.isra.0+0x5c>
   dc3b8:	2c2b      	cmp	r4, #43	; 0x2b
   dc3ba:	bf08      	it	eq
   dc3bc:	f89c 4000 	ldrbeq.w	r4, [ip]
   dc3c0:	46a8      	mov	r8, r5
   dc3c2:	bf08      	it	eq
   dc3c4:	f100 0c02 	addeq.w	ip, r0, #2
   dc3c8:	e7c8      	b.n	dc35c <_strtol_l.isra.0+0x28>
   dc3ca:	f1a4 0541 	sub.w	r5, r4, #65	; 0x41
   dc3ce:	2d19      	cmp	r5, #25
   dc3d0:	d801      	bhi.n	dc3d6 <_strtol_l.isra.0+0xa2>
   dc3d2:	3c37      	subs	r4, #55	; 0x37
   dc3d4:	e7e1      	b.n	dc39a <_strtol_l.isra.0+0x66>
   dc3d6:	f1a4 0561 	sub.w	r5, r4, #97	; 0x61
   dc3da:	2d19      	cmp	r5, #25
   dc3dc:	d804      	bhi.n	dc3e8 <_strtol_l.isra.0+0xb4>
   dc3de:	3c57      	subs	r4, #87	; 0x57
   dc3e0:	e7db      	b.n	dc39a <_strtol_l.isra.0+0x66>
   dc3e2:	f04f 36ff 	mov.w	r6, #4294967295	; 0xffffffff
   dc3e6:	e7e4      	b.n	dc3b2 <_strtol_l.isra.0+0x7e>
   dc3e8:	1c73      	adds	r3, r6, #1
   dc3ea:	d106      	bne.n	dc3fa <_strtol_l.isra.0+0xc6>
   dc3ec:	2322      	movs	r3, #34	; 0x22
   dc3ee:	f8ce 3000 	str.w	r3, [lr]
   dc3f2:	4638      	mov	r0, r7
   dc3f4:	b942      	cbnz	r2, dc408 <_strtol_l.isra.0+0xd4>
   dc3f6:	e8bd 87f0 	ldmia.w	sp!, {r4, r5, r6, r7, r8, r9, sl, pc}
   dc3fa:	f1b8 0f00 	cmp.w	r8, #0
   dc3fe:	d000      	beq.n	dc402 <_strtol_l.isra.0+0xce>
   dc400:	4240      	negs	r0, r0
   dc402:	2a00      	cmp	r2, #0
   dc404:	d0f7      	beq.n	dc3f6 <_strtol_l.isra.0+0xc2>
   dc406:	b10e      	cbz	r6, dc40c <_strtol_l.isra.0+0xd8>
   dc408:	f10c 31ff 	add.w	r1, ip, #4294967295	; 0xffffffff
   dc40c:	6011      	str	r1, [r2, #0]
   dc40e:	e7f2      	b.n	dc3f6 <_strtol_l.isra.0+0xc2>
   dc410:	2430      	movs	r4, #48	; 0x30
   dc412:	2b00      	cmp	r3, #0
   dc414:	d1b3      	bne.n	dc37e <_strtol_l.isra.0+0x4a>
   dc416:	2308      	movs	r3, #8
   dc418:	e7b1      	b.n	dc37e <_strtol_l.isra.0+0x4a>
   dc41a:	2c30      	cmp	r4, #48	; 0x30
   dc41c:	d0a4      	beq.n	dc368 <_strtol_l.isra.0+0x34>
   dc41e:	230a      	movs	r3, #10
   dc420:	e7ad      	b.n	dc37e <_strtol_l.isra.0+0x4a>
   dc422:	bf00      	nop
   dc424:	000de5b1 	.word	0x000de5b1

000dc428 <strtol>:
   dc428:	4613      	mov	r3, r2
   dc42a:	460a      	mov	r2, r1
   dc42c:	4601      	mov	r1, r0
   dc42e:	4802      	ldr	r0, [pc, #8]	; (dc438 <strtol+0x10>)
   dc430:	6800      	ldr	r0, [r0, #0]
   dc432:	f7ff bf7f 	b.w	dc334 <_strtol_l.isra.0>
   dc436:	bf00      	nop
   dc438:	2003dd08 	.word	0x2003dd08

000dc43c <rshift>:
   dc43c:	6903      	ldr	r3, [r0, #16]
   dc43e:	ebb3 1f61 	cmp.w	r3, r1, asr #5
   dc442:	e92d 43f0 	stmdb	sp!, {r4, r5, r6, r7, r8, r9, lr}
   dc446:	ea4f 1261 	mov.w	r2, r1, asr #5
   dc44a:	f100 0414 	add.w	r4, r0, #20
   dc44e:	dd45      	ble.n	dc4dc <rshift+0xa0>
   dc450:	f011 011f 	ands.w	r1, r1, #31
   dc454:	eb04 0683 	add.w	r6, r4, r3, lsl #2
   dc458:	eb04 0582 	add.w	r5, r4, r2, lsl #2
   dc45c:	d10c      	bne.n	dc478 <rshift+0x3c>
   dc45e:	f100 0710 	add.w	r7, r0, #16
   dc462:	4629      	mov	r1, r5
   dc464:	42b1      	cmp	r1, r6
   dc466:	d334      	bcc.n	dc4d2 <rshift+0x96>
   dc468:	1a9b      	subs	r3, r3, r2
   dc46a:	009b      	lsls	r3, r3, #2
   dc46c:	1eea      	subs	r2, r5, #3
   dc46e:	4296      	cmp	r6, r2
   dc470:	bf38      	it	cc
   dc472:	2300      	movcc	r3, #0
   dc474:	4423      	add	r3, r4
   dc476:	e015      	b.n	dc4a4 <rshift+0x68>
   dc478:	f854 7022 	ldr.w	r7, [r4, r2, lsl #2]
   dc47c:	f1c1 0820 	rsb	r8, r1, #32
   dc480:	40cf      	lsrs	r7, r1
   dc482:	f105 0e04 	add.w	lr, r5, #4
   dc486:	46a1      	mov	r9, r4
   dc488:	4576      	cmp	r6, lr
   dc48a:	46f4      	mov	ip, lr
   dc48c:	d815      	bhi.n	dc4ba <rshift+0x7e>
   dc48e:	1a9b      	subs	r3, r3, r2
   dc490:	009a      	lsls	r2, r3, #2
   dc492:	3a04      	subs	r2, #4
   dc494:	3501      	adds	r5, #1
   dc496:	42ae      	cmp	r6, r5
   dc498:	bf38      	it	cc
   dc49a:	2200      	movcc	r2, #0
   dc49c:	18a3      	adds	r3, r4, r2
   dc49e:	50a7      	str	r7, [r4, r2]
   dc4a0:	b107      	cbz	r7, dc4a4 <rshift+0x68>
   dc4a2:	3304      	adds	r3, #4
   dc4a4:	1b1a      	subs	r2, r3, r4
   dc4a6:	42a3      	cmp	r3, r4
   dc4a8:	ea4f 02a2 	mov.w	r2, r2, asr #2
   dc4ac:	bf08      	it	eq
   dc4ae:	2300      	moveq	r3, #0
   dc4b0:	6102      	str	r2, [r0, #16]
   dc4b2:	bf08      	it	eq
   dc4b4:	6143      	streq	r3, [r0, #20]
   dc4b6:	e8bd 83f0 	ldmia.w	sp!, {r4, r5, r6, r7, r8, r9, pc}
   dc4ba:	f8dc c000 	ldr.w	ip, [ip]
   dc4be:	fa0c fc08 	lsl.w	ip, ip, r8
   dc4c2:	ea4c 0707 	orr.w	r7, ip, r7
   dc4c6:	f849 7b04 	str.w	r7, [r9], #4
   dc4ca:	f85e 7b04 	ldr.w	r7, [lr], #4
   dc4ce:	40cf      	lsrs	r7, r1
   dc4d0:	e7da      	b.n	dc488 <rshift+0x4c>
   dc4d2:	f851 cb04 	ldr.w	ip, [r1], #4
   dc4d6:	f847 cf04 	str.w	ip, [r7, #4]!
   dc4da:	e7c3      	b.n	dc464 <rshift+0x28>
   dc4dc:	4623      	mov	r3, r4
   dc4de:	e7e1      	b.n	dc4a4 <rshift+0x68>

000dc4e0 <__hexdig_fun>:
   dc4e0:	f1a0 0330 	sub.w	r3, r0, #48	; 0x30
   dc4e4:	2b09      	cmp	r3, #9
   dc4e6:	d802      	bhi.n	dc4ee <__hexdig_fun+0xe>
   dc4e8:	3820      	subs	r0, #32
   dc4ea:	b2c0      	uxtb	r0, r0
   dc4ec:	4770      	bx	lr
   dc4ee:	f1a0 0361 	sub.w	r3, r0, #97	; 0x61
   dc4f2:	2b05      	cmp	r3, #5
   dc4f4:	d801      	bhi.n	dc4fa <__hexdig_fun+0x1a>
   dc4f6:	3847      	subs	r0, #71	; 0x47
   dc4f8:	e7f7      	b.n	dc4ea <__hexdig_fun+0xa>
   dc4fa:	f1a0 0341 	sub.w	r3, r0, #65	; 0x41
   dc4fe:	2b05      	cmp	r3, #5
   dc500:	d801      	bhi.n	dc506 <__hexdig_fun+0x26>
   dc502:	3827      	subs	r0, #39	; 0x27
   dc504:	e7f1      	b.n	dc4ea <__hexdig_fun+0xa>
   dc506:	2000      	movs	r0, #0
   dc508:	4770      	bx	lr
	...

000dc50c <__gethex>:
   dc50c:	e92d 4ff0 	stmdb	sp!, {r4, r5, r6, r7, r8, r9, sl, fp, lr}
   dc510:	ed2d 8b02 	vpush	{d8}
   dc514:	b089      	sub	sp, #36	; 0x24
   dc516:	ee08 0a10 	vmov	s16, r0
   dc51a:	9304      	str	r3, [sp, #16]
   dc51c:	4bbc      	ldr	r3, [pc, #752]	; (dc810 <__gethex+0x304>)
   dc51e:	681b      	ldr	r3, [r3, #0]
   dc520:	9301      	str	r3, [sp, #4]
   dc522:	4618      	mov	r0, r3
   dc524:	468b      	mov	fp, r1
   dc526:	4690      	mov	r8, r2
   dc528:	f7ff f8a5 	bl	db676 <strlen>
   dc52c:	9b01      	ldr	r3, [sp, #4]
   dc52e:	f8db 2000 	ldr.w	r2, [fp]
   dc532:	4403      	add	r3, r0
   dc534:	4682      	mov	sl, r0
   dc536:	f813 3c01 	ldrb.w	r3, [r3, #-1]
   dc53a:	9305      	str	r3, [sp, #20]
   dc53c:	1c93      	adds	r3, r2, #2
   dc53e:	f1c2 22ff 	rsb	r2, r2, #4278255360	; 0xff00ff00
   dc542:	f502 027f 	add.w	r2, r2, #16711680	; 0xff0000
   dc546:	32fe      	adds	r2, #254	; 0xfe
   dc548:	18d1      	adds	r1, r2, r3
   dc54a:	461f      	mov	r7, r3
   dc54c:	f813 0b01 	ldrb.w	r0, [r3], #1
   dc550:	9100      	str	r1, [sp, #0]
   dc552:	2830      	cmp	r0, #48	; 0x30
   dc554:	d0f8      	beq.n	dc548 <__gethex+0x3c>
   dc556:	f7ff ffc3 	bl	dc4e0 <__hexdig_fun>
   dc55a:	4604      	mov	r4, r0
   dc55c:	2800      	cmp	r0, #0
   dc55e:	d13a      	bne.n	dc5d6 <__gethex+0xca>
   dc560:	9901      	ldr	r1, [sp, #4]
   dc562:	4652      	mov	r2, sl
   dc564:	4638      	mov	r0, r7
   dc566:	f7ff f88e 	bl	db686 <strncmp>
   dc56a:	4605      	mov	r5, r0
   dc56c:	2800      	cmp	r0, #0
   dc56e:	d168      	bne.n	dc642 <__gethex+0x136>
   dc570:	f817 000a 	ldrb.w	r0, [r7, sl]
   dc574:	eb07 060a 	add.w	r6, r7, sl
   dc578:	f7ff ffb2 	bl	dc4e0 <__hexdig_fun>
   dc57c:	2800      	cmp	r0, #0
   dc57e:	d062      	beq.n	dc646 <__gethex+0x13a>
   dc580:	4633      	mov	r3, r6
   dc582:	7818      	ldrb	r0, [r3, #0]
   dc584:	2830      	cmp	r0, #48	; 0x30
   dc586:	461f      	mov	r7, r3
   dc588:	f103 0301 	add.w	r3, r3, #1
   dc58c:	d0f9      	beq.n	dc582 <__gethex+0x76>
   dc58e:	f7ff ffa7 	bl	dc4e0 <__hexdig_fun>
   dc592:	2301      	movs	r3, #1
   dc594:	fab0 f480 	clz	r4, r0
   dc598:	0964      	lsrs	r4, r4, #5
   dc59a:	4635      	mov	r5, r6
   dc59c:	9300      	str	r3, [sp, #0]
   dc59e:	463a      	mov	r2, r7
   dc5a0:	4616      	mov	r6, r2
   dc5a2:	3201      	adds	r2, #1
   dc5a4:	7830      	ldrb	r0, [r6, #0]
   dc5a6:	f7ff ff9b 	bl	dc4e0 <__hexdig_fun>
   dc5aa:	2800      	cmp	r0, #0
   dc5ac:	d1f8      	bne.n	dc5a0 <__gethex+0x94>
   dc5ae:	9901      	ldr	r1, [sp, #4]
   dc5b0:	4652      	mov	r2, sl
   dc5b2:	4630      	mov	r0, r6
   dc5b4:	f7ff f867 	bl	db686 <strncmp>
   dc5b8:	b980      	cbnz	r0, dc5dc <__gethex+0xd0>
   dc5ba:	b94d      	cbnz	r5, dc5d0 <__gethex+0xc4>
   dc5bc:	eb06 050a 	add.w	r5, r6, sl
   dc5c0:	462a      	mov	r2, r5
   dc5c2:	4616      	mov	r6, r2
   dc5c4:	3201      	adds	r2, #1
   dc5c6:	7830      	ldrb	r0, [r6, #0]
   dc5c8:	f7ff ff8a 	bl	dc4e0 <__hexdig_fun>
   dc5cc:	2800      	cmp	r0, #0
   dc5ce:	d1f8      	bne.n	dc5c2 <__gethex+0xb6>
   dc5d0:	1bad      	subs	r5, r5, r6
   dc5d2:	00ad      	lsls	r5, r5, #2
   dc5d4:	e004      	b.n	dc5e0 <__gethex+0xd4>
   dc5d6:	2400      	movs	r4, #0
   dc5d8:	4625      	mov	r5, r4
   dc5da:	e7e0      	b.n	dc59e <__gethex+0x92>
   dc5dc:	2d00      	cmp	r5, #0
   dc5de:	d1f7      	bne.n	dc5d0 <__gethex+0xc4>
   dc5e0:	7833      	ldrb	r3, [r6, #0]
   dc5e2:	f003 03df 	and.w	r3, r3, #223	; 0xdf
   dc5e6:	2b50      	cmp	r3, #80	; 0x50
   dc5e8:	d13b      	bne.n	dc662 <__gethex+0x156>
   dc5ea:	7873      	ldrb	r3, [r6, #1]
   dc5ec:	2b2b      	cmp	r3, #43	; 0x2b
   dc5ee:	d02c      	beq.n	dc64a <__gethex+0x13e>
   dc5f0:	2b2d      	cmp	r3, #45	; 0x2d
   dc5f2:	d02e      	beq.n	dc652 <__gethex+0x146>
   dc5f4:	1c71      	adds	r1, r6, #1
   dc5f6:	f04f 0900 	mov.w	r9, #0
   dc5fa:	7808      	ldrb	r0, [r1, #0]
   dc5fc:	f7ff ff70 	bl	dc4e0 <__hexdig_fun>
   dc600:	1e43      	subs	r3, r0, #1
   dc602:	b2db      	uxtb	r3, r3
   dc604:	2b18      	cmp	r3, #24
   dc606:	d82c      	bhi.n	dc662 <__gethex+0x156>
   dc608:	f1a0 0210 	sub.w	r2, r0, #16
   dc60c:	f811 0f01 	ldrb.w	r0, [r1, #1]!
   dc610:	f7ff ff66 	bl	dc4e0 <__hexdig_fun>
   dc614:	1e43      	subs	r3, r0, #1
   dc616:	b2db      	uxtb	r3, r3
   dc618:	2b18      	cmp	r3, #24
   dc61a:	d91d      	bls.n	dc658 <__gethex+0x14c>
   dc61c:	f1b9 0f00 	cmp.w	r9, #0
   dc620:	d000      	beq.n	dc624 <__gethex+0x118>
   dc622:	4252      	negs	r2, r2
   dc624:	4415      	add	r5, r2
   dc626:	f8cb 1000 	str.w	r1, [fp]
   dc62a:	b1e4      	cbz	r4, dc666 <__gethex+0x15a>
   dc62c:	9b00      	ldr	r3, [sp, #0]
   dc62e:	2b00      	cmp	r3, #0
   dc630:	bf14      	ite	ne
   dc632:	2700      	movne	r7, #0
   dc634:	2706      	moveq	r7, #6
   dc636:	4638      	mov	r0, r7
   dc638:	b009      	add	sp, #36	; 0x24
   dc63a:	ecbd 8b02 	vpop	{d8}
   dc63e:	e8bd 8ff0 	ldmia.w	sp!, {r4, r5, r6, r7, r8, r9, sl, fp, pc}
   dc642:	463e      	mov	r6, r7
   dc644:	4625      	mov	r5, r4
   dc646:	2401      	movs	r4, #1
   dc648:	e7ca      	b.n	dc5e0 <__gethex+0xd4>
   dc64a:	f04f 0900 	mov.w	r9, #0
   dc64e:	1cb1      	adds	r1, r6, #2
   dc650:	e7d3      	b.n	dc5fa <__gethex+0xee>
   dc652:	f04f 0901 	mov.w	r9, #1
   dc656:	e7fa      	b.n	dc64e <__gethex+0x142>
   dc658:	230a      	movs	r3, #10
   dc65a:	fb03 0202 	mla	r2, r3, r2, r0
   dc65e:	3a10      	subs	r2, #16
   dc660:	e7d4      	b.n	dc60c <__gethex+0x100>
   dc662:	4631      	mov	r1, r6
   dc664:	e7df      	b.n	dc626 <__gethex+0x11a>
   dc666:	1bf3      	subs	r3, r6, r7
   dc668:	3b01      	subs	r3, #1
   dc66a:	4621      	mov	r1, r4
   dc66c:	2b07      	cmp	r3, #7
   dc66e:	dc52      	bgt.n	dc716 <__gethex+0x20a>
   dc670:	ee18 0a10 	vmov	r0, s16
   dc674:	f000 fa52 	bl	dcb1c <_Balloc>
   dc678:	f04f 0b00 	mov.w	fp, #0
   dc67c:	f100 0914 	add.w	r9, r0, #20
   dc680:	f1ca 0301 	rsb	r3, sl, #1
   dc684:	4604      	mov	r4, r0
   dc686:	f8cd 9008 	str.w	r9, [sp, #8]
   dc68a:	f8cd b000 	str.w	fp, [sp]
   dc68e:	9306      	str	r3, [sp, #24]
   dc690:	42b7      	cmp	r7, r6
   dc692:	d343      	bcc.n	dc71c <__gethex+0x210>
   dc694:	9802      	ldr	r0, [sp, #8]
   dc696:	9b00      	ldr	r3, [sp, #0]
   dc698:	f840 3b04 	str.w	r3, [r0], #4
   dc69c:	eba0 0009 	sub.w	r0, r0, r9
   dc6a0:	1080      	asrs	r0, r0, #2
   dc6a2:	0146      	lsls	r6, r0, #5
   dc6a4:	6120      	str	r0, [r4, #16]
   dc6a6:	4618      	mov	r0, r3
   dc6a8:	f000 faff 	bl	dccaa <__hi0bits>
   dc6ac:	1a30      	subs	r0, r6, r0
   dc6ae:	f8d8 6000 	ldr.w	r6, [r8]
   dc6b2:	42b0      	cmp	r0, r6
   dc6b4:	dd66      	ble.n	dc784 <__gethex+0x278>
   dc6b6:	1b87      	subs	r7, r0, r6
   dc6b8:	4639      	mov	r1, r7
   dc6ba:	4620      	mov	r0, r4
   dc6bc:	f000 fe4c 	bl	dd358 <__any_on>
   dc6c0:	4682      	mov	sl, r0
   dc6c2:	b1a8      	cbz	r0, dc6f0 <__gethex+0x1e4>
   dc6c4:	1e7b      	subs	r3, r7, #1
   dc6c6:	1159      	asrs	r1, r3, #5
   dc6c8:	f003 021f 	and.w	r2, r3, #31
   dc6cc:	f859 1021 	ldr.w	r1, [r9, r1, lsl #2]
   dc6d0:	f04f 0a01 	mov.w	sl, #1
   dc6d4:	fa0a f202 	lsl.w	r2, sl, r2
   dc6d8:	420a      	tst	r2, r1
   dc6da:	d009      	beq.n	dc6f0 <__gethex+0x1e4>
   dc6dc:	4553      	cmp	r3, sl
   dc6de:	dd05      	ble.n	dc6ec <__gethex+0x1e0>
   dc6e0:	1eb9      	subs	r1, r7, #2
   dc6e2:	4620      	mov	r0, r4
   dc6e4:	f000 fe38 	bl	dd358 <__any_on>
   dc6e8:	2800      	cmp	r0, #0
   dc6ea:	d148      	bne.n	dc77e <__gethex+0x272>
   dc6ec:	f04f 0a02 	mov.w	sl, #2
   dc6f0:	4639      	mov	r1, r7
   dc6f2:	4620      	mov	r0, r4
   dc6f4:	f7ff fea2 	bl	dc43c <rshift>
   dc6f8:	443d      	add	r5, r7
   dc6fa:	f8d8 3008 	ldr.w	r3, [r8, #8]
   dc6fe:	42ab      	cmp	r3, r5
   dc700:	da4f      	bge.n	dc7a2 <__gethex+0x296>
   dc702:	ee18 0a10 	vmov	r0, s16
   dc706:	4621      	mov	r1, r4
   dc708:	f000 fa3c 	bl	dcb84 <_Bfree>
   dc70c:	9a14      	ldr	r2, [sp, #80]	; 0x50
   dc70e:	2300      	movs	r3, #0
   dc710:	6013      	str	r3, [r2, #0]
   dc712:	27a3      	movs	r7, #163	; 0xa3
   dc714:	e78f      	b.n	dc636 <__gethex+0x12a>
   dc716:	3101      	adds	r1, #1
   dc718:	105b      	asrs	r3, r3, #1
   dc71a:	e7a7      	b.n	dc66c <__gethex+0x160>
   dc71c:	1e73      	subs	r3, r6, #1
   dc71e:	9a05      	ldr	r2, [sp, #20]
   dc720:	9303      	str	r3, [sp, #12]
   dc722:	f816 3c01 	ldrb.w	r3, [r6, #-1]
   dc726:	4293      	cmp	r3, r2
   dc728:	d019      	beq.n	dc75e <__gethex+0x252>
   dc72a:	f1bb 0f20 	cmp.w	fp, #32
   dc72e:	d107      	bne.n	dc740 <__gethex+0x234>
   dc730:	9b02      	ldr	r3, [sp, #8]
   dc732:	9a00      	ldr	r2, [sp, #0]
   dc734:	f843 2b04 	str.w	r2, [r3], #4
   dc738:	9302      	str	r3, [sp, #8]
   dc73a:	2300      	movs	r3, #0
   dc73c:	9300      	str	r3, [sp, #0]
   dc73e:	469b      	mov	fp, r3
   dc740:	f816 0c01 	ldrb.w	r0, [r6, #-1]
   dc744:	f7ff fecc 	bl	dc4e0 <__hexdig_fun>
   dc748:	9b00      	ldr	r3, [sp, #0]
   dc74a:	f000 000f 	and.w	r0, r0, #15
   dc74e:	fa00 f00b 	lsl.w	r0, r0, fp
   dc752:	4303      	orrs	r3, r0
   dc754:	9300      	str	r3, [sp, #0]
   dc756:	f10b 0b04 	add.w	fp, fp, #4
   dc75a:	9b03      	ldr	r3, [sp, #12]
   dc75c:	e00d      	b.n	dc77a <__gethex+0x26e>
   dc75e:	9b03      	ldr	r3, [sp, #12]
   dc760:	9a06      	ldr	r2, [sp, #24]
   dc762:	4413      	add	r3, r2
   dc764:	42bb      	cmp	r3, r7
   dc766:	d3e0      	bcc.n	dc72a <__gethex+0x21e>
   dc768:	4618      	mov	r0, r3
   dc76a:	9901      	ldr	r1, [sp, #4]
   dc76c:	9307      	str	r3, [sp, #28]
   dc76e:	4652      	mov	r2, sl
   dc770:	f7fe ff89 	bl	db686 <strncmp>
   dc774:	9b07      	ldr	r3, [sp, #28]
   dc776:	2800      	cmp	r0, #0
   dc778:	d1d7      	bne.n	dc72a <__gethex+0x21e>
   dc77a:	461e      	mov	r6, r3
   dc77c:	e788      	b.n	dc690 <__gethex+0x184>
   dc77e:	f04f 0a03 	mov.w	sl, #3
   dc782:	e7b5      	b.n	dc6f0 <__gethex+0x1e4>
   dc784:	da0a      	bge.n	dc79c <__gethex+0x290>
   dc786:	1a37      	subs	r7, r6, r0
   dc788:	4621      	mov	r1, r4
   dc78a:	ee18 0a10 	vmov	r0, s16
   dc78e:	463a      	mov	r2, r7
   dc790:	f000 fbce 	bl	dcf30 <__lshift>
   dc794:	1bed      	subs	r5, r5, r7
   dc796:	4604      	mov	r4, r0
   dc798:	f100 0914 	add.w	r9, r0, #20
   dc79c:	f04f 0a00 	mov.w	sl, #0
   dc7a0:	e7ab      	b.n	dc6fa <__gethex+0x1ee>
   dc7a2:	f8d8 0004 	ldr.w	r0, [r8, #4]
   dc7a6:	42a8      	cmp	r0, r5
   dc7a8:	dd6d      	ble.n	dc886 <__gethex+0x37a>
   dc7aa:	1b45      	subs	r5, r0, r5
   dc7ac:	42ae      	cmp	r6, r5
   dc7ae:	dc31      	bgt.n	dc814 <__gethex+0x308>
   dc7b0:	f8d8 300c 	ldr.w	r3, [r8, #12]
   dc7b4:	2b02      	cmp	r3, #2
   dc7b6:	d023      	beq.n	dc800 <__gethex+0x2f4>
   dc7b8:	2b03      	cmp	r3, #3
   dc7ba:	d025      	beq.n	dc808 <__gethex+0x2fc>
   dc7bc:	2b01      	cmp	r3, #1
   dc7be:	d115      	bne.n	dc7ec <__gethex+0x2e0>
   dc7c0:	42ae      	cmp	r6, r5
   dc7c2:	d113      	bne.n	dc7ec <__gethex+0x2e0>
   dc7c4:	2e01      	cmp	r6, #1
   dc7c6:	d10b      	bne.n	dc7e0 <__gethex+0x2d4>
   dc7c8:	9a04      	ldr	r2, [sp, #16]
   dc7ca:	f8d8 3004 	ldr.w	r3, [r8, #4]
   dc7ce:	6013      	str	r3, [r2, #0]
   dc7d0:	2301      	movs	r3, #1
   dc7d2:	6123      	str	r3, [r4, #16]
   dc7d4:	f8c9 3000 	str.w	r3, [r9]
   dc7d8:	9b14      	ldr	r3, [sp, #80]	; 0x50
   dc7da:	2762      	movs	r7, #98	; 0x62
   dc7dc:	601c      	str	r4, [r3, #0]
   dc7de:	e72a      	b.n	dc636 <__gethex+0x12a>
   dc7e0:	1e71      	subs	r1, r6, #1
   dc7e2:	4620      	mov	r0, r4
   dc7e4:	f000 fdb8 	bl	dd358 <__any_on>
   dc7e8:	2800      	cmp	r0, #0
   dc7ea:	d1ed      	bne.n	dc7c8 <__gethex+0x2bc>
   dc7ec:	ee18 0a10 	vmov	r0, s16
   dc7f0:	4621      	mov	r1, r4
   dc7f2:	f000 f9c7 	bl	dcb84 <_Bfree>
   dc7f6:	9a14      	ldr	r2, [sp, #80]	; 0x50
   dc7f8:	2300      	movs	r3, #0
   dc7fa:	6013      	str	r3, [r2, #0]
   dc7fc:	2750      	movs	r7, #80	; 0x50
   dc7fe:	e71a      	b.n	dc636 <__gethex+0x12a>
   dc800:	9b15      	ldr	r3, [sp, #84]	; 0x54
   dc802:	2b00      	cmp	r3, #0
   dc804:	d1f2      	bne.n	dc7ec <__gethex+0x2e0>
   dc806:	e7df      	b.n	dc7c8 <__gethex+0x2bc>
   dc808:	9b15      	ldr	r3, [sp, #84]	; 0x54
   dc80a:	2b00      	cmp	r3, #0
   dc80c:	d1dc      	bne.n	dc7c8 <__gethex+0x2bc>
   dc80e:	e7ed      	b.n	dc7ec <__gethex+0x2e0>
   dc810:	000de6b4 	.word	0x000de6b4
   dc814:	1e6f      	subs	r7, r5, #1
   dc816:	f1ba 0f00 	cmp.w	sl, #0
   dc81a:	d131      	bne.n	dc880 <__gethex+0x374>
   dc81c:	b127      	cbz	r7, dc828 <__gethex+0x31c>
   dc81e:	4639      	mov	r1, r7
   dc820:	4620      	mov	r0, r4
   dc822:	f000 fd99 	bl	dd358 <__any_on>
   dc826:	4682      	mov	sl, r0
   dc828:	117b      	asrs	r3, r7, #5
   dc82a:	2101      	movs	r1, #1
   dc82c:	f859 3023 	ldr.w	r3, [r9, r3, lsl #2]
   dc830:	f007 071f 	and.w	r7, r7, #31
   dc834:	fa01 f707 	lsl.w	r7, r1, r7
   dc838:	421f      	tst	r7, r3
   dc83a:	4629      	mov	r1, r5
   dc83c:	4620      	mov	r0, r4
   dc83e:	bf18      	it	ne
   dc840:	f04a 0a02 	orrne.w	sl, sl, #2
   dc844:	1b76      	subs	r6, r6, r5
   dc846:	f7ff fdf9 	bl	dc43c <rshift>
   dc84a:	f8d8 5004 	ldr.w	r5, [r8, #4]
   dc84e:	2702      	movs	r7, #2
   dc850:	f1ba 0f00 	cmp.w	sl, #0
   dc854:	d048      	beq.n	dc8e8 <__gethex+0x3dc>
   dc856:	f8d8 300c 	ldr.w	r3, [r8, #12]
   dc85a:	2b02      	cmp	r3, #2
   dc85c:	d015      	beq.n	dc88a <__gethex+0x37e>
   dc85e:	2b03      	cmp	r3, #3
   dc860:	d017      	beq.n	dc892 <__gethex+0x386>
   dc862:	2b01      	cmp	r3, #1
   dc864:	d109      	bne.n	dc87a <__gethex+0x36e>
   dc866:	f01a 0f02 	tst.w	sl, #2
   dc86a:	d006      	beq.n	dc87a <__gethex+0x36e>
   dc86c:	f8d9 0000 	ldr.w	r0, [r9]
   dc870:	ea4a 0a00 	orr.w	sl, sl, r0
   dc874:	f01a 0f01 	tst.w	sl, #1
   dc878:	d10e      	bne.n	dc898 <__gethex+0x38c>
   dc87a:	f047 0710 	orr.w	r7, r7, #16
   dc87e:	e033      	b.n	dc8e8 <__gethex+0x3dc>
   dc880:	f04f 0a01 	mov.w	sl, #1
   dc884:	e7d0      	b.n	dc828 <__gethex+0x31c>
   dc886:	2701      	movs	r7, #1
   dc888:	e7e2      	b.n	dc850 <__gethex+0x344>
   dc88a:	9b15      	ldr	r3, [sp, #84]	; 0x54
   dc88c:	f1c3 0301 	rsb	r3, r3, #1
   dc890:	9315      	str	r3, [sp, #84]	; 0x54
   dc892:	9b15      	ldr	r3, [sp, #84]	; 0x54
   dc894:	2b00      	cmp	r3, #0
   dc896:	d0f0      	beq.n	dc87a <__gethex+0x36e>
   dc898:	f8d4 9010 	ldr.w	r9, [r4, #16]
   dc89c:	f104 0314 	add.w	r3, r4, #20
   dc8a0:	ea4f 0b89 	mov.w	fp, r9, lsl #2
   dc8a4:	eb03 0189 	add.w	r1, r3, r9, lsl #2
   dc8a8:	f04f 0c00 	mov.w	ip, #0
   dc8ac:	4618      	mov	r0, r3
   dc8ae:	f853 2b04 	ldr.w	r2, [r3], #4
   dc8b2:	f1b2 3fff 	cmp.w	r2, #4294967295	; 0xffffffff
   dc8b6:	d01c      	beq.n	dc8f2 <__gethex+0x3e6>
   dc8b8:	3201      	adds	r2, #1
   dc8ba:	6002      	str	r2, [r0, #0]
   dc8bc:	2f02      	cmp	r7, #2
   dc8be:	f104 0314 	add.w	r3, r4, #20
   dc8c2:	d13a      	bne.n	dc93a <__gethex+0x42e>
   dc8c4:	f8d8 2000 	ldr.w	r2, [r8]
   dc8c8:	3a01      	subs	r2, #1
   dc8ca:	42b2      	cmp	r2, r6
   dc8cc:	d10a      	bne.n	dc8e4 <__gethex+0x3d8>
   dc8ce:	1171      	asrs	r1, r6, #5
   dc8d0:	2201      	movs	r2, #1
   dc8d2:	f853 3021 	ldr.w	r3, [r3, r1, lsl #2]
   dc8d6:	f006 061f 	and.w	r6, r6, #31
   dc8da:	fa02 f606 	lsl.w	r6, r2, r6
   dc8de:	421e      	tst	r6, r3
   dc8e0:	bf18      	it	ne
   dc8e2:	4617      	movne	r7, r2
   dc8e4:	f047 0720 	orr.w	r7, r7, #32
   dc8e8:	9b14      	ldr	r3, [sp, #80]	; 0x50
   dc8ea:	601c      	str	r4, [r3, #0]
   dc8ec:	9b04      	ldr	r3, [sp, #16]
   dc8ee:	601d      	str	r5, [r3, #0]
   dc8f0:	e6a1      	b.n	dc636 <__gethex+0x12a>
   dc8f2:	4299      	cmp	r1, r3
   dc8f4:	f843 cc04 	str.w	ip, [r3, #-4]
   dc8f8:	d8d8      	bhi.n	dc8ac <__gethex+0x3a0>
   dc8fa:	68a3      	ldr	r3, [r4, #8]
   dc8fc:	4599      	cmp	r9, r3
   dc8fe:	db14      	blt.n	dc92a <__gethex+0x41e>
   dc900:	6861      	ldr	r1, [r4, #4]
   dc902:	ee18 0a10 	vmov	r0, s16
   dc906:	3101      	adds	r1, #1
   dc908:	f000 f908 	bl	dcb1c <_Balloc>
   dc90c:	6922      	ldr	r2, [r4, #16]
   dc90e:	3202      	adds	r2, #2
   dc910:	f104 010c 	add.w	r1, r4, #12
   dc914:	4682      	mov	sl, r0
   dc916:	0092      	lsls	r2, r2, #2
   dc918:	300c      	adds	r0, #12
   dc91a:	f7fe fe29 	bl	db570 <memcpy>
   dc91e:	4621      	mov	r1, r4
   dc920:	ee18 0a10 	vmov	r0, s16
   dc924:	f000 f92e 	bl	dcb84 <_Bfree>
   dc928:	4654      	mov	r4, sl
   dc92a:	6923      	ldr	r3, [r4, #16]
   dc92c:	1c5a      	adds	r2, r3, #1
   dc92e:	eb04 0383 	add.w	r3, r4, r3, lsl #2
   dc932:	6122      	str	r2, [r4, #16]
   dc934:	2201      	movs	r2, #1
   dc936:	615a      	str	r2, [r3, #20]
   dc938:	e7c0      	b.n	dc8bc <__gethex+0x3b0>
   dc93a:	6922      	ldr	r2, [r4, #16]
   dc93c:	454a      	cmp	r2, r9
   dc93e:	dd0b      	ble.n	dc958 <__gethex+0x44c>
   dc940:	2101      	movs	r1, #1
   dc942:	4620      	mov	r0, r4
   dc944:	f7ff fd7a 	bl	dc43c <rshift>
   dc948:	f8d8 3008 	ldr.w	r3, [r8, #8]
   dc94c:	3501      	adds	r5, #1
   dc94e:	42ab      	cmp	r3, r5
   dc950:	f6ff aed7 	blt.w	dc702 <__gethex+0x1f6>
   dc954:	2701      	movs	r7, #1
   dc956:	e7c5      	b.n	dc8e4 <__gethex+0x3d8>
   dc958:	f016 061f 	ands.w	r6, r6, #31
   dc95c:	d0fa      	beq.n	dc954 <__gethex+0x448>
   dc95e:	449b      	add	fp, r3
   dc960:	f1c6 0620 	rsb	r6, r6, #32
   dc964:	f85b 0c04 	ldr.w	r0, [fp, #-4]
   dc968:	f000 f99f 	bl	dccaa <__hi0bits>
   dc96c:	42b0      	cmp	r0, r6
   dc96e:	dbe7      	blt.n	dc940 <__gethex+0x434>
   dc970:	e7f0      	b.n	dc954 <__gethex+0x448>
   dc972:	bf00      	nop

000dc974 <L_shift>:
   dc974:	f1c2 0208 	rsb	r2, r2, #8
   dc978:	0092      	lsls	r2, r2, #2
   dc97a:	b570      	push	{r4, r5, r6, lr}
   dc97c:	f1c2 0620 	rsb	r6, r2, #32
   dc980:	6843      	ldr	r3, [r0, #4]
   dc982:	6804      	ldr	r4, [r0, #0]
   dc984:	fa03 f506 	lsl.w	r5, r3, r6
   dc988:	432c      	orrs	r4, r5
   dc98a:	40d3      	lsrs	r3, r2
   dc98c:	6004      	str	r4, [r0, #0]
   dc98e:	f840 3f04 	str.w	r3, [r0, #4]!
   dc992:	4288      	cmp	r0, r1
   dc994:	d3f4      	bcc.n	dc980 <L_shift+0xc>
   dc996:	bd70      	pop	{r4, r5, r6, pc}

000dc998 <__match>:
   dc998:	b530      	push	{r4, r5, lr}
   dc99a:	6803      	ldr	r3, [r0, #0]
   dc99c:	3301      	adds	r3, #1
   dc99e:	f811 4b01 	ldrb.w	r4, [r1], #1
   dc9a2:	b914      	cbnz	r4, dc9aa <__match+0x12>
   dc9a4:	6003      	str	r3, [r0, #0]
   dc9a6:	2001      	movs	r0, #1
   dc9a8:	bd30      	pop	{r4, r5, pc}
   dc9aa:	f813 2b01 	ldrb.w	r2, [r3], #1
   dc9ae:	f1a2 0541 	sub.w	r5, r2, #65	; 0x41
   dc9b2:	2d19      	cmp	r5, #25
   dc9b4:	bf98      	it	ls
   dc9b6:	3220      	addls	r2, #32
   dc9b8:	42a2      	cmp	r2, r4
   dc9ba:	d0f0      	beq.n	dc99e <__match+0x6>
   dc9bc:	2000      	movs	r0, #0
   dc9be:	e7f3      	b.n	dc9a8 <__match+0x10>

000dc9c0 <__hexnan>:
   dc9c0:	e92d 4ff0 	stmdb	sp!, {r4, r5, r6, r7, r8, r9, sl, fp, lr}
   dc9c4:	680b      	ldr	r3, [r1, #0]
   dc9c6:	6801      	ldr	r1, [r0, #0]
   dc9c8:	115e      	asrs	r6, r3, #5
   dc9ca:	eb02 0686 	add.w	r6, r2, r6, lsl #2
   dc9ce:	f013 031f 	ands.w	r3, r3, #31
   dc9d2:	b087      	sub	sp, #28
   dc9d4:	bf18      	it	ne
   dc9d6:	3604      	addne	r6, #4
   dc9d8:	2500      	movs	r5, #0
   dc9da:	1f37      	subs	r7, r6, #4
   dc9dc:	4682      	mov	sl, r0
   dc9de:	4690      	mov	r8, r2
   dc9e0:	9301      	str	r3, [sp, #4]
   dc9e2:	f846 5c04 	str.w	r5, [r6, #-4]
   dc9e6:	46b9      	mov	r9, r7
   dc9e8:	463c      	mov	r4, r7
   dc9ea:	9502      	str	r5, [sp, #8]
   dc9ec:	46ab      	mov	fp, r5
   dc9ee:	784a      	ldrb	r2, [r1, #1]
   dc9f0:	1c4b      	adds	r3, r1, #1
   dc9f2:	9303      	str	r3, [sp, #12]
   dc9f4:	b342      	cbz	r2, dca48 <__hexnan+0x88>
   dc9f6:	4610      	mov	r0, r2
   dc9f8:	9105      	str	r1, [sp, #20]
   dc9fa:	9204      	str	r2, [sp, #16]
   dc9fc:	f7ff fd70 	bl	dc4e0 <__hexdig_fun>
   dca00:	2800      	cmp	r0, #0
   dca02:	d14f      	bne.n	dcaa4 <__hexnan+0xe4>
   dca04:	9a04      	ldr	r2, [sp, #16]
   dca06:	9905      	ldr	r1, [sp, #20]
   dca08:	2a20      	cmp	r2, #32
   dca0a:	d818      	bhi.n	dca3e <__hexnan+0x7e>
   dca0c:	9b02      	ldr	r3, [sp, #8]
   dca0e:	459b      	cmp	fp, r3
   dca10:	dd13      	ble.n	dca3a <__hexnan+0x7a>
   dca12:	454c      	cmp	r4, r9
   dca14:	d206      	bcs.n	dca24 <__hexnan+0x64>
   dca16:	2d07      	cmp	r5, #7
   dca18:	dc04      	bgt.n	dca24 <__hexnan+0x64>
   dca1a:	462a      	mov	r2, r5
   dca1c:	4649      	mov	r1, r9
   dca1e:	4620      	mov	r0, r4
   dca20:	f7ff ffa8 	bl	dc974 <L_shift>
   dca24:	4544      	cmp	r4, r8
   dca26:	d950      	bls.n	dcaca <__hexnan+0x10a>
   dca28:	2300      	movs	r3, #0
   dca2a:	f1a4 0904 	sub.w	r9, r4, #4
   dca2e:	f844 3c04 	str.w	r3, [r4, #-4]
   dca32:	f8cd b008 	str.w	fp, [sp, #8]
   dca36:	464c      	mov	r4, r9
   dca38:	461d      	mov	r5, r3
   dca3a:	9903      	ldr	r1, [sp, #12]
   dca3c:	e7d7      	b.n	dc9ee <__hexnan+0x2e>
   dca3e:	2a29      	cmp	r2, #41	; 0x29
   dca40:	d156      	bne.n	dcaf0 <__hexnan+0x130>
   dca42:	3102      	adds	r1, #2
   dca44:	f8ca 1000 	str.w	r1, [sl]
   dca48:	f1bb 0f00 	cmp.w	fp, #0
   dca4c:	d050      	beq.n	dcaf0 <__hexnan+0x130>
   dca4e:	454c      	cmp	r4, r9
   dca50:	d206      	bcs.n	dca60 <__hexnan+0xa0>
   dca52:	2d07      	cmp	r5, #7
   dca54:	dc04      	bgt.n	dca60 <__hexnan+0xa0>
   dca56:	462a      	mov	r2, r5
   dca58:	4649      	mov	r1, r9
   dca5a:	4620      	mov	r0, r4
   dca5c:	f7ff ff8a 	bl	dc974 <L_shift>
   dca60:	4544      	cmp	r4, r8
   dca62:	d934      	bls.n	dcace <__hexnan+0x10e>
   dca64:	f1a8 0204 	sub.w	r2, r8, #4
   dca68:	4623      	mov	r3, r4
   dca6a:	f853 1b04 	ldr.w	r1, [r3], #4
   dca6e:	f842 1f04 	str.w	r1, [r2, #4]!
   dca72:	429f      	cmp	r7, r3
   dca74:	d2f9      	bcs.n	dca6a <__hexnan+0xaa>
   dca76:	1b3b      	subs	r3, r7, r4
   dca78:	f023 0303 	bic.w	r3, r3, #3
   dca7c:	3304      	adds	r3, #4
   dca7e:	3401      	adds	r4, #1
   dca80:	3e03      	subs	r6, #3
   dca82:	42b4      	cmp	r4, r6
   dca84:	bf88      	it	hi
   dca86:	2304      	movhi	r3, #4
   dca88:	4443      	add	r3, r8
   dca8a:	2200      	movs	r2, #0
   dca8c:	f843 2b04 	str.w	r2, [r3], #4
   dca90:	429f      	cmp	r7, r3
   dca92:	d2fb      	bcs.n	dca8c <__hexnan+0xcc>
   dca94:	683b      	ldr	r3, [r7, #0]
   dca96:	b91b      	cbnz	r3, dcaa0 <__hexnan+0xe0>
   dca98:	4547      	cmp	r7, r8
   dca9a:	d127      	bne.n	dcaec <__hexnan+0x12c>
   dca9c:	2301      	movs	r3, #1
   dca9e:	603b      	str	r3, [r7, #0]
   dcaa0:	2005      	movs	r0, #5
   dcaa2:	e026      	b.n	dcaf2 <__hexnan+0x132>
   dcaa4:	3501      	adds	r5, #1
   dcaa6:	2d08      	cmp	r5, #8
   dcaa8:	f10b 0b01 	add.w	fp, fp, #1
   dcaac:	dd06      	ble.n	dcabc <__hexnan+0xfc>
   dcaae:	4544      	cmp	r4, r8
   dcab0:	d9c3      	bls.n	dca3a <__hexnan+0x7a>
   dcab2:	2300      	movs	r3, #0
   dcab4:	f844 3c04 	str.w	r3, [r4, #-4]
   dcab8:	2501      	movs	r5, #1
   dcaba:	3c04      	subs	r4, #4
   dcabc:	6822      	ldr	r2, [r4, #0]
   dcabe:	f000 000f 	and.w	r0, r0, #15
   dcac2:	ea40 1202 	orr.w	r2, r0, r2, lsl #4
   dcac6:	6022      	str	r2, [r4, #0]
   dcac8:	e7b7      	b.n	dca3a <__hexnan+0x7a>
   dcaca:	2508      	movs	r5, #8
   dcacc:	e7b5      	b.n	dca3a <__hexnan+0x7a>
   dcace:	9b01      	ldr	r3, [sp, #4]
   dcad0:	2b00      	cmp	r3, #0
   dcad2:	d0df      	beq.n	dca94 <__hexnan+0xd4>
   dcad4:	f04f 32ff 	mov.w	r2, #4294967295	; 0xffffffff
   dcad8:	f1c3 0320 	rsb	r3, r3, #32
   dcadc:	fa22 f303 	lsr.w	r3, r2, r3
   dcae0:	f856 2c04 	ldr.w	r2, [r6, #-4]
   dcae4:	401a      	ands	r2, r3
   dcae6:	f846 2c04 	str.w	r2, [r6, #-4]
   dcaea:	e7d3      	b.n	dca94 <__hexnan+0xd4>
   dcaec:	3f04      	subs	r7, #4
   dcaee:	e7d1      	b.n	dca94 <__hexnan+0xd4>
   dcaf0:	2004      	movs	r0, #4
   dcaf2:	b007      	add	sp, #28
   dcaf4:	e8bd 8ff0 	ldmia.w	sp!, {r4, r5, r6, r7, r8, r9, sl, fp, pc}

000dcaf8 <__ascii_mbtowc>:
   dcaf8:	b082      	sub	sp, #8
   dcafa:	b901      	cbnz	r1, dcafe <__ascii_mbtowc+0x6>
   dcafc:	a901      	add	r1, sp, #4
   dcafe:	b142      	cbz	r2, dcb12 <__ascii_mbtowc+0x1a>
   dcb00:	b14b      	cbz	r3, dcb16 <__ascii_mbtowc+0x1e>
   dcb02:	7813      	ldrb	r3, [r2, #0]
   dcb04:	600b      	str	r3, [r1, #0]
   dcb06:	7812      	ldrb	r2, [r2, #0]
   dcb08:	1e10      	subs	r0, r2, #0
   dcb0a:	bf18      	it	ne
   dcb0c:	2001      	movne	r0, #1
   dcb0e:	b002      	add	sp, #8
   dcb10:	4770      	bx	lr
   dcb12:	4610      	mov	r0, r2
   dcb14:	e7fb      	b.n	dcb0e <__ascii_mbtowc+0x16>
   dcb16:	f06f 0001 	mvn.w	r0, #1
   dcb1a:	e7f8      	b.n	dcb0e <__ascii_mbtowc+0x16>

000dcb1c <_Balloc>:
   dcb1c:	b570      	push	{r4, r5, r6, lr}
   dcb1e:	6a46      	ldr	r6, [r0, #36]	; 0x24
   dcb20:	4604      	mov	r4, r0
   dcb22:	460d      	mov	r5, r1
   dcb24:	b93e      	cbnz	r6, dcb36 <_Balloc+0x1a>
   dcb26:	2010      	movs	r0, #16
   dcb28:	f7fb ff7a 	bl	d8a20 <malloc>
   dcb2c:	e9c0 6601 	strd	r6, r6, [r0, #4]
   dcb30:	6260      	str	r0, [r4, #36]	; 0x24
   dcb32:	6006      	str	r6, [r0, #0]
   dcb34:	60c6      	str	r6, [r0, #12]
   dcb36:	6a66      	ldr	r6, [r4, #36]	; 0x24
   dcb38:	68f3      	ldr	r3, [r6, #12]
   dcb3a:	b183      	cbz	r3, dcb5e <_Balloc+0x42>
   dcb3c:	6a63      	ldr	r3, [r4, #36]	; 0x24
   dcb3e:	68db      	ldr	r3, [r3, #12]
   dcb40:	f853 0025 	ldr.w	r0, [r3, r5, lsl #2]
   dcb44:	b9b8      	cbnz	r0, dcb76 <_Balloc+0x5a>
   dcb46:	2101      	movs	r1, #1
   dcb48:	fa01 f605 	lsl.w	r6, r1, r5
   dcb4c:	1d72      	adds	r2, r6, #5
   dcb4e:	0092      	lsls	r2, r2, #2
   dcb50:	4620      	mov	r0, r4
   dcb52:	f000 fc22 	bl	dd39a <_calloc_r>
   dcb56:	b160      	cbz	r0, dcb72 <_Balloc+0x56>
   dcb58:	e9c0 5601 	strd	r5, r6, [r0, #4]
   dcb5c:	e00e      	b.n	dcb7c <_Balloc+0x60>
   dcb5e:	2221      	movs	r2, #33	; 0x21
   dcb60:	2104      	movs	r1, #4
   dcb62:	4620      	mov	r0, r4
   dcb64:	f000 fc19 	bl	dd39a <_calloc_r>
   dcb68:	6a63      	ldr	r3, [r4, #36]	; 0x24
   dcb6a:	60f0      	str	r0, [r6, #12]
   dcb6c:	68db      	ldr	r3, [r3, #12]
   dcb6e:	2b00      	cmp	r3, #0
   dcb70:	d1e4      	bne.n	dcb3c <_Balloc+0x20>
   dcb72:	2000      	movs	r0, #0
   dcb74:	bd70      	pop	{r4, r5, r6, pc}
   dcb76:	6802      	ldr	r2, [r0, #0]
   dcb78:	f843 2025 	str.w	r2, [r3, r5, lsl #2]
   dcb7c:	2300      	movs	r3, #0
   dcb7e:	e9c0 3303 	strd	r3, r3, [r0, #12]
   dcb82:	e7f7      	b.n	dcb74 <_Balloc+0x58>

000dcb84 <_Bfree>:
   dcb84:	b570      	push	{r4, r5, r6, lr}
   dcb86:	6a46      	ldr	r6, [r0, #36]	; 0x24
   dcb88:	4605      	mov	r5, r0
   dcb8a:	460c      	mov	r4, r1
   dcb8c:	b93e      	cbnz	r6, dcb9e <_Bfree+0x1a>
   dcb8e:	2010      	movs	r0, #16
   dcb90:	f7fb ff46 	bl	d8a20 <malloc>
   dcb94:	e9c0 6601 	strd	r6, r6, [r0, #4]
   dcb98:	6268      	str	r0, [r5, #36]	; 0x24
   dcb9a:	6006      	str	r6, [r0, #0]
   dcb9c:	60c6      	str	r6, [r0, #12]
   dcb9e:	b13c      	cbz	r4, dcbb0 <_Bfree+0x2c>
   dcba0:	6a6b      	ldr	r3, [r5, #36]	; 0x24
   dcba2:	6862      	ldr	r2, [r4, #4]
   dcba4:	68db      	ldr	r3, [r3, #12]
   dcba6:	f853 1022 	ldr.w	r1, [r3, r2, lsl #2]
   dcbaa:	6021      	str	r1, [r4, #0]
   dcbac:	f843 4022 	str.w	r4, [r3, r2, lsl #2]
   dcbb0:	bd70      	pop	{r4, r5, r6, pc}

000dcbb2 <__multadd>:
   dcbb2:	e92d 41f0 	stmdb	sp!, {r4, r5, r6, r7, r8, lr}
   dcbb6:	690e      	ldr	r6, [r1, #16]
   dcbb8:	4607      	mov	r7, r0
   dcbba:	4698      	mov	r8, r3
   dcbbc:	460c      	mov	r4, r1
   dcbbe:	f101 0014 	add.w	r0, r1, #20
   dcbc2:	2300      	movs	r3, #0
   dcbc4:	6805      	ldr	r5, [r0, #0]
   dcbc6:	b2a9      	uxth	r1, r5
   dcbc8:	fb02 8101 	mla	r1, r2, r1, r8
   dcbcc:	ea4f 4c11 	mov.w	ip, r1, lsr #16
   dcbd0:	0c2d      	lsrs	r5, r5, #16
   dcbd2:	fb02 c505 	mla	r5, r2, r5, ip
   dcbd6:	b289      	uxth	r1, r1
   dcbd8:	3301      	adds	r3, #1
   dcbda:	eb01 4105 	add.w	r1, r1, r5, lsl #16
   dcbde:	429e      	cmp	r6, r3
   dcbe0:	f840 1b04 	str.w	r1, [r0], #4
   dcbe4:	ea4f 4815 	mov.w	r8, r5, lsr #16
   dcbe8:	dcec      	bgt.n	dcbc4 <__multadd+0x12>
   dcbea:	f1b8 0f00 	cmp.w	r8, #0
   dcbee:	d01b      	beq.n	dcc28 <__multadd+0x76>
   dcbf0:	68a3      	ldr	r3, [r4, #8]
   dcbf2:	42b3      	cmp	r3, r6
   dcbf4:	dc12      	bgt.n	dcc1c <__multadd+0x6a>
   dcbf6:	6861      	ldr	r1, [r4, #4]
   dcbf8:	4638      	mov	r0, r7
   dcbfa:	3101      	adds	r1, #1
   dcbfc:	f7ff ff8e 	bl	dcb1c <_Balloc>
   dcc00:	6922      	ldr	r2, [r4, #16]
   dcc02:	3202      	adds	r2, #2
   dcc04:	f104 010c 	add.w	r1, r4, #12
   dcc08:	4605      	mov	r5, r0
   dcc0a:	0092      	lsls	r2, r2, #2
   dcc0c:	300c      	adds	r0, #12
   dcc0e:	f7fe fcaf 	bl	db570 <memcpy>
   dcc12:	4621      	mov	r1, r4
   dcc14:	4638      	mov	r0, r7
   dcc16:	f7ff ffb5 	bl	dcb84 <_Bfree>
   dcc1a:	462c      	mov	r4, r5
   dcc1c:	eb04 0386 	add.w	r3, r4, r6, lsl #2
   dcc20:	3601      	adds	r6, #1
   dcc22:	f8c3 8014 	str.w	r8, [r3, #20]
   dcc26:	6126      	str	r6, [r4, #16]
   dcc28:	4620      	mov	r0, r4
   dcc2a:	e8bd 81f0 	ldmia.w	sp!, {r4, r5, r6, r7, r8, pc}

000dcc2e <__s2b>:
   dcc2e:	e92d 43f8 	stmdb	sp!, {r3, r4, r5, r6, r7, r8, r9, lr}
   dcc32:	460c      	mov	r4, r1
   dcc34:	4615      	mov	r5, r2
   dcc36:	461f      	mov	r7, r3
   dcc38:	2209      	movs	r2, #9
   dcc3a:	3308      	adds	r3, #8
   dcc3c:	4606      	mov	r6, r0
   dcc3e:	fb93 f3f2 	sdiv	r3, r3, r2
   dcc42:	2100      	movs	r1, #0
   dcc44:	2201      	movs	r2, #1
   dcc46:	429a      	cmp	r2, r3
   dcc48:	db20      	blt.n	dcc8c <__s2b+0x5e>
   dcc4a:	4630      	mov	r0, r6
   dcc4c:	f7ff ff66 	bl	dcb1c <_Balloc>
   dcc50:	9b08      	ldr	r3, [sp, #32]
   dcc52:	6143      	str	r3, [r0, #20]
   dcc54:	2d09      	cmp	r5, #9
   dcc56:	f04f 0301 	mov.w	r3, #1
   dcc5a:	6103      	str	r3, [r0, #16]
   dcc5c:	dd19      	ble.n	dcc92 <__s2b+0x64>
   dcc5e:	f104 0909 	add.w	r9, r4, #9
   dcc62:	46c8      	mov	r8, r9
   dcc64:	442c      	add	r4, r5
   dcc66:	f818 3b01 	ldrb.w	r3, [r8], #1
   dcc6a:	4601      	mov	r1, r0
   dcc6c:	3b30      	subs	r3, #48	; 0x30
   dcc6e:	220a      	movs	r2, #10
   dcc70:	4630      	mov	r0, r6
   dcc72:	f7ff ff9e 	bl	dcbb2 <__multadd>
   dcc76:	45a0      	cmp	r8, r4
   dcc78:	d1f5      	bne.n	dcc66 <__s2b+0x38>
   dcc7a:	f1a5 0408 	sub.w	r4, r5, #8
   dcc7e:	444c      	add	r4, r9
   dcc80:	1b2d      	subs	r5, r5, r4
   dcc82:	1963      	adds	r3, r4, r5
   dcc84:	42bb      	cmp	r3, r7
   dcc86:	db07      	blt.n	dcc98 <__s2b+0x6a>
   dcc88:	e8bd 83f8 	ldmia.w	sp!, {r3, r4, r5, r6, r7, r8, r9, pc}
   dcc8c:	0052      	lsls	r2, r2, #1
   dcc8e:	3101      	adds	r1, #1
   dcc90:	e7d9      	b.n	dcc46 <__s2b+0x18>
   dcc92:	340a      	adds	r4, #10
   dcc94:	2509      	movs	r5, #9
   dcc96:	e7f3      	b.n	dcc80 <__s2b+0x52>
   dcc98:	f814 3b01 	ldrb.w	r3, [r4], #1
   dcc9c:	4601      	mov	r1, r0
   dcc9e:	3b30      	subs	r3, #48	; 0x30
   dcca0:	220a      	movs	r2, #10
   dcca2:	4630      	mov	r0, r6
   dcca4:	f7ff ff85 	bl	dcbb2 <__multadd>
   dcca8:	e7eb      	b.n	dcc82 <__s2b+0x54>

000dccaa <__hi0bits>:
   dccaa:	0c03      	lsrs	r3, r0, #16
   dccac:	041b      	lsls	r3, r3, #16
   dccae:	b9d3      	cbnz	r3, dcce6 <__hi0bits+0x3c>
   dccb0:	0400      	lsls	r0, r0, #16
   dccb2:	2310      	movs	r3, #16
   dccb4:	f010 4f7f 	tst.w	r0, #4278190080	; 0xff000000
   dccb8:	bf04      	itt	eq
   dccba:	0200      	lsleq	r0, r0, #8
   dccbc:	3308      	addeq	r3, #8
   dccbe:	f010 4f70 	tst.w	r0, #4026531840	; 0xf0000000
   dccc2:	bf04      	itt	eq
   dccc4:	0100      	lsleq	r0, r0, #4
   dccc6:	3304      	addeq	r3, #4
   dccc8:	f010 4f40 	tst.w	r0, #3221225472	; 0xc0000000
   dcccc:	bf04      	itt	eq
   dccce:	0080      	lsleq	r0, r0, #2
   dccd0:	3302      	addeq	r3, #2
   dccd2:	2800      	cmp	r0, #0
   dccd4:	db05      	blt.n	dcce2 <__hi0bits+0x38>
   dccd6:	f010 4f80 	tst.w	r0, #1073741824	; 0x40000000
   dccda:	f103 0301 	add.w	r3, r3, #1
   dccde:	bf08      	it	eq
   dcce0:	2320      	moveq	r3, #32
   dcce2:	4618      	mov	r0, r3
   dcce4:	4770      	bx	lr
   dcce6:	2300      	movs	r3, #0
   dcce8:	e7e4      	b.n	dccb4 <__hi0bits+0xa>

000dccea <__lo0bits>:
   dccea:	6803      	ldr	r3, [r0, #0]
   dccec:	f013 0207 	ands.w	r2, r3, #7
   dccf0:	4601      	mov	r1, r0
   dccf2:	d00b      	beq.n	dcd0c <__lo0bits+0x22>
   dccf4:	07da      	lsls	r2, r3, #31
   dccf6:	d424      	bmi.n	dcd42 <__lo0bits+0x58>
   dccf8:	0798      	lsls	r0, r3, #30
   dccfa:	bf49      	itett	mi
   dccfc:	085b      	lsrmi	r3, r3, #1
   dccfe:	089b      	lsrpl	r3, r3, #2
   dcd00:	2001      	movmi	r0, #1
   dcd02:	600b      	strmi	r3, [r1, #0]
   dcd04:	bf5c      	itt	pl
   dcd06:	600b      	strpl	r3, [r1, #0]
   dcd08:	2002      	movpl	r0, #2
   dcd0a:	4770      	bx	lr
   dcd0c:	b298      	uxth	r0, r3
   dcd0e:	b9b0      	cbnz	r0, dcd3e <__lo0bits+0x54>
   dcd10:	0c1b      	lsrs	r3, r3, #16
   dcd12:	2010      	movs	r0, #16
   dcd14:	f013 0fff 	tst.w	r3, #255	; 0xff
   dcd18:	bf04      	itt	eq
   dcd1a:	0a1b      	lsreq	r3, r3, #8
   dcd1c:	3008      	addeq	r0, #8
   dcd1e:	071a      	lsls	r2, r3, #28
   dcd20:	bf04      	itt	eq
   dcd22:	091b      	lsreq	r3, r3, #4
   dcd24:	3004      	addeq	r0, #4
   dcd26:	079a      	lsls	r2, r3, #30
   dcd28:	bf04      	itt	eq
   dcd2a:	089b      	lsreq	r3, r3, #2
   dcd2c:	3002      	addeq	r0, #2
   dcd2e:	07da      	lsls	r2, r3, #31
   dcd30:	d403      	bmi.n	dcd3a <__lo0bits+0x50>
   dcd32:	085b      	lsrs	r3, r3, #1
   dcd34:	f100 0001 	add.w	r0, r0, #1
   dcd38:	d005      	beq.n	dcd46 <__lo0bits+0x5c>
   dcd3a:	600b      	str	r3, [r1, #0]
   dcd3c:	4770      	bx	lr
   dcd3e:	4610      	mov	r0, r2
   dcd40:	e7e8      	b.n	dcd14 <__lo0bits+0x2a>
   dcd42:	2000      	movs	r0, #0
   dcd44:	4770      	bx	lr
   dcd46:	2020      	movs	r0, #32
   dcd48:	4770      	bx	lr

000dcd4a <__i2b>:
   dcd4a:	b510      	push	{r4, lr}
   dcd4c:	460c      	mov	r4, r1
   dcd4e:	2101      	movs	r1, #1
   dcd50:	f7ff fee4 	bl	dcb1c <_Balloc>
   dcd54:	2201      	movs	r2, #1
   dcd56:	6144      	str	r4, [r0, #20]
   dcd58:	6102      	str	r2, [r0, #16]
   dcd5a:	bd10      	pop	{r4, pc}

000dcd5c <__multiply>:
   dcd5c:	e92d 4ff0 	stmdb	sp!, {r4, r5, r6, r7, r8, r9, sl, fp, lr}
   dcd60:	4615      	mov	r5, r2
   dcd62:	690a      	ldr	r2, [r1, #16]
   dcd64:	692b      	ldr	r3, [r5, #16]
   dcd66:	429a      	cmp	r2, r3
   dcd68:	bfb8      	it	lt
   dcd6a:	460b      	movlt	r3, r1
   dcd6c:	460c      	mov	r4, r1
   dcd6e:	bfbc      	itt	lt
   dcd70:	462c      	movlt	r4, r5
   dcd72:	461d      	movlt	r5, r3
   dcd74:	6927      	ldr	r7, [r4, #16]
   dcd76:	f8d5 9010 	ldr.w	r9, [r5, #16]
   dcd7a:	68a3      	ldr	r3, [r4, #8]
   dcd7c:	6861      	ldr	r1, [r4, #4]
   dcd7e:	eb07 0609 	add.w	r6, r7, r9
   dcd82:	42b3      	cmp	r3, r6
   dcd84:	bfb8      	it	lt
   dcd86:	3101      	addlt	r1, #1
   dcd88:	b085      	sub	sp, #20
   dcd8a:	f7ff fec7 	bl	dcb1c <_Balloc>
   dcd8e:	f100 0114 	add.w	r1, r0, #20
   dcd92:	eb01 0886 	add.w	r8, r1, r6, lsl #2
   dcd96:	460b      	mov	r3, r1
   dcd98:	2200      	movs	r2, #0
   dcd9a:	4543      	cmp	r3, r8
   dcd9c:	d31d      	bcc.n	dcdda <__multiply+0x7e>
   dcd9e:	f104 0314 	add.w	r3, r4, #20
   dcda2:	f105 0214 	add.w	r2, r5, #20
   dcda6:	eb03 0787 	add.w	r7, r3, r7, lsl #2
   dcdaa:	eb02 0389 	add.w	r3, r2, r9, lsl #2
   dcdae:	9302      	str	r3, [sp, #8]
   dcdb0:	1b3b      	subs	r3, r7, r4
   dcdb2:	3b15      	subs	r3, #21
   dcdb4:	f023 0303 	bic.w	r3, r3, #3
   dcdb8:	3304      	adds	r3, #4
   dcdba:	f104 0515 	add.w	r5, r4, #21
   dcdbe:	42af      	cmp	r7, r5
   dcdc0:	bf38      	it	cc
   dcdc2:	2304      	movcc	r3, #4
   dcdc4:	9301      	str	r3, [sp, #4]
   dcdc6:	9b02      	ldr	r3, [sp, #8]
   dcdc8:	9203      	str	r2, [sp, #12]
   dcdca:	4293      	cmp	r3, r2
   dcdcc:	d808      	bhi.n	dcde0 <__multiply+0x84>
   dcdce:	2e00      	cmp	r6, #0
   dcdd0:	dc5a      	bgt.n	dce88 <__multiply+0x12c>
   dcdd2:	6106      	str	r6, [r0, #16]
   dcdd4:	b005      	add	sp, #20
   dcdd6:	e8bd 8ff0 	ldmia.w	sp!, {r4, r5, r6, r7, r8, r9, sl, fp, pc}
   dcdda:	f843 2b04 	str.w	r2, [r3], #4
   dcdde:	e7dc      	b.n	dcd9a <__multiply+0x3e>
   dcde0:	f8b2 a000 	ldrh.w	sl, [r2]
   dcde4:	f1ba 0f00 	cmp.w	sl, #0
   dcde8:	d024      	beq.n	dce34 <__multiply+0xd8>
   dcdea:	f104 0e14 	add.w	lr, r4, #20
   dcdee:	4689      	mov	r9, r1
   dcdf0:	f04f 0c00 	mov.w	ip, #0
   dcdf4:	f85e 5b04 	ldr.w	r5, [lr], #4
   dcdf8:	f8d9 b000 	ldr.w	fp, [r9]
   dcdfc:	b2ab      	uxth	r3, r5
   dcdfe:	fa1f fb8b 	uxth.w	fp, fp
   dce02:	fb0a b303 	mla	r3, sl, r3, fp
   dce06:	ea4f 4b15 	mov.w	fp, r5, lsr #16
   dce0a:	f8d9 5000 	ldr.w	r5, [r9]
   dce0e:	4463      	add	r3, ip
   dce10:	ea4f 4c15 	mov.w	ip, r5, lsr #16
   dce14:	fb0a c50b 	mla	r5, sl, fp, ip
   dce18:	eb05 4513 	add.w	r5, r5, r3, lsr #16
   dce1c:	b29b      	uxth	r3, r3
   dce1e:	ea43 4305 	orr.w	r3, r3, r5, lsl #16
   dce22:	4577      	cmp	r7, lr
   dce24:	f849 3b04 	str.w	r3, [r9], #4
   dce28:	ea4f 4c15 	mov.w	ip, r5, lsr #16
   dce2c:	d8e2      	bhi.n	dcdf4 <__multiply+0x98>
   dce2e:	9b01      	ldr	r3, [sp, #4]
   dce30:	f841 c003 	str.w	ip, [r1, r3]
   dce34:	9b03      	ldr	r3, [sp, #12]
   dce36:	f8b3 9002 	ldrh.w	r9, [r3, #2]
   dce3a:	3204      	adds	r2, #4
   dce3c:	f1b9 0f00 	cmp.w	r9, #0
   dce40:	d020      	beq.n	dce84 <__multiply+0x128>
   dce42:	680b      	ldr	r3, [r1, #0]
   dce44:	f104 0c14 	add.w	ip, r4, #20
   dce48:	468e      	mov	lr, r1
   dce4a:	f04f 0a00 	mov.w	sl, #0
   dce4e:	f8bc 5000 	ldrh.w	r5, [ip]
   dce52:	f8be b002 	ldrh.w	fp, [lr, #2]
   dce56:	fb09 b505 	mla	r5, r9, r5, fp
   dce5a:	44aa      	add	sl, r5
   dce5c:	b29b      	uxth	r3, r3
   dce5e:	ea43 430a 	orr.w	r3, r3, sl, lsl #16
   dce62:	f84e 3b04 	str.w	r3, [lr], #4
   dce66:	f85c 3b04 	ldr.w	r3, [ip], #4
   dce6a:	f8be 5000 	ldrh.w	r5, [lr]
   dce6e:	0c1b      	lsrs	r3, r3, #16
   dce70:	fb09 5303 	mla	r3, r9, r3, r5
   dce74:	eb03 431a 	add.w	r3, r3, sl, lsr #16
   dce78:	4567      	cmp	r7, ip
   dce7a:	ea4f 4a13 	mov.w	sl, r3, lsr #16
   dce7e:	d8e6      	bhi.n	dce4e <__multiply+0xf2>
   dce80:	9d01      	ldr	r5, [sp, #4]
   dce82:	514b      	str	r3, [r1, r5]
   dce84:	3104      	adds	r1, #4
   dce86:	e79e      	b.n	dcdc6 <__multiply+0x6a>
   dce88:	f858 3d04 	ldr.w	r3, [r8, #-4]!
   dce8c:	2b00      	cmp	r3, #0
   dce8e:	d1a0      	bne.n	dcdd2 <__multiply+0x76>
   dce90:	3e01      	subs	r6, #1
   dce92:	e79c      	b.n	dcdce <__multiply+0x72>

000dce94 <__pow5mult>:
   dce94:	e92d 43f8 	stmdb	sp!, {r3, r4, r5, r6, r7, r8, r9, lr}
   dce98:	4615      	mov	r5, r2
   dce9a:	f012 0203 	ands.w	r2, r2, #3
   dce9e:	4606      	mov	r6, r0
   dcea0:	460f      	mov	r7, r1
   dcea2:	d007      	beq.n	dceb4 <__pow5mult+0x20>
   dcea4:	4c21      	ldr	r4, [pc, #132]	; (dcf2c <__pow5mult+0x98>)
   dcea6:	3a01      	subs	r2, #1
   dcea8:	2300      	movs	r3, #0
   dceaa:	f854 2022 	ldr.w	r2, [r4, r2, lsl #2]
   dceae:	f7ff fe80 	bl	dcbb2 <__multadd>
   dceb2:	4607      	mov	r7, r0
   dceb4:	10ad      	asrs	r5, r5, #2
   dceb6:	d035      	beq.n	dcf24 <__pow5mult+0x90>
   dceb8:	6a74      	ldr	r4, [r6, #36]	; 0x24
   dceba:	b93c      	cbnz	r4, dcecc <__pow5mult+0x38>
   dcebc:	2010      	movs	r0, #16
   dcebe:	f7fb fdaf 	bl	d8a20 <malloc>
   dcec2:	e9c0 4401 	strd	r4, r4, [r0, #4]
   dcec6:	6270      	str	r0, [r6, #36]	; 0x24
   dcec8:	6004      	str	r4, [r0, #0]
   dceca:	60c4      	str	r4, [r0, #12]
   dcecc:	f8d6 8024 	ldr.w	r8, [r6, #36]	; 0x24
   dced0:	f8d8 4008 	ldr.w	r4, [r8, #8]
   dced4:	b94c      	cbnz	r4, dceea <__pow5mult+0x56>
   dced6:	f240 2171 	movw	r1, #625	; 0x271
   dceda:	4630      	mov	r0, r6
   dcedc:	f7ff ff35 	bl	dcd4a <__i2b>
   dcee0:	2300      	movs	r3, #0
   dcee2:	f8c8 0008 	str.w	r0, [r8, #8]
   dcee6:	4604      	mov	r4, r0
   dcee8:	6003      	str	r3, [r0, #0]
   dceea:	f04f 0900 	mov.w	r9, #0
   dceee:	07eb      	lsls	r3, r5, #31
   dcef0:	d50a      	bpl.n	dcf08 <__pow5mult+0x74>
   dcef2:	4639      	mov	r1, r7
   dcef4:	4622      	mov	r2, r4
   dcef6:	4630      	mov	r0, r6
   dcef8:	f7ff ff30 	bl	dcd5c <__multiply>
   dcefc:	4639      	mov	r1, r7
   dcefe:	4680      	mov	r8, r0
   dcf00:	4630      	mov	r0, r6
   dcf02:	f7ff fe3f 	bl	dcb84 <_Bfree>
   dcf06:	4647      	mov	r7, r8
   dcf08:	106d      	asrs	r5, r5, #1
   dcf0a:	d00b      	beq.n	dcf24 <__pow5mult+0x90>
   dcf0c:	6820      	ldr	r0, [r4, #0]
   dcf0e:	b938      	cbnz	r0, dcf20 <__pow5mult+0x8c>
   dcf10:	4622      	mov	r2, r4
   dcf12:	4621      	mov	r1, r4
   dcf14:	4630      	mov	r0, r6
   dcf16:	f7ff ff21 	bl	dcd5c <__multiply>
   dcf1a:	6020      	str	r0, [r4, #0]
   dcf1c:	f8c0 9000 	str.w	r9, [r0]
   dcf20:	4604      	mov	r4, r0
   dcf22:	e7e4      	b.n	dceee <__pow5mult+0x5a>
   dcf24:	4638      	mov	r0, r7
   dcf26:	e8bd 83f8 	ldmia.w	sp!, {r3, r4, r5, r6, r7, r8, r9, pc}
   dcf2a:	bf00      	nop
   dcf2c:	000de7b8 	.word	0x000de7b8

000dcf30 <__lshift>:
   dcf30:	e92d 47f0 	stmdb	sp!, {r4, r5, r6, r7, r8, r9, sl, lr}
   dcf34:	460c      	mov	r4, r1
   dcf36:	6849      	ldr	r1, [r1, #4]
   dcf38:	6923      	ldr	r3, [r4, #16]
   dcf3a:	eb03 1862 	add.w	r8, r3, r2, asr #5
   dcf3e:	68a3      	ldr	r3, [r4, #8]
   dcf40:	4607      	mov	r7, r0
   dcf42:	4691      	mov	r9, r2
   dcf44:	ea4f 1a62 	mov.w	sl, r2, asr #5
   dcf48:	f108 0601 	add.w	r6, r8, #1
   dcf4c:	42b3      	cmp	r3, r6
   dcf4e:	db3f      	blt.n	dcfd0 <__lshift+0xa0>
   dcf50:	4638      	mov	r0, r7
   dcf52:	f7ff fde3 	bl	dcb1c <_Balloc>
   dcf56:	2300      	movs	r3, #0
   dcf58:	4605      	mov	r5, r0
   dcf5a:	f100 0114 	add.w	r1, r0, #20
   dcf5e:	f100 0210 	add.w	r2, r0, #16
   dcf62:	4618      	mov	r0, r3
   dcf64:	4553      	cmp	r3, sl
   dcf66:	db36      	blt.n	dcfd6 <__lshift+0xa6>
   dcf68:	6920      	ldr	r0, [r4, #16]
   dcf6a:	ea2a 7aea 	bic.w	sl, sl, sl, asr #31
   dcf6e:	f104 0314 	add.w	r3, r4, #20
   dcf72:	f019 091f 	ands.w	r9, r9, #31
   dcf76:	eb01 018a 	add.w	r1, r1, sl, lsl #2
   dcf7a:	eb03 0c80 	add.w	ip, r3, r0, lsl #2
   dcf7e:	d02e      	beq.n	dcfde <__lshift+0xae>
   dcf80:	f1c9 0e20 	rsb	lr, r9, #32
   dcf84:	468a      	mov	sl, r1
   dcf86:	2200      	movs	r2, #0
   dcf88:	6818      	ldr	r0, [r3, #0]
   dcf8a:	fa00 f009 	lsl.w	r0, r0, r9
   dcf8e:	4302      	orrs	r2, r0
   dcf90:	f84a 2b04 	str.w	r2, [sl], #4
   dcf94:	f853 2b04 	ldr.w	r2, [r3], #4
   dcf98:	459c      	cmp	ip, r3
   dcf9a:	fa22 f20e 	lsr.w	r2, r2, lr
   dcf9e:	d8f3      	bhi.n	dcf88 <__lshift+0x58>
   dcfa0:	ebac 0304 	sub.w	r3, ip, r4
   dcfa4:	3b15      	subs	r3, #21
   dcfa6:	f023 0303 	bic.w	r3, r3, #3
   dcfaa:	3304      	adds	r3, #4
   dcfac:	f104 0015 	add.w	r0, r4, #21
   dcfb0:	4560      	cmp	r0, ip
   dcfb2:	bf88      	it	hi
   dcfb4:	2304      	movhi	r3, #4
   dcfb6:	50ca      	str	r2, [r1, r3]
   dcfb8:	b10a      	cbz	r2, dcfbe <__lshift+0x8e>
   dcfba:	f108 0602 	add.w	r6, r8, #2
   dcfbe:	3e01      	subs	r6, #1
   dcfc0:	4638      	mov	r0, r7
   dcfc2:	612e      	str	r6, [r5, #16]
   dcfc4:	4621      	mov	r1, r4
   dcfc6:	f7ff fddd 	bl	dcb84 <_Bfree>
   dcfca:	4628      	mov	r0, r5
   dcfcc:	e8bd 87f0 	ldmia.w	sp!, {r4, r5, r6, r7, r8, r9, sl, pc}
   dcfd0:	3101      	adds	r1, #1
   dcfd2:	005b      	lsls	r3, r3, #1
   dcfd4:	e7ba      	b.n	dcf4c <__lshift+0x1c>
   dcfd6:	f842 0f04 	str.w	r0, [r2, #4]!
   dcfda:	3301      	adds	r3, #1
   dcfdc:	e7c2      	b.n	dcf64 <__lshift+0x34>
   dcfde:	3904      	subs	r1, #4
   dcfe0:	f853 2b04 	ldr.w	r2, [r3], #4
   dcfe4:	f841 2f04 	str.w	r2, [r1, #4]!
   dcfe8:	459c      	cmp	ip, r3
   dcfea:	d8f9      	bhi.n	dcfe0 <__lshift+0xb0>
   dcfec:	e7e7      	b.n	dcfbe <__lshift+0x8e>

000dcfee <__mcmp>:
   dcfee:	b530      	push	{r4, r5, lr}
   dcff0:	6902      	ldr	r2, [r0, #16]
   dcff2:	690c      	ldr	r4, [r1, #16]
   dcff4:	1b12      	subs	r2, r2, r4
   dcff6:	d10e      	bne.n	dd016 <__mcmp+0x28>
   dcff8:	f100 0314 	add.w	r3, r0, #20
   dcffc:	3114      	adds	r1, #20
   dcffe:	eb03 0084 	add.w	r0, r3, r4, lsl #2
   dd002:	eb01 0184 	add.w	r1, r1, r4, lsl #2
   dd006:	f850 5d04 	ldr.w	r5, [r0, #-4]!
   dd00a:	f851 4d04 	ldr.w	r4, [r1, #-4]!
   dd00e:	42a5      	cmp	r5, r4
   dd010:	d003      	beq.n	dd01a <__mcmp+0x2c>
   dd012:	d305      	bcc.n	dd020 <__mcmp+0x32>
   dd014:	2201      	movs	r2, #1
   dd016:	4610      	mov	r0, r2
   dd018:	bd30      	pop	{r4, r5, pc}
   dd01a:	4283      	cmp	r3, r0
   dd01c:	d3f3      	bcc.n	dd006 <__mcmp+0x18>
   dd01e:	e7fa      	b.n	dd016 <__mcmp+0x28>
   dd020:	f04f 32ff 	mov.w	r2, #4294967295	; 0xffffffff
   dd024:	e7f7      	b.n	dd016 <__mcmp+0x28>

000dd026 <__mdiff>:
   dd026:	e92d 4ff8 	stmdb	sp!, {r3, r4, r5, r6, r7, r8, r9, sl, fp, lr}
   dd02a:	460c      	mov	r4, r1
   dd02c:	4606      	mov	r6, r0
   dd02e:	4611      	mov	r1, r2
   dd030:	4620      	mov	r0, r4
   dd032:	4617      	mov	r7, r2
   dd034:	f7ff ffdb 	bl	dcfee <__mcmp>
   dd038:	1e05      	subs	r5, r0, #0
   dd03a:	d108      	bne.n	dd04e <__mdiff+0x28>
   dd03c:	4629      	mov	r1, r5
   dd03e:	4630      	mov	r0, r6
   dd040:	f7ff fd6c 	bl	dcb1c <_Balloc>
   dd044:	2301      	movs	r3, #1
   dd046:	e9c0 3504 	strd	r3, r5, [r0, #16]
   dd04a:	e8bd 8ff8 	ldmia.w	sp!, {r3, r4, r5, r6, r7, r8, r9, sl, fp, pc}
   dd04e:	bfa4      	itt	ge
   dd050:	463b      	movge	r3, r7
   dd052:	4627      	movge	r7, r4
   dd054:	4630      	mov	r0, r6
   dd056:	6879      	ldr	r1, [r7, #4]
   dd058:	bfa6      	itte	ge
   dd05a:	461c      	movge	r4, r3
   dd05c:	2500      	movge	r5, #0
   dd05e:	2501      	movlt	r5, #1
   dd060:	f7ff fd5c 	bl	dcb1c <_Balloc>
   dd064:	693e      	ldr	r6, [r7, #16]
   dd066:	60c5      	str	r5, [r0, #12]
   dd068:	6925      	ldr	r5, [r4, #16]
   dd06a:	f107 0114 	add.w	r1, r7, #20
   dd06e:	f104 0914 	add.w	r9, r4, #20
   dd072:	f100 0e14 	add.w	lr, r0, #20
   dd076:	f107 0210 	add.w	r2, r7, #16
   dd07a:	eb01 0c86 	add.w	ip, r1, r6, lsl #2
   dd07e:	eb09 0585 	add.w	r5, r9, r5, lsl #2
   dd082:	46f2      	mov	sl, lr
   dd084:	2700      	movs	r7, #0
   dd086:	f859 3b04 	ldr.w	r3, [r9], #4
   dd08a:	f852 bf04 	ldr.w	fp, [r2, #4]!
   dd08e:	fa1f f883 	uxth.w	r8, r3
   dd092:	fa17 f78b 	uxtah	r7, r7, fp
   dd096:	0c1b      	lsrs	r3, r3, #16
   dd098:	eba7 0808 	sub.w	r8, r7, r8
   dd09c:	ebc3 431b 	rsb	r3, r3, fp, lsr #16
   dd0a0:	eb03 4328 	add.w	r3, r3, r8, asr #16
   dd0a4:	fa1f f888 	uxth.w	r8, r8
   dd0a8:	141f      	asrs	r7, r3, #16
   dd0aa:	454d      	cmp	r5, r9
   dd0ac:	ea48 4303 	orr.w	r3, r8, r3, lsl #16
   dd0b0:	f84a 3b04 	str.w	r3, [sl], #4
   dd0b4:	d8e7      	bhi.n	dd086 <__mdiff+0x60>
   dd0b6:	1b2b      	subs	r3, r5, r4
   dd0b8:	3b15      	subs	r3, #21
   dd0ba:	f023 0303 	bic.w	r3, r3, #3
   dd0be:	3304      	adds	r3, #4
   dd0c0:	3415      	adds	r4, #21
   dd0c2:	42a5      	cmp	r5, r4
   dd0c4:	bf38      	it	cc
   dd0c6:	2304      	movcc	r3, #4
   dd0c8:	4419      	add	r1, r3
   dd0ca:	4473      	add	r3, lr
   dd0cc:	469e      	mov	lr, r3
   dd0ce:	460d      	mov	r5, r1
   dd0d0:	4565      	cmp	r5, ip
   dd0d2:	d30e      	bcc.n	dd0f2 <__mdiff+0xcc>
   dd0d4:	f10c 0203 	add.w	r2, ip, #3
   dd0d8:	1a52      	subs	r2, r2, r1
   dd0da:	f022 0203 	bic.w	r2, r2, #3
   dd0de:	3903      	subs	r1, #3
   dd0e0:	458c      	cmp	ip, r1
   dd0e2:	bf38      	it	cc
   dd0e4:	2200      	movcc	r2, #0
   dd0e6:	441a      	add	r2, r3
   dd0e8:	f852 3d04 	ldr.w	r3, [r2, #-4]!
   dd0ec:	b17b      	cbz	r3, dd10e <__mdiff+0xe8>
   dd0ee:	6106      	str	r6, [r0, #16]
   dd0f0:	e7ab      	b.n	dd04a <__mdiff+0x24>
   dd0f2:	f855 8b04 	ldr.w	r8, [r5], #4
   dd0f6:	fa17 f488 	uxtah	r4, r7, r8
   dd0fa:	1422      	asrs	r2, r4, #16
   dd0fc:	eb02 4218 	add.w	r2, r2, r8, lsr #16
   dd100:	b2a4      	uxth	r4, r4
   dd102:	ea44 4402 	orr.w	r4, r4, r2, lsl #16
   dd106:	f84e 4b04 	str.w	r4, [lr], #4
   dd10a:	1417      	asrs	r7, r2, #16
   dd10c:	e7e0      	b.n	dd0d0 <__mdiff+0xaa>
   dd10e:	3e01      	subs	r6, #1
   dd110:	e7ea      	b.n	dd0e8 <__mdiff+0xc2>
	...

000dd114 <__ulp>:
   dd114:	b082      	sub	sp, #8
   dd116:	ed8d 0b00 	vstr	d0, [sp]
   dd11a:	9b01      	ldr	r3, [sp, #4]
   dd11c:	4912      	ldr	r1, [pc, #72]	; (dd168 <__ulp+0x54>)
   dd11e:	4019      	ands	r1, r3
   dd120:	f1a1 7150 	sub.w	r1, r1, #54525952	; 0x3400000
   dd124:	2900      	cmp	r1, #0
   dd126:	dd05      	ble.n	dd134 <__ulp+0x20>
   dd128:	2200      	movs	r2, #0
   dd12a:	460b      	mov	r3, r1
   dd12c:	ec43 2b10 	vmov	d0, r2, r3
   dd130:	b002      	add	sp, #8
   dd132:	4770      	bx	lr
   dd134:	4249      	negs	r1, r1
   dd136:	f1b1 7fa0 	cmp.w	r1, #20971520	; 0x1400000
   dd13a:	ea4f 5021 	mov.w	r0, r1, asr #20
   dd13e:	f04f 0200 	mov.w	r2, #0
   dd142:	f04f 0300 	mov.w	r3, #0
   dd146:	da04      	bge.n	dd152 <__ulp+0x3e>
   dd148:	f44f 2100 	mov.w	r1, #524288	; 0x80000
   dd14c:	fa41 f300 	asr.w	r3, r1, r0
   dd150:	e7ec      	b.n	dd12c <__ulp+0x18>
   dd152:	f1a0 0114 	sub.w	r1, r0, #20
   dd156:	291e      	cmp	r1, #30
   dd158:	bfda      	itte	le
   dd15a:	f04f 4000 	movle.w	r0, #2147483648	; 0x80000000
   dd15e:	fa20 f101 	lsrle.w	r1, r0, r1
   dd162:	2101      	movgt	r1, #1
   dd164:	460a      	mov	r2, r1
   dd166:	e7e1      	b.n	dd12c <__ulp+0x18>
   dd168:	7ff00000 	.word	0x7ff00000

000dd16c <__b2d>:
   dd16c:	b5f8      	push	{r3, r4, r5, r6, r7, lr}
   dd16e:	6905      	ldr	r5, [r0, #16]
   dd170:	f100 0714 	add.w	r7, r0, #20
   dd174:	eb07 0585 	add.w	r5, r7, r5, lsl #2
   dd178:	1f2e      	subs	r6, r5, #4
   dd17a:	f855 4c04 	ldr.w	r4, [r5, #-4]
   dd17e:	4620      	mov	r0, r4
   dd180:	f7ff fd93 	bl	dccaa <__hi0bits>
   dd184:	f1c0 0320 	rsb	r3, r0, #32
   dd188:	280a      	cmp	r0, #10
   dd18a:	f8df c07c 	ldr.w	ip, [pc, #124]	; dd208 <__b2d+0x9c>
   dd18e:	600b      	str	r3, [r1, #0]
   dd190:	dc14      	bgt.n	dd1bc <__b2d+0x50>
   dd192:	f1c0 0e0b 	rsb	lr, r0, #11
   dd196:	fa24 f10e 	lsr.w	r1, r4, lr
   dd19a:	42b7      	cmp	r7, r6
   dd19c:	ea41 030c 	orr.w	r3, r1, ip
   dd1a0:	bf34      	ite	cc
   dd1a2:	f855 1c08 	ldrcc.w	r1, [r5, #-8]
   dd1a6:	2100      	movcs	r1, #0
   dd1a8:	3015      	adds	r0, #21
   dd1aa:	fa04 f000 	lsl.w	r0, r4, r0
   dd1ae:	fa21 f10e 	lsr.w	r1, r1, lr
   dd1b2:	ea40 0201 	orr.w	r2, r0, r1
   dd1b6:	ec43 2b10 	vmov	d0, r2, r3
   dd1ba:	bdf8      	pop	{r3, r4, r5, r6, r7, pc}
   dd1bc:	42b7      	cmp	r7, r6
   dd1be:	bf3a      	itte	cc
   dd1c0:	f855 1c08 	ldrcc.w	r1, [r5, #-8]
   dd1c4:	f1a5 0608 	subcc.w	r6, r5, #8
   dd1c8:	2100      	movcs	r1, #0
   dd1ca:	380b      	subs	r0, #11
   dd1cc:	d017      	beq.n	dd1fe <__b2d+0x92>
   dd1ce:	f1c0 0c20 	rsb	ip, r0, #32
   dd1d2:	fa04 f500 	lsl.w	r5, r4, r0
   dd1d6:	42be      	cmp	r6, r7
   dd1d8:	fa21 f40c 	lsr.w	r4, r1, ip
   dd1dc:	ea45 0504 	orr.w	r5, r5, r4
   dd1e0:	bf8c      	ite	hi
   dd1e2:	f856 4c04 	ldrhi.w	r4, [r6, #-4]
   dd1e6:	2400      	movls	r4, #0
   dd1e8:	f045 537f 	orr.w	r3, r5, #1069547520	; 0x3fc00000
   dd1ec:	fa01 f000 	lsl.w	r0, r1, r0
   dd1f0:	fa24 f40c 	lsr.w	r4, r4, ip
   dd1f4:	f443 1340 	orr.w	r3, r3, #3145728	; 0x300000
   dd1f8:	ea40 0204 	orr.w	r2, r0, r4
   dd1fc:	e7db      	b.n	dd1b6 <__b2d+0x4a>
   dd1fe:	ea44 030c 	orr.w	r3, r4, ip
   dd202:	460a      	mov	r2, r1
   dd204:	e7d7      	b.n	dd1b6 <__b2d+0x4a>
   dd206:	bf00      	nop
   dd208:	3ff00000 	.word	0x3ff00000

000dd20c <__d2b>:
   dd20c:	e92d 43f7 	stmdb	sp!, {r0, r1, r2, r4, r5, r6, r7, r8, r9, lr}
   dd210:	4689      	mov	r9, r1
   dd212:	2101      	movs	r1, #1
   dd214:	ec57 6b10 	vmov	r6, r7, d0
   dd218:	4690      	mov	r8, r2
   dd21a:	f7ff fc7f 	bl	dcb1c <_Balloc>
   dd21e:	f3c7 550a 	ubfx	r5, r7, #20, #11
   dd222:	4604      	mov	r4, r0
   dd224:	f3c7 0313 	ubfx	r3, r7, #0, #20
   dd228:	bb35      	cbnz	r5, dd278 <__d2b+0x6c>
   dd22a:	2e00      	cmp	r6, #0
   dd22c:	9301      	str	r3, [sp, #4]
   dd22e:	d028      	beq.n	dd282 <__d2b+0x76>
   dd230:	4668      	mov	r0, sp
   dd232:	9600      	str	r6, [sp, #0]
   dd234:	f7ff fd59 	bl	dccea <__lo0bits>
   dd238:	9900      	ldr	r1, [sp, #0]
   dd23a:	b300      	cbz	r0, dd27e <__d2b+0x72>
   dd23c:	9a01      	ldr	r2, [sp, #4]
   dd23e:	f1c0 0320 	rsb	r3, r0, #32
   dd242:	fa02 f303 	lsl.w	r3, r2, r3
   dd246:	430b      	orrs	r3, r1
   dd248:	40c2      	lsrs	r2, r0
   dd24a:	6163      	str	r3, [r4, #20]
   dd24c:	9201      	str	r2, [sp, #4]
   dd24e:	9b01      	ldr	r3, [sp, #4]
   dd250:	61a3      	str	r3, [r4, #24]
   dd252:	2b00      	cmp	r3, #0
   dd254:	bf14      	ite	ne
   dd256:	2202      	movne	r2, #2
   dd258:	2201      	moveq	r2, #1
   dd25a:	6122      	str	r2, [r4, #16]
   dd25c:	b1d5      	cbz	r5, dd294 <__d2b+0x88>
   dd25e:	f2a5 4533 	subw	r5, r5, #1075	; 0x433
   dd262:	4405      	add	r5, r0
   dd264:	f8c9 5000 	str.w	r5, [r9]
   dd268:	f1c0 0035 	rsb	r0, r0, #53	; 0x35
   dd26c:	f8c8 0000 	str.w	r0, [r8]
   dd270:	4620      	mov	r0, r4
   dd272:	b003      	add	sp, #12
   dd274:	e8bd 83f0 	ldmia.w	sp!, {r4, r5, r6, r7, r8, r9, pc}
   dd278:	f443 1380 	orr.w	r3, r3, #1048576	; 0x100000
   dd27c:	e7d5      	b.n	dd22a <__d2b+0x1e>
   dd27e:	6161      	str	r1, [r4, #20]
   dd280:	e7e5      	b.n	dd24e <__d2b+0x42>
   dd282:	a801      	add	r0, sp, #4
   dd284:	f7ff fd31 	bl	dccea <__lo0bits>
   dd288:	9b01      	ldr	r3, [sp, #4]
   dd28a:	6163      	str	r3, [r4, #20]
   dd28c:	2201      	movs	r2, #1
   dd28e:	6122      	str	r2, [r4, #16]
   dd290:	3020      	adds	r0, #32
   dd292:	e7e3      	b.n	dd25c <__d2b+0x50>
   dd294:	eb04 0382 	add.w	r3, r4, r2, lsl #2
   dd298:	f2a0 4032 	subw	r0, r0, #1074	; 0x432
   dd29c:	f8c9 0000 	str.w	r0, [r9]
   dd2a0:	6918      	ldr	r0, [r3, #16]
   dd2a2:	f7ff fd02 	bl	dccaa <__hi0bits>
   dd2a6:	ebc0 1042 	rsb	r0, r0, r2, lsl #5
   dd2aa:	e7df      	b.n	dd26c <__d2b+0x60>

000dd2ac <__ratio>:
   dd2ac:	e92d 4ff7 	stmdb	sp!, {r0, r1, r2, r4, r5, r6, r7, r8, r9, sl, fp, lr}
   dd2b0:	4688      	mov	r8, r1
   dd2b2:	4669      	mov	r1, sp
   dd2b4:	4681      	mov	r9, r0
   dd2b6:	f7ff ff59 	bl	dd16c <__b2d>
   dd2ba:	a901      	add	r1, sp, #4
   dd2bc:	4640      	mov	r0, r8
   dd2be:	ec55 4b10 	vmov	r4, r5, d0
   dd2c2:	f7ff ff53 	bl	dd16c <__b2d>
   dd2c6:	f8d9 3010 	ldr.w	r3, [r9, #16]
   dd2ca:	f8d8 2010 	ldr.w	r2, [r8, #16]
   dd2ce:	eba3 0c02 	sub.w	ip, r3, r2
   dd2d2:	e9dd 3200 	ldrd	r3, r2, [sp]
   dd2d6:	1a9b      	subs	r3, r3, r2
   dd2d8:	eb03 134c 	add.w	r3, r3, ip, lsl #5
   dd2dc:	ec51 0b10 	vmov	r0, r1, d0
   dd2e0:	2b00      	cmp	r3, #0
   dd2e2:	bfd6      	itet	le
   dd2e4:	460a      	movle	r2, r1
   dd2e6:	462a      	movgt	r2, r5
   dd2e8:	ebc3 3303 	rsble	r3, r3, r3, lsl #12
   dd2ec:	468b      	mov	fp, r1
   dd2ee:	462f      	mov	r7, r5
   dd2f0:	bfd4      	ite	le
   dd2f2:	eb02 5b03 	addle.w	fp, r2, r3, lsl #20
   dd2f6:	eb02 5703 	addgt.w	r7, r2, r3, lsl #20
   dd2fa:	4620      	mov	r0, r4
   dd2fc:	ee10 2a10 	vmov	r2, s0
   dd300:	465b      	mov	r3, fp
   dd302:	4639      	mov	r1, r7
   dd304:	f7fd fed2 	bl	db0ac <__aeabi_ddiv>
   dd308:	ec41 0b10 	vmov	d0, r0, r1
   dd30c:	b003      	add	sp, #12
   dd30e:	e8bd 8ff0 	ldmia.w	sp!, {r4, r5, r6, r7, r8, r9, sl, fp, pc}

000dd312 <__copybits>:
   dd312:	3901      	subs	r1, #1
   dd314:	b570      	push	{r4, r5, r6, lr}
   dd316:	1149      	asrs	r1, r1, #5
   dd318:	6914      	ldr	r4, [r2, #16]
   dd31a:	3101      	adds	r1, #1
   dd31c:	f102 0314 	add.w	r3, r2, #20
   dd320:	eb00 0181 	add.w	r1, r0, r1, lsl #2
   dd324:	eb03 0484 	add.w	r4, r3, r4, lsl #2
   dd328:	1f05      	subs	r5, r0, #4
   dd32a:	42a3      	cmp	r3, r4
   dd32c:	d30c      	bcc.n	dd348 <__copybits+0x36>
   dd32e:	1aa3      	subs	r3, r4, r2
   dd330:	3b11      	subs	r3, #17
   dd332:	f023 0303 	bic.w	r3, r3, #3
   dd336:	3211      	adds	r2, #17
   dd338:	42a2      	cmp	r2, r4
   dd33a:	bf88      	it	hi
   dd33c:	2300      	movhi	r3, #0
   dd33e:	4418      	add	r0, r3
   dd340:	2300      	movs	r3, #0
   dd342:	4288      	cmp	r0, r1
   dd344:	d305      	bcc.n	dd352 <__copybits+0x40>
   dd346:	bd70      	pop	{r4, r5, r6, pc}
   dd348:	f853 6b04 	ldr.w	r6, [r3], #4
   dd34c:	f845 6f04 	str.w	r6, [r5, #4]!
   dd350:	e7eb      	b.n	dd32a <__copybits+0x18>
   dd352:	f840 3b04 	str.w	r3, [r0], #4
   dd356:	e7f4      	b.n	dd342 <__copybits+0x30>

000dd358 <__any_on>:
   dd358:	f100 0214 	add.w	r2, r0, #20
   dd35c:	6900      	ldr	r0, [r0, #16]
   dd35e:	114b      	asrs	r3, r1, #5
   dd360:	4298      	cmp	r0, r3
   dd362:	b510      	push	{r4, lr}
   dd364:	db11      	blt.n	dd38a <__any_on+0x32>
   dd366:	dd0a      	ble.n	dd37e <__any_on+0x26>
   dd368:	f011 011f 	ands.w	r1, r1, #31
   dd36c:	d007      	beq.n	dd37e <__any_on+0x26>
   dd36e:	f852 4023 	ldr.w	r4, [r2, r3, lsl #2]
   dd372:	fa24 f001 	lsr.w	r0, r4, r1
   dd376:	fa00 f101 	lsl.w	r1, r0, r1
   dd37a:	428c      	cmp	r4, r1
   dd37c:	d10b      	bne.n	dd396 <__any_on+0x3e>
   dd37e:	eb02 0383 	add.w	r3, r2, r3, lsl #2
   dd382:	4293      	cmp	r3, r2
   dd384:	d803      	bhi.n	dd38e <__any_on+0x36>
   dd386:	2000      	movs	r0, #0
   dd388:	bd10      	pop	{r4, pc}
   dd38a:	4603      	mov	r3, r0
   dd38c:	e7f7      	b.n	dd37e <__any_on+0x26>
   dd38e:	f853 1d04 	ldr.w	r1, [r3, #-4]!
   dd392:	2900      	cmp	r1, #0
   dd394:	d0f5      	beq.n	dd382 <__any_on+0x2a>
   dd396:	2001      	movs	r0, #1
   dd398:	e7f6      	b.n	dd388 <__any_on+0x30>

000dd39a <_calloc_r>:
   dd39a:	b513      	push	{r0, r1, r4, lr}
   dd39c:	434a      	muls	r2, r1
   dd39e:	4611      	mov	r1, r2
   dd3a0:	9201      	str	r2, [sp, #4]
   dd3a2:	f7fb fb75 	bl	d8a90 <_malloc_r>
   dd3a6:	4604      	mov	r4, r0
   dd3a8:	b118      	cbz	r0, dd3b2 <_calloc_r+0x18>
   dd3aa:	9a01      	ldr	r2, [sp, #4]
   dd3ac:	2100      	movs	r1, #0
   dd3ae:	f7fe f907 	bl	db5c0 <memset>
   dd3b2:	4620      	mov	r0, r4
   dd3b4:	b002      	add	sp, #8
   dd3b6:	bd10      	pop	{r4, pc}

000dd3b8 <nan>:
   dd3b8:	ed9f 0b01 	vldr	d0, [pc, #4]	; dd3c0 <nan+0x8>
   dd3bc:	4770      	bx	lr
   dd3be:	bf00      	nop
   dd3c0:	00000000 	.word	0x00000000
   dd3c4:	7ff80000 	.word	0x7ff80000

000dd3c8 <__ascii_wctomb>:
   dd3c8:	b149      	cbz	r1, dd3de <__ascii_wctomb+0x16>
   dd3ca:	2aff      	cmp	r2, #255	; 0xff
   dd3cc:	bf85      	ittet	hi
   dd3ce:	238a      	movhi	r3, #138	; 0x8a
   dd3d0:	6003      	strhi	r3, [r0, #0]
   dd3d2:	700a      	strbls	r2, [r1, #0]
   dd3d4:	f04f 30ff 	movhi.w	r0, #4294967295	; 0xffffffff
   dd3d8:	bf98      	it	ls
   dd3da:	2001      	movls	r0, #1
   dd3dc:	4770      	bx	lr
   dd3de:	4608      	mov	r0, r1
   dd3e0:	4770      	bx	lr
	...

000dd3e4 <__aeabi_d2lz>:
   dd3e4:	b538      	push	{r3, r4, r5, lr}
   dd3e6:	2200      	movs	r2, #0
   dd3e8:	2300      	movs	r3, #0
   dd3ea:	4604      	mov	r4, r0
   dd3ec:	460d      	mov	r5, r1
   dd3ee:	f7fd ffa5 	bl	db33c <__aeabi_dcmplt>
   dd3f2:	b928      	cbnz	r0, dd400 <__aeabi_d2lz+0x1c>
   dd3f4:	4620      	mov	r0, r4
   dd3f6:	4629      	mov	r1, r5
   dd3f8:	e8bd 4038 	ldmia.w	sp!, {r3, r4, r5, lr}
   dd3fc:	f7fe b84c 	b.w	db498 <__aeabi_d2ulz>
   dd400:	4620      	mov	r0, r4
   dd402:	f105 4100 	add.w	r1, r5, #2147483648	; 0x80000000
   dd406:	f7fe f847 	bl	db498 <__aeabi_d2ulz>
   dd40a:	4240      	negs	r0, r0
   dd40c:	eb61 0141 	sbc.w	r1, r1, r1, lsl #1
   dd410:	bd38      	pop	{r3, r4, r5, pc}
   dd412:	bf00      	nop

000dd414 <dynalib_user>:
   dd414:	4021 000d 405d 000d 4085 000d 4089 000d     !@..]@...@...@..
   dd424:	0000 0000 6e55 6e6b 776f 006e 6f4e 2074     ....Unknown.Not 
   dd434:	6843 7261 6967 676e 4300 6168 6772 6465     Charging.Charged
   dd444:	4400 7369 6863 7261 6967 676e 4600 7561     .Discharging.Fau
   dd454:	746c 4400 6369 6e6f 656e 7463 6465 3100     lt.Diconnected.1
   dd464:	4500 616e 6c62 6465 5320 6e65 6f73 2072     .Enabled Sensor 
   dd474:	6e4f 0065 6e45 6261 656c 2064 6553 736e     One.Enabled Sens
   dd484:	726f 5420 6f77 4500 616e 6c62 6465 5320     or Two.Enabled S
   dd494:	6e65 6f73 2072 6854 6572 0065 6e45 6261     ensor Three.Enab
   dd4a4:	656c 2064 6553 736e 726f 4620 756f 0072     led Sensor Four.
   dd4b4:	6e45 6261 656c 2064 6553 736e 726f 4620     Enabled Sensor F
   dd4c4:	7669 0065 6e45 6261 656c 2064 6553 736e     ive.Enabled Sens
   dd4d4:	726f 5320 7869 4e00 206f 6144 6174 5200     or Six.No Data.R
   dd4e4:	7365 6f70 736e 2065 6552 6563 7669 6465     esponse Received
   dd4f4:	5500 6b6e 6f6e 6e77 7220 7365 6f70 736e     .Unknown respons
   dd504:	2065 6572 6563 6976 6465 2520 0069 6553     e recevied %i.Se
   dd514:	2074 6f74 3320 6472 5020 7261 7974 5320     t to 3rd Party S
   dd524:	6d69 5300 7465 7420 206f 6150 7472 6369     im.Set to Partic
   dd534:	656c 5320 6d69 4b00 6565 2070 6c41 7669     le Sim.Keep Aliv
   dd544:	2065 6573 2074 6f74 2520 2069 6573 0063     e set to %i sec.
   dd554:	654b 7065 4120 696c 6576 5200 7065 726f     Keep Alive.Repor
   dd564:	6974 676e 5420 6d69 2065 6553 2074 6f74     ting Time Set to
   dd574:	2520 2073 694d 756e 6574 2e73 5300 7465      %s Minutes..Set
   dd584:	5620 7265 6f62 6573 4d20 646f 0065 6c43      Verbose Mode.Cl
   dd594:	6165 6572 2064 6556 6272 736f 2065 6f4d     eared Verbose Mo
   dd5a4:	6564 4400 7369 6261 656c 2064 6553 736e     de.Disabled Sens
   dd5b4:	726f 4f20 656e 5300 6e65 6f73 2072 7453     or One.Sensor St
   dd5c4:	7461 7375 4400 7369 6261 656c 2064 6553     atus.Disabled Se
   dd5d4:	736e 726f 5420 6f77 4400 7369 6261 656c     nsor Two.Disable
   dd5e4:	2064 6553 736e 726f 5420 7268 6565 4400     d Sensor Three.D
   dd5f4:	7369 6261 656c 2064 6553 736e 726f 4620     isabled Sensor F
   dd604:	756f 0072 6944 6173 6c62 6465 5320 6e65     our.Disabled Sen
   dd614:	6f73 2072 6946 6576 4400 7369 6261 656c     sor Five.Disable
   dd624:	2064 6553 736e 726f 5320 7869 4f00 6570     d Sensor Six.Ope
   dd634:	6172 6974 6e6f 4d20 646f 2065 6925 4400     ration Mode %i.D
   dd644:	7665 6369 2065 6552 6573 2074 7553 6363     evice Reset Succ
   dd654:	7365 0073 6f4c 6461 6e69 2067 7953 7473     ess.Loading Syst
   dd664:	6d65 4420 6665 7561 746c 0073 6f4c 6461     em Defaults.Load
   dd674:	6e69 2067 6f43 736e 6174 746e 4420 6665     ing Constant Def
   dd684:	7561 746c 2073 3039 392e 5000 7465 6574     aults 90.9.Pette
   dd694:	0064 6157 6374 6468 676f 4600 6f72 206d     d.Watchdog.From 
   dd6a4:	7325 7420 206f 7325 5300 6174 6574 5420     %s to %s.State T
   dd6b4:	6172 736e 7469 6f69 006e 5443 4f20 656e     ransition.CT One
   dd6c4:	203a 3325 312e 0066 5443 5420 6f77 2520     : %3.1f.CT Two %
   dd6d4:	2e33 6631 4300 2054 6854 6572 3a65 2520     3.1f.CT Three: %
   dd6e4:	2e33 6631 5300 6e65 6f73 2072 6f46 7275     3.1f.Sensor Four
   dd6f4:	4320 6e6f 7473 6e61 2074 203a 3325 312e      Constant : %3.1
   dd704:	0066 6553 736e 726f 4620 7669 2065 6f43     f.Sensor Five Co
   dd714:	736e 6174 746e 3a20 2520 2e33 6631 5300     nstant : %3.1f.S
   dd724:	6e65 6f73 2072 6953 2078 6f43 736e 6174     ensor Six Consta
   dd734:	746e 3a20 2520 2e33 6631 4300 6e6f 7473     nt : %3.1f.Const
   dd744:	6e61 2074 6e4f 2065 6156 756c 2065 6573     ant One Value se
   dd754:	2074 6f74 0020 6f43 736e 6174 746e 5420     t to .Constant T
   dd764:	6f77 5620 6c61 6575 7320 7465 7420 206f     wo Value set to 
   dd774:	4300 6e6f 7473 6e61 2074 6854 6572 2065     .Constant Three 
   dd784:	6156 756c 2065 6573 2074 6f74 0020 6f43     Value set to .Co
   dd794:	736e 6174 746e 4620 756f 2072 6156 756c     nstant Four Valu
   dd7a4:	2065 6573 2074 6f74 0020 6f43 736e 6174     e set to .Consta
   dd7b4:	746e 4620 7669 2065 6156 756c 2065 6573     nt Five Value se
   dd7c4:	2074 6f74 0020 6f43 736e 6174 746e 5320     t to .Constant S
   dd7d4:	7869 5620 6c61 6575 7320 7465 7420 206f     ix Value set to 
   dd7e4:	5200 6c65 6165 6573 4f00 6570 6172 6974     .Release.Operati
   dd7f4:	676e 4d20 646f 0065 6553 736e 726f 0073     ng Mode.Sensors.
   dd804:	6553 736e 726f 6e4f 4365 6e6f 656e 7463     SensorOneConnect
   dd814:	6465 5300 6e65 6f73 4f72 656e 6f43 736e     ed.SensorOneCons
   dd824:	6174 746e 5300 6e65 6f73 5472 6f77 6f43     tant.SensorTwoCo
   dd834:	6e6e 6365 6574 0064 6553 736e 726f 7754     nnected.SensorTw
   dd844:	436f 6e6f 7473 6e61 0074 6553 736e 726f     oConstant.Sensor
   dd854:	6854 6572 4365 6e6f 656e 7463 6465 5300     ThreeConnected.S
   dd864:	6e65 6f73 5472 7268 6565 6f43 736e 6174     ensorThreeConsta
   dd874:	746e 5300 6e65 6f73 4672 756f 4372 6e6f     nt.SensorFourCon
   dd884:	656e 7463 6465 5300 6e65 6f73 4672 756f     nected.SensorFou
   dd894:	4372 6e6f 7473 6e61 0074 6553 736e 726f     rConstant.Sensor
   dd8a4:	6946 6576 6f43 6e6e 6365 6574 0064 6553     FiveConnected.Se
   dd8b4:	736e 726f 6946 6576 6f43 736e 6174 746e     nsorFiveConstant
   dd8c4:	5300 6e65 6f73 5372 7869 6f43 6e6e 6365     .SensorSixConnec
   dd8d4:	6574 0064 6553 736e 726f 6953 4378 6e6f     ted.SensorSixCon
   dd8e4:	7473 6e61 0074 6854 7269 2064 6150 7472     stant.Third Part
   dd8f4:	2079 6953 006d 654b 7065 6c41 7669 0065     y Sim.KeepAlive.
   dd904:	6552 6f70 7472 6e69 2067 7544 6172 6974     Reporting Durati
   dd914:	6e6f 5300 7379 6574 206d 6f43 666e 6769     on.System Config
   dd924:	7275 7461 6f69 006e 6c61 6169 0073 6f6e     uration.alias.no
   dd934:	6320 6e6f 6966 2067 6573 0074 6174 7367      config set.tags
   dd944:	6c00 7461 6c00 6e6f 6967 7574 6564 7000     .lat.longitude.p
   dd954:	6f72 7564 7463 6300 696c 6e65 0074 6544     roduct.client.De
   dd964:	6976 6563 4e2d 6d61 0065 6564 6976 6563     vice-Name.device
   dd974:	695f 0064 6176 756c 7365 7300 6e65 6f73     _id.values.senso
   dd984:	4f72 656e 7300 6e65 6f73 5472 6f77 7300     rOne.sensorTwo.s
   dd994:	6e65 6f73 5472 7268 6565 7300 6e65 6f73     ensorThree.senso
   dd9a4:	4672 756f 0072 6573 736e 726f 6946 6576     rFour.sensorFive
   dd9b4:	7300 6e65 6f73 5372 7869 5300 6e65 6f73     .sensorSix.Senso
   dd9c4:	4f72 656e 0052 6553 736e 726f 6e4f 5365     rOneR.SensorOneS
   dd9d4:	5300 6e65 6f73 4f72 656e 0054 6553 736e     .SensorOneT.Sens
   dd9e4:	726f 7754 526f 5300 6e65 6f73 5472 6f77     orTwoR.SensorTwo
   dd9f4:	0053 6553 736e 726f 7754 546f 5300 6e65     S.SensorTwoT.Sen
   dda04:	6f73 4f72 656e 004e 227b 6573 736e 726f     sorOneN.{"sensor
   dda14:	6e4f 2265 253a 2e34 6631 202c 7322 6e65     One":%4.1f, "sen
   dda24:	6f73 5472 6f77 3a22 3425 312e 2c66 2020     sorTwo":%4.1f,  
   dda34:	7322 6e65 6f73 5472 7268 6565 3a22 3425     "sensorThree":%4
   dda44:	312e 2c66 2020 7322 6e65 6f73 4672 756f     .1f,  "sensorFou
   dda54:	2272 253a 2e34 6631 202c 2220 6573 736e     r":%4.1f,  "sens
   dda64:	726f 6946 6576 3a22 3425 312e 2c66 7322     orFive":%4.1f,"s
   dda74:	6e65 6f73 5372 7869 3a22 3425 312e 2c66     ensorSix":%4.1f,
   dda84:	4d22 646f 2265 313a 007d 227b 6553 736e     "Mode":1}.{"Sens
   dda94:	726f 6e4f 5265 3a22 3425 312e 2c66 2220     orOneR":%4.1f, "
   ddaa4:	6553 736e 726f 6e4f 5365 3a22 3425 312e     SensorOneS":%4.1
   ddab4:	2c66 2020 5322 6e65 6f73 4f72 656e 2254     f,  "SensorOneT"
   ddac4:	253a 2e34 6631 202c 2220 6573 736e 726f     :%4.1f,  "sensor
   ddad4:	7754 526f 3a22 3425 312e 2c66 2020 7322     TwoR":%4.1f,  "s
   ddae4:	6e65 6f73 5472 6f77 2253 253a 2e34 6631     ensorTwoS":%4.1f
   ddaf4:	222c 6573 736e 726f 7754 546f 3a22 3425     ,"sensorTwoT":%4
   ddb04:	312e 2c66 4d22 646f 2265 323a 007d 227b     .1f,"Mode":2}.{"
   ddb14:	6553 736e 726f 6e4f 5265 3a22 3425 312e     SensorOneR":%4.1
   ddb24:	2c66 2220 6553 736e 726f 6e4f 5365 3a22     f, "SensorOneS":
   ddb34:	3425 312e 2c66 2020 5322 6e65 6f73 4f72     %4.1f,  "SensorO
   ddb44:	656e 2254 253a 2e34 6631 202c 2220 6573     neT":%4.1f,  "se
   ddb54:	736e 726f 6f46 7275 3a22 3425 312e 2c66     nsorFour":%4.1f,
   ddb64:	2020 7322 6e65 6f73 4672 7669 2265 253a       "sensorFive":%
   ddb74:	2e34 6631 222c 6573 736e 726f 6953 2278     4.1f,"sensorSix"
   ddb84:	253a 2e34 6631 222c 6f4d 6564 3a22 7d33     :%4.1f,"Mode":3}
   ddb94:	7b00 5322 6e65 6f73 4f72 656e 2252 253a     .{"SensorOneR":%
   ddba4:	2e34 6631 202c 5322 6e65 6f73 4f72 656e     4.1f, "SensorOne
   ddbb4:	2253 253a 2e34 6631 202c 2220 6553 736e     S":%4.1f,  "Sens
   ddbc4:	726f 6e4f 5465 3a22 3425 312e 2c66 2020     orOneT":%4.1f,  
   ddbd4:	5322 6e65 6f73 4f72 656e 224e 253a 2e34     "SensorOneN":%4.
   ddbe4:	6631 202c 2220 6573 736e 726f 6946 6576     1f,  "sensorFive
   ddbf4:	3a22 3425 312e 2c66 7322 6e65 6f73 5372     ":%4.1f,"sensorS
   ddc04:	7869 3a22 3425 312e 2c66 4d22 646f 2265     ix":%4.1f,"Mode"
   ddc14:	343a 007d 6f70 6577 6d72 6e6f 7469 726f     :4}.powermonitor
   ddc24:	6e69 5f67 6f68 6b6f 6900 666e 756c 5f78     ing_hook.influx_
   ddc34:	6f68 6b6f 7300 6170 6b72 642f 7665 6369     hook.spark/devic
   ddc44:	2f65 6573 7373 6f69 2f6e 6e65 0064 7245     e/session/end.Er
   ddc54:	6f72 2072 7453 7461 2065 202d 6552 6573     ror State - Rese
   ddc64:	0074 7453 7461 0065 002a 682f 6f6f 2d6b     t.State.*./hook-
   ddc74:	6572 7073 6e6f 6573 702f 776f 7265 6f6d     response/powermo
   ddc84:	696e 6f74 6972 676e 685f 6f6f 2f6b 4200     nitoring_hook/.B
   ddc94:	7461 6574 7972 4200 7461 6574 7972 6f43     attery.BatteryCo
   ddca4:	746e 7865 0074 654b 7065 4120 696c 6576     ntext.Keep Alive
   ddcb4:	5320 6365 4f00 6570 6172 6974 6e6f 4d20      Sec.Operation M
   ddcc4:	646f 0065 654d 7361 7275 2d65 6f4e 0077     ode.Measure-Now.
   ddcd4:	6843 6365 206b 6f43 666e 6769 7275 7461     Check Configurat
   ddce4:	6f69 006e 6556 6272 736f 2d65 6f4d 6564     ion.Verbose-Mode
   ddcf4:	5300 7465 4320 6e6f 7473 6e61 2074 6e4f     .Set Constant On
   ddd04:	0065 6553 2074 6f43 736e 6174 746e 5420     e.Set Constant T
   ddd14:	6f77 5300 7465 4320 6e6f 7473 6e61 2074     wo.Set Constant 
   ddd24:	6854 6572 0065 6553 2074 6f43 736e 6174     Three.Set Consta
   ddd34:	746e 4620 756f 0072 6553 2074 6f43 736e     nt Four.Set Cons
   ddd44:	6174 746e 4620 7669 0065 6553 2074 6f43     tant Five.Set Co
   ddd54:	736e 6174 746e 5320 7869 4500 616e 6c62     nstant Six.Enabl
   ddd64:	2065 6553 736e 726f 4400 7369 6261 656c     e Sensor.Disable
   ddd74:	5320 6e65 6f73 0072 6552 6f70 7472 6e69      Sensor.Reportin
   ddd84:	2067 7544 6172 6974 6e6f 4d28 4e49 5455     g Duration(MINUT
   ddd94:	5345 0029 6552 6f62 746f 4420 7665 6369     ES).Reboot Devic
   ddda4:	0065 6c43 756f 4364 6e6f 6966 4467 7665     e.CloudConfigDev
   dddb4:	6369 4e65 746f 7365 5300 7465 7075 4c20     iceNotes.Setup L
   dddc4:	6f6f 0070 6f4c 6461 6e69 2067 6544 6166     oop.Loading Defa
   dddd4:	6c75 7374 5300 6174 7472 7075 0000 0000     ults.Startup....

000ddde4 <_ZTV5Timer>:
	...
   dddec:	4325 000d 4379 000d 41dd 000d               %C..yC...A..

000dddf8 <_ZTV17PublishQueueAsync>:
	...
   dde00:	41e9 000d 41fd 000d 71a5 000d 7331 000d     .A...A...q..1s..
   dde10:	72f1 000d 72cf 000d 7477 000d 7317 000d     .r...r..wt...s..

000dde20 <_ZTV8MB85RC64>:
	...
   dde28:	4211 000d 4225 000d 679d 000d 6833 000d     .B..%B...g..3h..
   dde38:	68b5 000d                                   .h..

000dde3c <_ZTV18CloudConfigStorage>:
	...
   dde44:	40cd 000d 40a9 000d 40a9 000d 5e25 000d     .@...@...@..%^..
   dde54:	40d1 000d 40d3 000d 0000 0000 0000 0000     .@...@..........

000dde64 <_ZTV26CloudConfigStorageRetained>:
	...
   dde6c:	40d7 000d 771d 000d 411d 000d 5e25 000d     .@...w...A..%^..
   dde7c:	40d1 000d 7799 000d 5e6d 000d 5e85 000d     .@...w..m^...^..
   dde8c:	40db 000d d428 000d d430 000d d434 000d     .@..(...0...4...
   dde9c:	d43d 000d d445 000d d451 000d d457 000d     =...E...Q...W...
   ddeac:	7453 7261 7574 2070 7553 6363 7365 6673     Startup Successf
   ddebc:	6c75 0000 0000 0000 0000 0000 0000 0000     ul..............
	...

000ddeec <_ZL13releaseNumber>:
   ddeec:	3231 302e 0032 0000                         12.02...

000ddef4 <_ZL17FRAMversionNumber>:
   ddef4:	0016 0000 7277 7469 4465 7461 2061 6166     ....writeData fa
   ddf04:	6c69 6465 6420 7275 6e69 2067 7265 7361     iled during eras
   ddf14:	2065 7266 6d61 6441 7264 253d 0075 0000     e framAddr=%u...

000ddf24 <_ZTV6MB85RC>:
	...
   ddf2c:	66ed 000d 66ef 000d 679d 000d 6833 000d     .f...f...g..3h..
   ddf3c:	68b5 000d 6564 6976 6563 6552 6461 6620     .h..deviceRead f
   ddf4c:	6961 656c 2064 7473 7461 253d 0064 6573     ailed stat=%d.se
   ddf5c:	2074 6954 656d 6620 6f72 206d 5452 2043     t Time from RTC 
   ddf6c:	7325 6400 7665 6369 5765 6972 6574 6620     %s.deviceWrite f
   ddf7c:	6961 656c 2064 7473 7461 253d 0064 6573     ailed stat=%d.se
   ddf8c:	2074 5452 2043 7266 6d6f 6320 6f6c 6475     t RTC from cloud
   ddf9c:	2520 0073 6c63 756f 2064 6974 656d 6e20      %s.cloud time n
   ddfac:	746f 7620 6c61 6469 6400 7665 6369 5765     ot valid.deviceW
   ddfbc:	6972 6574 4545 5250 4d4f 6620 6961 656c     riteEEPROM faile
   ddfcc:	2064 7473 7461 253d 0064 7061 2e70 7472     d stat=%d.app.rt
   ddfdc:	0063 0000                                   c...

000ddfe0 <_ZTV12MCP79410SRAM>:
	...
   ddfe8:	6975 000d 698b 000d 6965 000d 6969 000d     ui...i..ei..ii..
   ddff8:	69b5 000d 6c9d 000d 6ebd 000d               .i...l...n..

000de004 <_ZTV12MCP79410Time>:
	...
   de00c:	6979 000d 697d 000d                         yi..}i..

000de014 <_ZTV14MCP79410EEPROM>:
	...
   de01c:	6977 000d 6999 000d 696d 000d 6971 000d     wi...i..mi..qi..
   de02c:	69b5 000d 6cd7 000d 70fd 000d               .i...l...p..

000de038 <_ZTV8MCP79410>:
	...
   de040:	697b 000d 69a7 000d 7550 6c62 7369 5168     {i...i..PublishQ
   de050:	6575 6575 7341 6e79 0063 7571 7565 6965     ueueAsync.queuei
   de060:	676e 6520 6576 746e 614e 656d 253d 2073     ng eventName=%s 
   de070:	6164 6174 253d 2073 7474 3d6c 6425 6620     data=%s ttl=%d f
   de080:	616c 7367 3d31 6425 6620 616c 7367 3d32     lags1=%d flags2=
   de090:	6425 7320 7a69 3d65 6425 7000 6275 696c     %d size=%d.publi
   de0a0:	6873 6e69 2067 7325 2520 2073 7474 3d6c     shing %s %s ttl=
   de0b0:	6425 6620 616c 7367 253d 0078 7570 6c62     %d flags=%x.publ
   de0c0:	7369 6568 2064 7573 6363 7365 6673 6c75     ished successful
   de0d0:	796c 7000 6275 696c 6873 6465 6620 6961     ly.published fai
   de0e0:	656c 2c64 7720 6c69 206c 6572 7274 2079     led, will retry 
   de0f0:	6e69 2520 756c 6d20 0073 7061 2e70 7570     in %lu ms.app.pu
   de100:	7162 0000                                   bq..

000de104 <_ZTV21PublishQueueAsyncBase>:
	...
   de114:	71a5 000d 40a9 000d 40a9 000d 40a9 000d     .q...@...@...@..
   de124:	40a9 000d 40a9 000d                         .@...@..

000de12c <_ZTV25PublishQueueAsyncRetained>:
	...
   de134:	728d 000d 72a1 000d 71a5 000d 7331 000d     .r...r...q..1s..
   de144:	72f1 000d 72cf 000d 7477 000d 7317 000d     .r...r..wt...s..
   de154:	7325 682f 6f6f 2d6b 6572 7073 6e6f 6573     %s/hook-response
   de164:	252f 2f73 7500 6470 7461 4465 7461 2061     /%s/.updateData 
   de174:	6163 6c6c 6465 2520 0073 6c43 756f 4364     called %s.CloudC
   de184:	6e6f 6966 5567 6470 7461 5765 6265 6f68     onfigUpdateWebho
   de194:	6b6f 3a3a 7473 7261 5574 6470 7461 2065     ok::startUpdate 
   de1a4:	7325 6300 6f6c 6475 6320 6e6f 656e 7463     %s.cloud connect
   de1b4:	6465 7700 6961 2074 6f66 2072 7075 6164     ed.wait for upda
   de1c4:	6574 6e00 206f 6164 6174 6f20 2072 7075     te.no data or up
   de1d4:	6164 6574 6120 2074 6572 7473 7261 0074     date at restart.
   de1e4:	6863 6365 696b 676e 6620 726f 7420 6d69     checking for tim
   de1f4:	2065 7075 6164 6574 7300 6174 6574 7453     e update.stateSt
   de204:	7261 5574 6470 7461 0065 7473 7461 5765     artUpdate.stateW
   de214:	6961 5574 6470 7461 4365 6d6f 6c70 7465     aitUpdateComplet
   de224:	2065 6974 656d 756f 0074 7473 7461 5765     e timeout.stateW
   de234:	6961 5574 6470 7461 4365 6d6f 6c70 7465     aitUpdateComplet
   de244:	2065 6f63 706d 656c 6574 0000               e complete..

000de250 <_ZTV11CloudConfig>:
	...
   de258:	7a1d 000d 7851 000d 7871 000d               .z..Qx..qx..

000de264 <_ZTV22CloudConfigStorageData>:
	...
   de26c:	40d7 000d 771d 000d 40a9 000d 5e25 000d     .@...w...@..%^..
   de27c:	40d1 000d 7799 000d 0000 0000 0000 0000     .@...w..........
   de28c:	40a9 000d                                   .@..

000de290 <_ZTV24CloudConfigUpdateWebhook>:
	...
   de298:	7ab1 000d 7719 000d 7a55 000d 7769 000d     .z...w..Uz..iw..
   de2a8:	7785 000d                                   .w..

000de2ac <_ZTV29CloudConfigUpdateSubscription>:
	...
   de2b4:	7ab1 000d 7719 000d 771b 000d 773d 000d     .z...w...w..=w..
   de2c4:	7755 000d 6170 7472 6369 656c 642f 7665     Uw..particle/dev
   de2d4:	6369 2f65 616e 656d 0000 0000               ice/name....

000de2e0 <_ZTV16DeviceNameHelper>:
	...
   de2e8:	7f35 000d 7f55 000d 7e65 000d               5...U...e~..

000de2f4 <_ZTV24DeviceNameHelperRetained>:
	...
   de2fc:	7f69 000d 7f7d 000d 7e65 000d               i...}...e~..

000de308 <_ZTVN5spark13CellularClassE>:
	...
   de310:	8bc7 000d 8bbd 000d 8bb3 000d 8b69 000d     ............i...
   de320:	8ba7 000d 8b9b 000d 9b5d 000d 9b65 000d     ........]...e...
   de330:	8b8f 000d 8b87 000d 8b7d 000d 8b73 000d     ........}...s...
   de340:	9b95 000d                                   ....

000de344 <_ZTVSt15_Sp_counted_ptrIPN8particle6detail10FutureImplIbNS1_13FutureContextEEELN9__gnu_cxx12_Lock_policyE0EE>:
	...
   de34c:	8c01 000d 8c07 000d 8c45 000d 8c15 000d     ........E.......
   de35c:	8c03 000d                                   ....

000de360 <_ZTVN5spark13EthernetClassE>:
	...
   de368:	9203 000d 91f9 000d 91ef 000d 91e5 000d     ................
   de378:	91d9 000d 91cd 000d 9b5d 000d 9b65 000d     ........]...e...
   de388:	91c1 000d 91b9 000d 91af 000d 91a5 000d     ................
   de398:	9b95 000d                                   ....

000de39c <_ZTV7TwoWire>:
	...
   de3a4:	9221 000d 926b 000d 9243 000d 9223 000d     !...k...C...#...
   de3b4:	924b 000d 9253 000d 925b 000d 9263 000d     K...S...[...c...

000de3c4 <_ZTV9IPAddress>:
	...
   de3cc:	939d 000d 938d 000d 938f 000d 2e30 0030     ............0.0.
   de3dc:	6166 736c 0065 7274 6575 2500 0067 2575     false.true.%g.u%
   de3ec:	3430 0078                                   04x.

000de3f0 <_ZTVSt15_Sp_counted_ptrIPN5spark6detail8JSONDataELN9__gnu_cxx12_Lock_policyE0EE>:
	...
   de3f8:	94a7 000d 94bd 000d 94d3 000d 94cb 000d     ................
   de408:	94ab 000d                                   ....

000de40c <_ZTVN5spark16JSONBufferWriterE>:
	...
   de414:	94a9 000d 94af 000d 94fb 000d 9521 000d     ............!...
   de424:	7061 0070                                   app.

000de428 <_ZTVN5spark12NetworkClassE>:
	...
   de430:	9b1d 000d 9b27 000d 9b31 000d 9b3b 000d     ....'...1...;...
   de440:	9b45 000d 9b51 000d 9b5d 000d 9b65 000d     E...Q...]...e...
   de450:	9b6d 000d 9b79 000d 9b81 000d 9b8b 000d     m...y...........
   de460:	9b95 000d 005a 2b25 3330 3a64 3025 7532     ....Z.%+03d:%02u
   de470:	2500 2d59 6d25 252d 5464 4825 253a 3a4d     .%Y-%m-%dT%H:%M:
   de480:	5325 7a25 6100 6373 6974 656d 0000 0000     %S%z.asctime....

000de490 <_ZTV11USARTSerial>:
	...
   de498:	a301 000d a36d 000d a345 000d 9c89 000d     ....m...E.......
   de4a8:	a315 000d a331 000d a323 000d a33f 000d     ....1...#...?...
   de4b8:	a303 000d a307 000d                         ........

000de4c0 <_ZTV9USBSerial>:
	...
   de4c8:	a401 000d a469 000d a43f 000d 9c89 000d     ....i...?.......
   de4d8:	a431 000d a403 000d a413 000d a463 000d     1...........c...
   de4e8:	a423 000d a3fd 000d                         #.......

000de4f0 <_ZSt7nothrow>:
   de4f0:	0000 0000 7173 7472 2500 332e 2073 2e25     ....sqrt.%.3s %.
   de500:	7333 3325 2064 2e25 6432 253a 322e 3a64     3s%3d %.2d:%.2d:
   de510:	2e25 6432 2520 0a64                          %.2d %d..

000de519 <day_name.6145>:
   de519:	7553 4d6e 6e6f 7554 5765 6465 6854 4675     SunMonTueWedThuF
   de529:	6972 6153                                    riSat

000de52e <mon_name.6146>:
   de52e:	614a 466e 6265 614d 4172 7270 614d 4a79     JanFebMarAprMayJ
   de53e:	6e75 754a 416c 6775 6553 4f70 7463 6f4e     unJulAugSepOctNo
   de54e:	4476 6365 666e 6900 696e 7974 6100 006e     vDecnf.inity.an.
	...

000de560 <fpi.7566>:
   de560:	0035 0000 fbce ffff 03cb 0000 0001 0000     5...............
   de570:	0000 0000                                   ....

000de574 <fpinan.7602>:
   de574:	0034 0000 fbce ffff 03cb 0000 0001 0000     4...............
   de584:	0000 0000                                   ....

000de588 <tinytens>:
   de588:	89bc 97d8 d2b2 3c9c a733 d5a8 f623 3949     .......<3...#.I9
   de598:	a73d 44f4 0ffd 32a5 979d cf8c ba08 255b     =..D...2......[%
   de5a8:	6f43 64ac 0628 1168                         Co.d(.h.

000de5b0 <_ctype_>:
   de5b0:	2000 2020 2020 2020 2020 2828 2828 2028     .         ((((( 
   de5c0:	2020 2020 2020 2020 2020 2020 2020 2020                     
   de5d0:	8820 1010 1010 1010 1010 1010 1010 1010      ...............
   de5e0:	0410 0404 0404 0404 0404 1004 1010 1010     ................
   de5f0:	1010 4141 4141 4141 0101 0101 0101 0101     ..AAAAAA........
   de600:	0101 0101 0101 0101 0101 0101 1010 1010     ................
   de610:	1010 4242 4242 4242 0202 0202 0202 0202     ..BBBBBB........
   de620:	0202 0202 0202 0202 0202 0202 1010 1010     ................
   de630:	0020 0000 0000 0000 0000 0000 0000 0000      ...............
	...

000de6b4 <_C_numeric_locale>:
   de6b4:	d57f 000d e518 000d dd6c 2003 0043 4f50     ........l.. C.PO
   de6c4:	4953 0058                                   SIX.

000de6c8 <__mprec_bigtens>:
   de6c8:	8000 37e0 c379 4341 6e17 b505 b8b5 4693     ...7y.AC.n.....F
   de6d8:	f9f5 e93f 4f03 4d38 1d32 f930 7748 5a82     ..?..O8M2.0.Hw.Z
   de6e8:	bf3c 7f73 4fdd 7515                         <.s..O.u

000de6f0 <__mprec_tens>:
   de6f0:	0000 0000 0000 3ff0 0000 0000 0000 4024     .......?......$@
   de700:	0000 0000 0000 4059 0000 0000 4000 408f     ......Y@.....@.@
   de710:	0000 0000 8800 40c3 0000 0000 6a00 40f8     .......@.....j.@
   de720:	0000 0000 8480 412e 0000 0000 12d0 4163     .......A......cA
   de730:	0000 0000 d784 4197 0000 0000 cd65 41cd     .......A....e..A
   de740:	0000 2000 a05f 4202 0000 e800 4876 4237     ... _..B....vH7B
   de750:	0000 a200 1a94 426d 0000 e540 309c 42a2     ......mB..@..0.B
   de760:	0000 1e90 bcc4 42d6 0000 2634 6bf5 430c     .......B..4&.k.C
   de770:	8000 37e0 c379 4341 a000 85d8 3457 4376     ...7y.AC....W4vC
   de780:	c800 674e c16d 43ab 3d00 6091 58e4 43e1     ..Ngm..C.=.`.X.C
   de790:	8c40 78b5 af1d 4415 ef50 d6e2 1ae4 444b     @..x...DP.....KD
   de7a0:	d592 064d f0cf 4480 4af6 c7e1 2d02 44b5     ..M....D.J...-.D
   de7b0:	9db4 79d9 7843 44ea                         ...yCx.D

000de7b8 <p05.7490>:
   de7b8:	0005 0000 0019 0000 007d 0000               ........}...

000de7c4 <link_const_variable_data_end>:
   de7c4:	000d6379 	.word	0x000d6379
   de7c8:	000d712d 	.word	0x000d712d
   de7cc:	000d7709 	.word	0x000d7709
   de7d0:	000d7e59 	.word	0x000d7e59
   de7d4:	000d83a9 	.word	0x000d83a9
   de7d8:	000d8b41 	.word	0x000d8b41
   de7dc:	000d8bd1 	.word	0x000d8bd1
   de7e0:	000d920d 	.word	0x000d920d
   de7e4:	000d9b0d 	.word	0x000d9b0d
   de7e8:	000d9c75 	.word	0x000d9c75
   de7ec:	000d9d29 	.word	0x000d9d29
   de7f0:	000d9fad 	.word	0x000d9fad
   de7f4:	000da2ed 	.word	0x000da2ed

000de7f8 <link_constructors_end>:
	...
